
sel4_app.elf:     file format elf32-littlearm


Disassembly of section .note.gnu.build-id:

000100f4 <.note.gnu.build-id>:
   100f4:	00000004 	andeq	r0, r0, r4
   100f8:	00000014 	andeq	r0, r0, r4, lsl r0
   100fc:	00000003 	andeq	r0, r0, r3
   10100:	00554e47 	subseq	r4, r5, r7, asr #28
   10104:	4bba4b65 	blmi	feea2ea0 <__bss_end__+0xfee7adf0>
   10108:	7bb3d62e 	blvc	fed059c8 <__bss_end__+0xfecdd918>
   1010c:	88a83130 	stmiahi	r8!, {r4, r5, r8, ip, sp}
   10110:	7df79506 	cfldr64vc	mvdx9, [r7, #24]!
   10114:	0aa26008 	beq	fe8a813c <__bss_end__+0xfe88008c>

Disassembly of section .text:

00010118 <seL4_CapRights_new>:
    seL4_Uint32 words[1];
};
typedef struct seL4_CapRights seL4_CapRights_t;

LIBSEL4_INLINE_FUNC seL4_CapRights_t CONST
seL4_CapRights_new(seL4_Uint32 capAllowGrantReply, seL4_Uint32 capAllowGrant, seL4_Uint32 capAllowRead, seL4_Uint32 capAllowWrite) {
   10118:	e92d4800 	push	{fp, lr}
   1011c:	e28db004 	add	fp, sp, #4
   10120:	e24dd018 	sub	sp, sp, #24
   10124:	e50b0010 	str	r0, [fp, #-16]
   10128:	e50b1014 	str	r1, [fp, #-20]	; 0xffffffec
   1012c:	e50b2018 	str	r2, [fp, #-24]	; 0xffffffe8
   10130:	e50b301c 	str	r3, [fp, #-28]	; 0xffffffe4
    seL4_CapRights_t seL4_CapRights;

    /* fail if user has passed bits that we will override */  
    seL4_DebugAssert((capAllowGrantReply & ~0x1u) == ((0 && (capAllowGrantReply & (1u << 31))) ? 0x0 : 0));  
   10134:	e51b3010 	ldr	r3, [fp, #-16]
   10138:	e3c33001 	bic	r3, r3, #1
   1013c:	e3530000 	cmp	r3, #0
   10140:	0a000007 	beq	10164 <seL4_CapRights_new+0x4c>
   10144:	e30633d8 	movw	r3, #25560	; 0x63d8
   10148:	e3403001 	movt	r3, #1
   1014c:	e3a0207f 	mov	r2, #127	; 0x7f
   10150:	e306111c 	movw	r1, #24860	; 0x611c
   10154:	e3401001 	movt	r1, #1
   10158:	e306018c 	movw	r0, #24972	; 0x618c
   1015c:	e3400001 	movt	r0, #1
   10160:	eb0009d6 	bl	128c0 <__assert_fail>
    seL4_DebugAssert((capAllowGrant & ~0x1u) == ((0 && (capAllowGrant & (1u << 31))) ? 0x0 : 0));  
   10164:	e51b3014 	ldr	r3, [fp, #-20]	; 0xffffffec
   10168:	e3c33001 	bic	r3, r3, #1
   1016c:	e3530000 	cmp	r3, #0
   10170:	0a000007 	beq	10194 <seL4_CapRights_new+0x7c>
   10174:	e30633d8 	movw	r3, #25560	; 0x63d8
   10178:	e3403001 	movt	r3, #1
   1017c:	e3a02080 	mov	r2, #128	; 0x80
   10180:	e306111c 	movw	r1, #24860	; 0x611c
   10184:	e3401001 	movt	r1, #1
   10188:	e30601e4 	movw	r0, #25060	; 0x61e4
   1018c:	e3400001 	movt	r0, #1
   10190:	eb0009ca 	bl	128c0 <__assert_fail>
    seL4_DebugAssert((capAllowRead & ~0x1u) == ((0 && (capAllowRead & (1u << 31))) ? 0x0 : 0));  
   10194:	e51b3018 	ldr	r3, [fp, #-24]	; 0xffffffe8
   10198:	e3c33001 	bic	r3, r3, #1
   1019c:	e3530000 	cmp	r3, #0
   101a0:	0a000007 	beq	101c4 <seL4_CapRights_new+0xac>
   101a4:	e30633d8 	movw	r3, #25560	; 0x63d8
   101a8:	e3403001 	movt	r3, #1
   101ac:	e3a02081 	mov	r2, #129	; 0x81
   101b0:	e306111c 	movw	r1, #24860	; 0x611c
   101b4:	e3401001 	movt	r1, #1
   101b8:	e3060230 	movw	r0, #25136	; 0x6230
   101bc:	e3400001 	movt	r0, #1
   101c0:	eb0009be 	bl	128c0 <__assert_fail>
    seL4_DebugAssert((capAllowWrite & ~0x1u) == ((0 && (capAllowWrite & (1u << 31))) ? 0x0 : 0));
   101c4:	e51b301c 	ldr	r3, [fp, #-28]	; 0xffffffe4
   101c8:	e3c33001 	bic	r3, r3, #1
   101cc:	e3530000 	cmp	r3, #0
   101d0:	0a000007 	beq	101f4 <seL4_CapRights_new+0xdc>
   101d4:	e30633d8 	movw	r3, #25560	; 0x63d8
   101d8:	e3403001 	movt	r3, #1
   101dc:	e3a02082 	mov	r2, #130	; 0x82
   101e0:	e306111c 	movw	r1, #24860	; 0x611c
   101e4:	e3401001 	movt	r1, #1
   101e8:	e306027c 	movw	r0, #25212	; 0x627c
   101ec:	e3400001 	movt	r0, #1
   101f0:	eb0009b2 	bl	128c0 <__assert_fail>

    seL4_CapRights.words[0] = 0
        | (capAllowGrantReply & 0x1u) << 3
   101f4:	e51b3010 	ldr	r3, [fp, #-16]
   101f8:	e1a03183 	lsl	r3, r3, #3
   101fc:	e2032008 	and	r2, r3, #8
        | (capAllowGrant & 0x1u) << 2
   10200:	e51b3014 	ldr	r3, [fp, #-20]	; 0xffffffec
   10204:	e1a03103 	lsl	r3, r3, #2
   10208:	e2033004 	and	r3, r3, #4
   1020c:	e1822003 	orr	r2, r2, r3
        | (capAllowRead & 0x1u) << 1
   10210:	e51b3018 	ldr	r3, [fp, #-24]	; 0xffffffe8
   10214:	e1a03083 	lsl	r3, r3, #1
   10218:	e2033002 	and	r3, r3, #2
   1021c:	e1822003 	orr	r2, r2, r3
        | (capAllowWrite & 0x1u) << 0;
   10220:	e51b301c 	ldr	r3, [fp, #-28]	; 0xffffffe4
   10224:	e2033001 	and	r3, r3, #1
   10228:	e1823003 	orr	r3, r2, r3
    seL4_CapRights.words[0] = 0
   1022c:	e50b3008 	str	r3, [fp, #-8]

    return seL4_CapRights;
   10230:	e51b3008 	ldr	r3, [fp, #-8]
}
   10234:	e1a00003 	mov	r0, r3
   10238:	e24bd004 	sub	sp, fp, #4
   1023c:	e8bd8800 	pop	{fp, pc}

00010240 <seL4_MessageInfo_new>:
    seL4_Uint32 words[1];
};
typedef struct seL4_MessageInfo seL4_MessageInfo_t;

LIBSEL4_INLINE_FUNC seL4_MessageInfo_t CONST
seL4_MessageInfo_new(seL4_Uint32 label, seL4_Uint32 capsUnwrapped, seL4_Uint32 extraCaps, seL4_Uint32 length) {
   10240:	e92d4800 	push	{fp, lr}
   10244:	e28db004 	add	fp, sp, #4
   10248:	e24dd018 	sub	sp, sp, #24
   1024c:	e50b0010 	str	r0, [fp, #-16]
   10250:	e50b1014 	str	r1, [fp, #-20]	; 0xffffffec
   10254:	e50b2018 	str	r2, [fp, #-24]	; 0xffffffe8
   10258:	e50b301c 	str	r3, [fp, #-28]	; 0xffffffe4
    seL4_MessageInfo_t seL4_MessageInfo;

    /* fail if user has passed bits that we will override */  
    seL4_DebugAssert((label & ~0xfffffu) == ((0 && (label & (1u << 31))) ? 0x0 : 0));  
   1025c:	e51b3010 	ldr	r3, [fp, #-16]
   10260:	e1a03a23 	lsr	r3, r3, #20
   10264:	e1a03a03 	lsl	r3, r3, #20
   10268:	e3530000 	cmp	r3, #0
   1026c:	0a000007 	beq	10290 <seL4_MessageInfo_new+0x50>
   10270:	e30633ec 	movw	r3, #25580	; 0x63ec
   10274:	e3403001 	movt	r3, #1
   10278:	e3002142 	movw	r2, #322	; 0x142
   1027c:	e306111c 	movw	r1, #24860	; 0x611c
   10280:	e3401001 	movt	r1, #1
   10284:	e30602c8 	movw	r0, #25288	; 0x62c8
   10288:	e3400001 	movt	r0, #1
   1028c:	eb00098b 	bl	128c0 <__assert_fail>
    seL4_DebugAssert((capsUnwrapped & ~0x7u) == ((0 && (capsUnwrapped & (1u << 31))) ? 0x0 : 0));  
   10290:	e51b3014 	ldr	r3, [fp, #-20]	; 0xffffffec
   10294:	e3c33007 	bic	r3, r3, #7
   10298:	e3530000 	cmp	r3, #0
   1029c:	0a000007 	beq	102c0 <seL4_MessageInfo_new+0x80>
   102a0:	e30633ec 	movw	r3, #25580	; 0x63ec
   102a4:	e3403001 	movt	r3, #1
   102a8:	e3002143 	movw	r2, #323	; 0x143
   102ac:	e306111c 	movw	r1, #24860	; 0x611c
   102b0:	e3401001 	movt	r1, #1
   102b4:	e3060308 	movw	r0, #25352	; 0x6308
   102b8:	e3400001 	movt	r0, #1
   102bc:	eb00097f 	bl	128c0 <__assert_fail>
    seL4_DebugAssert((extraCaps & ~0x3u) == ((0 && (extraCaps & (1u << 31))) ? 0x0 : 0));  
   102c0:	e51b3018 	ldr	r3, [fp, #-24]	; 0xffffffe8
   102c4:	e3c33003 	bic	r3, r3, #3
   102c8:	e3530000 	cmp	r3, #0
   102cc:	0a000007 	beq	102f0 <seL4_MessageInfo_new+0xb0>
   102d0:	e30633ec 	movw	r3, #25580	; 0x63ec
   102d4:	e3403001 	movt	r3, #1
   102d8:	e3a02f51 	mov	r2, #324	; 0x144
   102dc:	e306111c 	movw	r1, #24860	; 0x611c
   102e0:	e3401001 	movt	r1, #1
   102e4:	e3060354 	movw	r0, #25428	; 0x6354
   102e8:	e3400001 	movt	r0, #1
   102ec:	eb000973 	bl	128c0 <__assert_fail>
    seL4_DebugAssert((length & ~0x7fu) == ((0 && (length & (1u << 31))) ? 0x0 : 0));
   102f0:	e51b301c 	ldr	r3, [fp, #-28]	; 0xffffffe4
   102f4:	e3c3307f 	bic	r3, r3, #127	; 0x7f
   102f8:	e3530000 	cmp	r3, #0
   102fc:	0a000007 	beq	10320 <seL4_MessageInfo_new+0xe0>
   10300:	e30633ec 	movw	r3, #25580	; 0x63ec
   10304:	e3403001 	movt	r3, #1
   10308:	e3002145 	movw	r2, #325	; 0x145
   1030c:	e306111c 	movw	r1, #24860	; 0x611c
   10310:	e3401001 	movt	r1, #1
   10314:	e3060398 	movw	r0, #25496	; 0x6398
   10318:	e3400001 	movt	r0, #1
   1031c:	eb000967 	bl	128c0 <__assert_fail>

    seL4_MessageInfo.words[0] = 0
        | (label & 0xfffffu) << 12
   10320:	e51b3010 	ldr	r3, [fp, #-16]
   10324:	e1a02603 	lsl	r2, r3, #12
        | (capsUnwrapped & 0x7u) << 9
   10328:	e51b3014 	ldr	r3, [fp, #-20]	; 0xffffffec
   1032c:	e1a03483 	lsl	r3, r3, #9
   10330:	e2033c0e 	and	r3, r3, #3584	; 0xe00
   10334:	e1822003 	orr	r2, r2, r3
        | (extraCaps & 0x3u) << 7
   10338:	e51b3018 	ldr	r3, [fp, #-24]	; 0xffffffe8
   1033c:	e1a03383 	lsl	r3, r3, #7
   10340:	e2033d06 	and	r3, r3, #384	; 0x180
   10344:	e1822003 	orr	r2, r2, r3
        | (length & 0x7fu) << 0;
   10348:	e51b301c 	ldr	r3, [fp, #-28]	; 0xffffffe4
   1034c:	e203307f 	and	r3, r3, #127	; 0x7f
   10350:	e1823003 	orr	r3, r2, r3
    seL4_MessageInfo.words[0] = 0
   10354:	e50b3008 	str	r3, [fp, #-8]

    return seL4_MessageInfo;
   10358:	e51b3008 	ldr	r3, [fp, #-8]
}
   1035c:	e1a00003 	mov	r0, r3
   10360:	e24bd004 	sub	sp, fp, #4
   10364:	e8bd8800 	pop	{fp, pc}

00010368 <seL4_MessageInfo_get_label>:
        | (extraCaps & 0x3u) << 7
        | (length & 0x7fu) << 0;
}

LIBSEL4_INLINE_FUNC seL4_Uint32 CONST
seL4_MessageInfo_get_label(seL4_MessageInfo_t seL4_MessageInfo) {
   10368:	e52db004 	push	{fp}		; (str fp, [sp, #-4]!)
   1036c:	e28db000 	add	fp, sp, #0
   10370:	e24dd014 	sub	sp, sp, #20
   10374:	e50b0010 	str	r0, [fp, #-16]
    seL4_Uint32 ret;
    ret = (seL4_MessageInfo.words[0] & 0xfffff000u) >> 12;
   10378:	e51b3010 	ldr	r3, [fp, #-16]
   1037c:	e1a03623 	lsr	r3, r3, #12
   10380:	e50b3008 	str	r3, [fp, #-8]
    /* Possibly sign extend */
    if (__builtin_expect(!!(0 && (ret & (1u << (31)))), 0)) {
        ret |= 0x0;
    }
    return ret;
   10384:	e51b3008 	ldr	r3, [fp, #-8]
}
   10388:	e1a00003 	mov	r0, r3
   1038c:	e28bd000 	add	sp, fp, #0
   10390:	e49db004 	pop	{fp}		; (ldr fp, [sp], #4)
   10394:	e12fff1e 	bx	lr

00010398 <seL4_MessageInfo_get_length>:
    seL4_MessageInfo_ptr->words[0] &= ~0x180u;
    seL4_MessageInfo_ptr->words[0] |= (v32 << 7) & 0x180;
}

LIBSEL4_INLINE_FUNC seL4_Uint32 CONST
seL4_MessageInfo_get_length(seL4_MessageInfo_t seL4_MessageInfo) {
   10398:	e52db004 	push	{fp}		; (str fp, [sp, #-4]!)
   1039c:	e28db000 	add	fp, sp, #0
   103a0:	e24dd014 	sub	sp, sp, #20
   103a4:	e50b0010 	str	r0, [fp, #-16]
    seL4_Uint32 ret;
    ret = (seL4_MessageInfo.words[0] & 0x7fu) >> 0;
   103a8:	e51b3010 	ldr	r3, [fp, #-16]
   103ac:	e203307f 	and	r3, r3, #127	; 0x7f
   103b0:	e50b3008 	str	r3, [fp, #-8]
    /* Possibly sign extend */
    if (__builtin_expect(!!(0 && (ret & (1u << (31)))), 0)) {
        ret |= 0x0;
    }
    return ret;
   103b4:	e51b3008 	ldr	r3, [fp, #-8]
}
   103b8:	e1a00003 	mov	r0, r3
   103bc:	e28bd000 	add	sp, fp, #0
   103c0:	e49db004 	pop	{fp}		; (ldr fp, [sp], #4)
   103c4:	e12fff1e 	bx	lr

000103c8 <seL4_GetIPCBuffer>:
    __sel4_ipc_buffer = ipc_buffer;
    return;
}

LIBSEL4_INLINE_FUNC seL4_IPCBuffer *seL4_GetIPCBuffer(void)
{
   103c8:	e92d4800 	push	{fp, lr}
   103cc:	e28db004 	add	fp, sp, #4
    return __sel4_ipc_buffer;
   103d0:	eb000909 	bl	127fc <__aeabi_read_tp>
   103d4:	e1a03000 	mov	r3, r0
   103d8:	e59f2008 	ldr	r2, [pc, #8]	; 103e8 <seL4_GetIPCBuffer+0x20>
   103dc:	e7933002 	ldr	r3, [r3, r2]
}
   103e0:	e1a00003 	mov	r0, r3
   103e4:	e8bd8800 	pop	{fp, pc}
   103e8:	00000008 	andeq	r0, r0, r8

000103ec <seL4_SetMR>:
{
    return seL4_GetIPCBuffer()->msg[i];
}

LIBSEL4_INLINE_FUNC void seL4_SetMR(int i, seL4_Word mr)
{
   103ec:	e92d4800 	push	{fp, lr}
   103f0:	e28db004 	add	fp, sp, #4
   103f4:	e24dd008 	sub	sp, sp, #8
   103f8:	e50b0008 	str	r0, [fp, #-8]
   103fc:	e50b100c 	str	r1, [fp, #-12]
    seL4_GetIPCBuffer()->msg[i] = mr;
   10400:	ebfffff0 	bl	103c8 <seL4_GetIPCBuffer>
   10404:	e1a02000 	mov	r2, r0
   10408:	e51b3008 	ldr	r3, [fp, #-8]
   1040c:	e1a03103 	lsl	r3, r3, #2
   10410:	e0823003 	add	r3, r2, r3
   10414:	e51b200c 	ldr	r2, [fp, #-12]
   10418:	e5832004 	str	r2, [r3, #4]
}
   1041c:	e320f000 	nop	{0}
   10420:	e24bd004 	sub	sp, fp, #4
   10424:	e8bd8800 	pop	{fp, pc}

00010428 <seL4_SetCap>:
{
    return (seL4_CPtr)seL4_GetIPCBuffer()->caps_or_badges[i];
}

LIBSEL4_INLINE_FUNC void seL4_SetCap(int i, seL4_CPtr cptr)
{
   10428:	e92d4800 	push	{fp, lr}
   1042c:	e28db004 	add	fp, sp, #4
   10430:	e24dd008 	sub	sp, sp, #8
   10434:	e50b0008 	str	r0, [fp, #-8]
   10438:	e50b100c 	str	r1, [fp, #-12]
    seL4_GetIPCBuffer()->caps_or_badges[i] = (seL4_Word)cptr;
   1043c:	ebffffe1 	bl	103c8 <seL4_GetIPCBuffer>
   10440:	e1a01000 	mov	r1, r0
   10444:	e51b3008 	ldr	r3, [fp, #-8]
   10448:	e283307a 	add	r3, r3, #122	; 0x7a
   1044c:	e51b200c 	ldr	r2, [fp, #-12]
   10450:	e7812103 	str	r2, [r1, r3, lsl #2]
}
   10454:	e320f000 	nop	{0}
   10458:	e24bd004 	sub	sp, fp, #4
   1045c:	e8bd8800 	pop	{fp, pc}

00010460 <arm_sys_send_recv>:
}

static inline void arm_sys_send_recv(seL4_Word sys, seL4_Word dest, seL4_Word *out_badge, seL4_Word info_arg,
                                     seL4_Word *out_info, seL4_Word *in_out_mr0, seL4_Word *in_out_mr1, seL4_Word *in_out_mr2, seL4_Word *in_out_mr3,
                                     LIBSEL4_UNUSED seL4_Word reply)
{
   10460:	e92d08b0 	push	{r4, r5, r7, fp}
   10464:	e28db00c 	add	fp, sp, #12
   10468:	e24dd010 	sub	sp, sp, #16
   1046c:	e50b0010 	str	r0, [fp, #-16]
   10470:	e50b1014 	str	r1, [fp, #-20]	; 0xffffffec
   10474:	e50b2018 	str	r2, [fp, #-24]	; 0xffffffe8
   10478:	e50b301c 	str	r3, [fp, #-28]	; 0xffffffe4
    register seL4_Word destptr asm("r0") = dest;
   1047c:	e51b0014 	ldr	r0, [fp, #-20]	; 0xffffffec
    register seL4_Word info asm("r1") = info_arg;
   10480:	e51b101c 	ldr	r1, [fp, #-28]	; 0xffffffe4

    /* Load beginning of the message into registers. */
    register seL4_Word msg0 asm("r2") = *in_out_mr0;
   10484:	e59b3008 	ldr	r3, [fp, #8]
   10488:	e5933000 	ldr	r3, [r3]
   1048c:	e1a02003 	mov	r2, r3
    register seL4_Word msg1 asm("r3") = *in_out_mr1;
   10490:	e59b300c 	ldr	r3, [fp, #12]
   10494:	e5933000 	ldr	r3, [r3]
    register seL4_Word msg2 asm("r4") = *in_out_mr2;
   10498:	e59bc010 	ldr	ip, [fp, #16]
   1049c:	e59cc000 	ldr	ip, [ip]
   104a0:	e1a0400c 	mov	r4, ip
    register seL4_Word msg3 asm("r5") = *in_out_mr3;
   104a4:	e59bc014 	ldr	ip, [fp, #20]
   104a8:	e59cc000 	ldr	ip, [ip]
   104ac:	e1a0500c 	mov	r5, ip

    /* Perform the system call. */
    MCS_PARAM_DECL("r6");
    register seL4_Word scno asm("r7") = sys;
   104b0:	e51b7010 	ldr	r7, [fp, #-16]
    asm volatile(
   104b4:	ef000000 	svc	0x00000000
        : "+r"(msg0), "+r"(msg1), "+r"(msg2), "+r"(msg3),
        "+r"(info), "+r"(destptr)
        : "r"(scno) MCS_PARAM
        : "memory"
    );
    *out_info = info;
   104b8:	e1a0c001 	mov	ip, r1
   104bc:	e59b1004 	ldr	r1, [fp, #4]
   104c0:	e581c000 	str	ip, [r1]
    *out_badge = destptr;
   104c4:	e51b1018 	ldr	r1, [fp, #-24]	; 0xffffffe8
   104c8:	e5810000 	str	r0, [r1]
    *in_out_mr0 = msg0;
   104cc:	e1a01002 	mov	r1, r2
   104d0:	e59b2008 	ldr	r2, [fp, #8]
   104d4:	e5821000 	str	r1, [r2]
    *in_out_mr1 = msg1;
   104d8:	e1a02003 	mov	r2, r3
   104dc:	e59b300c 	ldr	r3, [fp, #12]
   104e0:	e5832000 	str	r2, [r3]
    *in_out_mr2 = msg2;
   104e4:	e1a02004 	mov	r2, r4
   104e8:	e59b3010 	ldr	r3, [fp, #16]
   104ec:	e5832000 	str	r2, [r3]
    *in_out_mr3 = msg3;
   104f0:	e1a02005 	mov	r2, r5
   104f4:	e59b3014 	ldr	r3, [fp, #20]
   104f8:	e5832000 	str	r2, [r3]
}
   104fc:	e320f000 	nop	{0}
   10500:	e24bd00c 	sub	sp, fp, #12
   10504:	e8bd08b0 	pop	{r4, r5, r7, fp}
   10508:	e12fff1e 	bx	lr

0001050c <seL4_CallWithMRs>:
    return info;
}

LIBSEL4_INLINE_FUNC seL4_MessageInfo_t seL4_CallWithMRs(seL4_CPtr dest, seL4_MessageInfo_t msgInfo,
                                                        seL4_Word *mr0, seL4_Word *mr1, seL4_Word *mr2, seL4_Word *mr3)
{
   1050c:	e92d4800 	push	{fp, lr}
   10510:	e28db004 	add	fp, sp, #4
   10514:	e24dd040 	sub	sp, sp, #64	; 0x40
   10518:	e50b0020 	str	r0, [fp, #-32]	; 0xffffffe0
   1051c:	e50b1024 	str	r1, [fp, #-36]	; 0xffffffdc
   10520:	e50b2028 	str	r2, [fp, #-40]	; 0xffffffd8
   10524:	e50b302c 	str	r3, [fp, #-44]	; 0xffffffd4
    seL4_MessageInfo_t info;
    seL4_Word msg0 = 0;
   10528:	e3a03000 	mov	r3, #0
   1052c:	e50b300c 	str	r3, [fp, #-12]
    seL4_Word msg1 = 0;
   10530:	e3a03000 	mov	r3, #0
   10534:	e50b3010 	str	r3, [fp, #-16]
    seL4_Word msg2 = 0;
   10538:	e3a03000 	mov	r3, #0
   1053c:	e50b3014 	str	r3, [fp, #-20]	; 0xffffffec
    seL4_Word msg3 = 0;
   10540:	e3a03000 	mov	r3, #0
   10544:	e50b3018 	str	r3, [fp, #-24]	; 0xffffffe8

    /* Load beginning of the message into registers. */
    if (mr0 != seL4_Null && seL4_MessageInfo_get_length(msgInfo) > 0) {
   10548:	e51b3028 	ldr	r3, [fp, #-40]	; 0xffffffd8
   1054c:	e3530000 	cmp	r3, #0
   10550:	0a000007 	beq	10574 <seL4_CallWithMRs+0x68>
   10554:	e51b0024 	ldr	r0, [fp, #-36]	; 0xffffffdc
   10558:	ebffff8e 	bl	10398 <seL4_MessageInfo_get_length>
   1055c:	e1a03000 	mov	r3, r0
   10560:	e3530000 	cmp	r3, #0
   10564:	0a000002 	beq	10574 <seL4_CallWithMRs+0x68>
        msg0 = *mr0;
   10568:	e51b3028 	ldr	r3, [fp, #-40]	; 0xffffffd8
   1056c:	e5933000 	ldr	r3, [r3]
   10570:	e50b300c 	str	r3, [fp, #-12]
    }
    if (mr1 != seL4_Null && seL4_MessageInfo_get_length(msgInfo) > 1) {
   10574:	e51b302c 	ldr	r3, [fp, #-44]	; 0xffffffd4
   10578:	e3530000 	cmp	r3, #0
   1057c:	0a000007 	beq	105a0 <seL4_CallWithMRs+0x94>
   10580:	e51b0024 	ldr	r0, [fp, #-36]	; 0xffffffdc
   10584:	ebffff83 	bl	10398 <seL4_MessageInfo_get_length>
   10588:	e1a03000 	mov	r3, r0
   1058c:	e3530001 	cmp	r3, #1
   10590:	9a000002 	bls	105a0 <seL4_CallWithMRs+0x94>
        msg1 = *mr1;
   10594:	e51b302c 	ldr	r3, [fp, #-44]	; 0xffffffd4
   10598:	e5933000 	ldr	r3, [r3]
   1059c:	e50b3010 	str	r3, [fp, #-16]
    }
    if (mr2 != seL4_Null && seL4_MessageInfo_get_length(msgInfo) > 2) {
   105a0:	e59b3004 	ldr	r3, [fp, #4]
   105a4:	e3530000 	cmp	r3, #0
   105a8:	0a000007 	beq	105cc <seL4_CallWithMRs+0xc0>
   105ac:	e51b0024 	ldr	r0, [fp, #-36]	; 0xffffffdc
   105b0:	ebffff78 	bl	10398 <seL4_MessageInfo_get_length>
   105b4:	e1a03000 	mov	r3, r0
   105b8:	e3530002 	cmp	r3, #2
   105bc:	9a000002 	bls	105cc <seL4_CallWithMRs+0xc0>
        msg2 = *mr2;
   105c0:	e59b3004 	ldr	r3, [fp, #4]
   105c4:	e5933000 	ldr	r3, [r3]
   105c8:	e50b3014 	str	r3, [fp, #-20]	; 0xffffffec
    }
    if (mr3 != seL4_Null && seL4_MessageInfo_get_length(msgInfo) > 3) {
   105cc:	e59b3008 	ldr	r3, [fp, #8]
   105d0:	e3530000 	cmp	r3, #0
   105d4:	0a000007 	beq	105f8 <seL4_CallWithMRs+0xec>
   105d8:	e51b0024 	ldr	r0, [fp, #-36]	; 0xffffffdc
   105dc:	ebffff6d 	bl	10398 <seL4_MessageInfo_get_length>
   105e0:	e1a03000 	mov	r3, r0
   105e4:	e3530003 	cmp	r3, #3
   105e8:	9a000002 	bls	105f8 <seL4_CallWithMRs+0xec>
        msg3 = *mr3;
   105ec:	e59b3008 	ldr	r3, [fp, #8]
   105f0:	e5933000 	ldr	r3, [r3]
   105f4:	e50b3018 	str	r3, [fp, #-24]	; 0xffffffe8
    }

    arm_sys_send_recv(seL4_SysCall, dest, &dest, msgInfo.words[0], &info.words[0], &msg0, &msg1, &msg2, &msg3, 0);
   105f8:	e51b1020 	ldr	r1, [fp, #-32]	; 0xffffffe0
   105fc:	e51b0024 	ldr	r0, [fp, #-36]	; 0xffffffdc
   10600:	e24b2020 	sub	r2, fp, #32
   10604:	e3a03000 	mov	r3, #0
   10608:	e58d3014 	str	r3, [sp, #20]
   1060c:	e24b3018 	sub	r3, fp, #24
   10610:	e58d3010 	str	r3, [sp, #16]
   10614:	e24b3014 	sub	r3, fp, #20
   10618:	e58d300c 	str	r3, [sp, #12]
   1061c:	e24b3010 	sub	r3, fp, #16
   10620:	e58d3008 	str	r3, [sp, #8]
   10624:	e24b300c 	sub	r3, fp, #12
   10628:	e58d3004 	str	r3, [sp, #4]
   1062c:	e24b3008 	sub	r3, fp, #8
   10630:	e58d3000 	str	r3, [sp]
   10634:	e1a03000 	mov	r3, r0
   10638:	e3e00000 	mvn	r0, #0
   1063c:	ebffff87 	bl	10460 <arm_sys_send_recv>

    /* Write out the data back to memory. */
    if (mr0 != seL4_Null) {
   10640:	e51b3028 	ldr	r3, [fp, #-40]	; 0xffffffd8
   10644:	e3530000 	cmp	r3, #0
   10648:	0a000002 	beq	10658 <seL4_CallWithMRs+0x14c>
        *mr0 = msg0;
   1064c:	e51b200c 	ldr	r2, [fp, #-12]
   10650:	e51b3028 	ldr	r3, [fp, #-40]	; 0xffffffd8
   10654:	e5832000 	str	r2, [r3]
    }
    if (mr1 != seL4_Null) {
   10658:	e51b302c 	ldr	r3, [fp, #-44]	; 0xffffffd4
   1065c:	e3530000 	cmp	r3, #0
   10660:	0a000002 	beq	10670 <seL4_CallWithMRs+0x164>
        *mr1 = msg1;
   10664:	e51b2010 	ldr	r2, [fp, #-16]
   10668:	e51b302c 	ldr	r3, [fp, #-44]	; 0xffffffd4
   1066c:	e5832000 	str	r2, [r3]
    }
    if (mr2 != seL4_Null) {
   10670:	e59b3004 	ldr	r3, [fp, #4]
   10674:	e3530000 	cmp	r3, #0
   10678:	0a000002 	beq	10688 <seL4_CallWithMRs+0x17c>
        *mr2 = msg2;
   1067c:	e51b2014 	ldr	r2, [fp, #-20]	; 0xffffffec
   10680:	e59b3004 	ldr	r3, [fp, #4]
   10684:	e5832000 	str	r2, [r3]
    }
    if (mr3 != seL4_Null) {
   10688:	e59b3008 	ldr	r3, [fp, #8]
   1068c:	e3530000 	cmp	r3, #0
   10690:	0a000002 	beq	106a0 <seL4_CallWithMRs+0x194>
        *mr3 = msg3;
   10694:	e51b2018 	ldr	r2, [fp, #-24]	; 0xffffffe8
   10698:	e59b3008 	ldr	r3, [fp, #8]
   1069c:	e5832000 	str	r2, [r3]
    }

    return info;
   106a0:	e51b3008 	ldr	r3, [fp, #-8]
}
   106a4:	e1a00003 	mov	r0, r3
   106a8:	e24bd004 	sub	sp, fp, #4
   106ac:	e8bd8800 	pop	{fp, pc}

000106b0 <seL4_CNode_Copy>:
 * @retval seL4_RangeError The  @xmlonly <texttt text="dest_depth"/> @endxmlonly  or  @xmlonly <texttt text="src_depth"/> @endxmlonly  is invalid  @xmlonly <docref>(see <autoref label="s:cspace-addressing"/>)</docref> @endxmlonly . 
 * @retval seL4_RevokeFirst The source capability cannot be derived @xmlonly <docref> (see <autoref label="sec:cap_derivation"/>)</docref> @endxmlonly . 
 */
LIBSEL4_INLINE seL4_Error
seL4_CNode_Copy(seL4_CNode _service, seL4_Word dest_index, seL4_Uint8 dest_depth, seL4_CNode src_root, seL4_Word src_index, seL4_Uint8 src_depth, seL4_CapRights_t rights)
{
   106b0:	e92d4800 	push	{fp, lr}
   106b4:	e28db004 	add	fp, sp, #4
   106b8:	e24dd038 	sub	sp, sp, #56	; 0x38
   106bc:	e50b0028 	str	r0, [fp, #-40]	; 0xffffffd8
   106c0:	e50b102c 	str	r1, [fp, #-44]	; 0xffffffd4
   106c4:	e50b3034 	str	r3, [fp, #-52]	; 0xffffffcc
   106c8:	e1a03002 	mov	r3, r2
   106cc:	e54b302d 	strb	r3, [fp, #-45]	; 0xffffffd3
	seL4_Error result;
	seL4_MessageInfo_t tag = seL4_MessageInfo_new(CNodeCopy, 0, 1, 5);
   106d0:	e3a03005 	mov	r3, #5
   106d4:	e3a02001 	mov	r2, #1
   106d8:	e3a01000 	mov	r1, #0
   106dc:	e3a00013 	mov	r0, #19
   106e0:	ebfffed6 	bl	10240 <seL4_MessageInfo_new>
   106e4:	e1a03000 	mov	r3, r0
   106e8:	e50b300c 	str	r3, [fp, #-12]
	seL4_Word mr1;
	seL4_Word mr2;
	seL4_Word mr3;

	/* Setup input capabilities. */
	seL4_SetCap(0, src_root);
   106ec:	e51b1034 	ldr	r1, [fp, #-52]	; 0xffffffcc
   106f0:	e3a00000 	mov	r0, #0
   106f4:	ebffff4b 	bl	10428 <seL4_SetCap>

	/* Marshal and initialise parameters. */
	mr0 = dest_index;
   106f8:	e51b302c 	ldr	r3, [fp, #-44]	; 0xffffffd4
   106fc:	e50b3014 	str	r3, [fp, #-20]	; 0xffffffec
	mr1 = (dest_depth & 0xfful);
   10700:	e55b302d 	ldrb	r3, [fp, #-45]	; 0xffffffd3
   10704:	e50b3018 	str	r3, [fp, #-24]	; 0xffffffe8
	mr2 = src_index;
   10708:	e59b3004 	ldr	r3, [fp, #4]
   1070c:	e50b301c 	str	r3, [fp, #-28]	; 0xffffffe4
	mr3 = (src_depth & 0xfful);
   10710:	e5db3008 	ldrb	r3, [fp, #8]
   10714:	e50b3020 	str	r3, [fp, #-32]	; 0xffffffe0
	seL4_SetMR(4, rights.words[0]);
   10718:	e59b300c 	ldr	r3, [fp, #12]
   1071c:	e1a01003 	mov	r1, r3
   10720:	e3a00004 	mov	r0, #4
   10724:	ebffff30 	bl	103ec <seL4_SetMR>

	/* Perform the call, passing in-register arguments directly. */
	output_tag = seL4_CallWithMRs(_service, tag,
   10728:	e24b1018 	sub	r1, fp, #24
   1072c:	e24b2014 	sub	r2, fp, #20
   10730:	e24b3020 	sub	r3, fp, #32
   10734:	e58d3004 	str	r3, [sp, #4]
   10738:	e24b301c 	sub	r3, fp, #28
   1073c:	e58d3000 	str	r3, [sp]
   10740:	e1a03001 	mov	r3, r1
   10744:	e51b100c 	ldr	r1, [fp, #-12]
   10748:	e51b0028 	ldr	r0, [fp, #-40]	; 0xffffffd8
   1074c:	ebffff6e 	bl	1050c <seL4_CallWithMRs>
   10750:	e1a03000 	mov	r3, r0
   10754:	e50b3010 	str	r3, [fp, #-16]
		&mr0, &mr1, &mr2, &mr3);
	result = (seL4_Error) seL4_MessageInfo_get_label(output_tag);
   10758:	e51b0010 	ldr	r0, [fp, #-16]
   1075c:	ebffff01 	bl	10368 <seL4_MessageInfo_get_label>
   10760:	e50b0008 	str	r0, [fp, #-8]

	/* Unmarshal registers into IPC buffer on error. */
	if (result != seL4_NoError) {
   10764:	e51b3008 	ldr	r3, [fp, #-8]
   10768:	e3530000 	cmp	r3, #0
   1076c:	0a00000f 	beq	107b0 <seL4_CNode_Copy+0x100>
		seL4_SetMR(0, mr0);
   10770:	e51b3014 	ldr	r3, [fp, #-20]	; 0xffffffec
   10774:	e1a01003 	mov	r1, r3
   10778:	e3a00000 	mov	r0, #0
   1077c:	ebffff1a 	bl	103ec <seL4_SetMR>
		seL4_SetMR(1, mr1);
   10780:	e51b3018 	ldr	r3, [fp, #-24]	; 0xffffffe8
   10784:	e1a01003 	mov	r1, r3
   10788:	e3a00001 	mov	r0, #1
   1078c:	ebffff16 	bl	103ec <seL4_SetMR>
		seL4_SetMR(2, mr2);
   10790:	e51b301c 	ldr	r3, [fp, #-28]	; 0xffffffe4
   10794:	e1a01003 	mov	r1, r3
   10798:	e3a00002 	mov	r0, #2
   1079c:	ebffff12 	bl	103ec <seL4_SetMR>
		seL4_SetMR(3, mr3);
   107a0:	e51b3020 	ldr	r3, [fp, #-32]	; 0xffffffe0
   107a4:	e1a01003 	mov	r1, r3
   107a8:	e3a00003 	mov	r0, #3
   107ac:	ebffff0e 	bl	103ec <seL4_SetMR>
			seL4_DebugPutString(seL4_GetDebugError());
		}
#endif
	}

	return result;
   107b0:	e51b3008 	ldr	r3, [fp, #-8]
}
   107b4:	e1a00003 	mov	r0, r3
   107b8:	e24bd004 	sub	sp, fp, #4
   107bc:	e8bd8800 	pop	{fp, pc}

000107c0 <main>:
#include <sel4/sel4.h>
#include <sel4runtime.h>

int main(int argc, char *argv[])
{
   107c0:	e92d4800 	push	{fp, lr}
   107c4:	e28db004 	add	fp, sp, #4
   107c8:	e24dd028 	sub	sp, sp, #40	; 0x28
   107cc:	e50b0018 	str	r0, [fp, #-24]	; 0xffffffe8
   107d0:	e50b101c 	str	r1, [fp, #-28]	; 0xffffffe4
    seL4_BootInfo *info = sel4runtime_bootinfo();
   107d4:	eb000127 	bl	10c78 <sel4runtime_bootinfo>
   107d8:	e50b0008 	str	r0, [fp, #-8]

    seL4_CPtr first_free_slot = info->empty.start;
   107dc:	e51b3008 	ldr	r3, [fp, #-8]
   107e0:	e5933014 	ldr	r3, [r3, #20]
   107e4:	e50b300c 	str	r3, [fp, #-12]
    seL4_Error error = seL4_CNode_Copy(seL4_CapInitThreadCNode, first_free_slot, seL4_WordBits,
   107e8:	e3a03001 	mov	r3, #1
   107ec:	e3a02001 	mov	r2, #1
   107f0:	e3a01001 	mov	r1, #1
   107f4:	e3a00001 	mov	r0, #1
   107f8:	ebfffe46 	bl	10118 <seL4_CapRights_new>
   107fc:	e1a03000 	mov	r3, r0
   10800:	e58d3008 	str	r3, [sp, #8]
   10804:	e3a03020 	mov	r3, #32
   10808:	e58d3004 	str	r3, [sp, #4]
   1080c:	e3a03001 	mov	r3, #1
   10810:	e58d3000 	str	r3, [sp]
   10814:	e3a03002 	mov	r3, #2
   10818:	e3a02020 	mov	r2, #32
   1081c:	e51b100c 	ldr	r1, [fp, #-12]
   10820:	e3a00002 	mov	r0, #2
   10824:	ebffffa1 	bl	106b0 <seL4_CNode_Copy>
   10828:	e50b0010 	str	r0, [fp, #-16]
                                       seL4_CapInitThreadCNode, seL4_CapInitThreadTCB, seL4_WordBits,
                                       seL4_AllRights);
    while (1) {
   1082c:	eafffffe 	b	1082c <main+0x6c>

00010830 <_sel4_start>:
.syntax unified

.section .text
.global _sel4_start
_sel4_start:
	ldr sp, =__stack_top
   10830:	e59fd004 	ldr	sp, [pc, #4]	; 1083c <_sel4_start+0xc>
	bl __sel4_start_root
   10834:	eb000001 	bl	10840 <__sel4_start_root>
	/* should not return */
1:
	b 1b
   10838:	eafffffe 	b	10838 <_sel4_start+0x8>
	ldr sp, =__stack_top
   1083c:	00024000 	andeq	r4, r2, r0

00010840 <__sel4_start_root>:
 *
 * This is invoked by _sel4_start, which simply sets up a static stack
 * and passes the argument to us.
 */
void __sel4_start_root(seL4_BootInfo *boot_info)
{
   10840:	e92d4800 	push	{fp, lr}
   10844:	e28db004 	add	fp, sp, #4
   10848:	e24dd088 	sub	sp, sp, #136	; 0x88
   1084c:	e50b0080 	str	r0, [fp, #-128]	; 0xffffff80
    sel4runtime_uintptr_t tdata_start = (sel4runtime_uintptr_t) &_tdata_start[0];
   10850:	e3063de8 	movw	r3, #28136	; 0x6de8
   10854:	e3403001 	movt	r3, #1
   10858:	e50b3008 	str	r3, [fp, #-8]
    sel4runtime_uintptr_t tdata_end = (sel4runtime_uintptr_t) &_tdata_end[0];
   1085c:	e3063de8 	movw	r3, #28136	; 0x6de8
   10860:	e3403001 	movt	r3, #1
   10864:	e50b300c 	str	r3, [fp, #-12]
    sel4runtime_uintptr_t tbss_start = (sel4runtime_uintptr_t) &_tbss_start[0];
   10868:	e3063de8 	movw	r3, #28136	; 0x6de8
   1086c:	e3403001 	movt	r3, #1
   10870:	e50b3010 	str	r3, [fp, #-16]
    sel4runtime_uintptr_t tbss_end = (sel4runtime_uintptr_t) &_tbss_end[0];
   10874:	e3063df0 	movw	r3, #28144	; 0x6df0
   10878:	e3403001 	movt	r3, #1
   1087c:	e50b3014 	str	r3, [fp, #-20]	; 0xffffffec
     * region p_memsz value will be wrong.
     * Assigning empty tbss_start to tdata[_start|_end] will
     * follow ld.bfd and results in the proper 0 p_memsz.
     * The .tdata section is empty and hence, the linker script variables are zero
     */
    if (tdata_start == 0) {
   10880:	e51b3008 	ldr	r3, [fp, #-8]
   10884:	e3530000 	cmp	r3, #0
   10888:	1a000003 	bne	1089c <__sel4_start_root+0x5c>
        tdata_start = tbss_start;
   1088c:	e51b3010 	ldr	r3, [fp, #-16]
   10890:	e50b3008 	str	r3, [fp, #-8]
        tdata_end = tbss_start;
   10894:	e51b3010 	ldr	r3, [fp, #-16]
   10898:	e50b300c 	str	r3, [fp, #-12]
    }

    Elf_Phdr tls_header = {
   1089c:	e24b3034 	sub	r3, fp, #52	; 0x34
   108a0:	e3a02020 	mov	r2, #32
   108a4:	e3a01000 	mov	r1, #0
   108a8:	e1a00003 	mov	r0, r3
   108ac:	eb000f96 	bl	1470c <memset>
   108b0:	e3a03007 	mov	r3, #7
   108b4:	e50b3034 	str	r3, [fp, #-52]	; 0xffffffcc
   108b8:	e51b3008 	ldr	r3, [fp, #-8]
   108bc:	e50b302c 	str	r3, [fp, #-44]	; 0xffffffd4
        .p_type   = PT_TLS,
        .p_offset = 0,
        .p_vaddr  = (Elf_Addr) tdata_start,
        .p_paddr  = 0,
        .p_filesz = tdata_end - tdata_start,
   108c0:	e51b200c 	ldr	r2, [fp, #-12]
   108c4:	e51b3008 	ldr	r3, [fp, #-8]
   108c8:	e0423003 	sub	r3, r2, r3
    Elf_Phdr tls_header = {
   108cc:	e50b3024 	str	r3, [fp, #-36]	; 0xffffffdc
        .p_memsz  = tbss_end - tdata_start,
   108d0:	e51b2014 	ldr	r2, [fp, #-20]	; 0xffffffec
   108d4:	e51b3008 	ldr	r3, [fp, #-8]
   108d8:	e0423003 	sub	r3, r2, r3
    Elf_Phdr tls_header = {
   108dc:	e50b3020 	str	r3, [fp, #-32]	; 0xffffffe0
   108e0:	e3a03004 	mov	r3, #4
   108e4:	e50b3018 	str	r3, [fp, #-24]	; 0xffffffe8

    struct {
        char const *const argv[2];
        char const *const envp[2];
        auxv_t auxv[7];
    } info = {
   108e8:	e3063408 	movw	r3, #25608	; 0x6408
   108ec:	e3403001 	movt	r3, #1
   108f0:	e50b307c 	str	r3, [fp, #-124]	; 0xffffff84
   108f4:	e3a03000 	mov	r3, #0
   108f8:	e50b3078 	str	r3, [fp, #-120]	; 0xffffff88
   108fc:	e3063414 	movw	r3, #25620	; 0x6414
   10900:	e3403001 	movt	r3, #1
   10904:	e50b3074 	str	r3, [fp, #-116]	; 0xffffff8c
   10908:	e3a03000 	mov	r3, #0
   1090c:	e50b3070 	str	r3, [fp, #-112]	; 0xffffff90
   10910:	e3a03004 	mov	r3, #4
   10914:	e50b306c 	str	r3, [fp, #-108]	; 0xffffff94
   10918:	e3a03020 	mov	r3, #32
   1091c:	e50b3068 	str	r3, [fp, #-104]	; 0xffffff98
   10920:	e3a03005 	mov	r3, #5
   10924:	e50b3064 	str	r3, [fp, #-100]	; 0xffffff9c
   10928:	e3a03001 	mov	r3, #1
   1092c:	e50b3060 	str	r3, [fp, #-96]	; 0xffffffa0
   10930:	e3a03003 	mov	r3, #3
   10934:	e50b305c 	str	r3, [fp, #-92]	; 0xffffffa4
   10938:	e24b3034 	sub	r3, fp, #52	; 0x34
   1093c:	e50b3058 	str	r3, [fp, #-88]	; 0xffffffa8
   10940:	e3a03020 	mov	r3, #32
   10944:	e50b3054 	str	r3, [fp, #-84]	; 0xffffffac
   10948:	e30237d8 	movw	r3, #10200	; 0x27d8
   1094c:	e3403001 	movt	r3, #1
   10950:	e50b3050 	str	r3, [fp, #-80]	; 0xffffffb0
   10954:	e3a03040 	mov	r3, #64	; 0x40
   10958:	e50b304c 	str	r3, [fp, #-76]	; 0xffffffb4
   1095c:	e51b3080 	ldr	r3, [fp, #-128]	; 0xffffff80
   10960:	e50b3048 	str	r3, [fp, #-72]	; 0xffffffb8
   10964:	e3a03045 	mov	r3, #69	; 0x45
   10968:	e50b3044 	str	r3, [fp, #-68]	; 0xffffffbc
   1096c:	e3a03001 	mov	r3, #1
   10970:	e50b3040 	str	r3, [fp, #-64]	; 0xffffffc0
   10974:	e3a03000 	mov	r3, #0
   10978:	e50b303c 	str	r3, [fp, #-60]	; 0xffffffc4
   1097c:	e3a03000 	mov	r3, #0
   10980:	e50b3038 	str	r3, [fp, #-56]	; 0xffffffc8
                .a_un.a_val = 0
            },
        },
    };

    __sel4runtime_start_main(main, ARRAY_LENGTH(info.argv) - 1, info.argv, info.envp, info.auxv);
   10984:	e24b307c 	sub	r3, fp, #124	; 0x7c
   10988:	e2831008 	add	r1, r3, #8
   1098c:	e24b207c 	sub	r2, fp, #124	; 0x7c
   10990:	e24b307c 	sub	r3, fp, #124	; 0x7c
   10994:	e2833010 	add	r3, r3, #16
   10998:	e58d3000 	str	r3, [sp]
   1099c:	e1a03001 	mov	r3, r1
   109a0:	e3a01001 	mov	r1, #1
   109a4:	e30007c0 	movw	r0, #1984	; 0x7c0
   109a8:	e3400001 	movt	r0, #1
   109ac:	eb0007ac 	bl	12864 <__sel4runtime_start_main>
}
   109b0:	e320f000 	nop	{0}
   109b4:	e24bd004 	sub	sp, fp, #4
   109b8:	e8bd8800 	pop	{fp, pc}

000109bc <seL4_GetIPCBuffer>:
{
   109bc:	e92d4800 	push	{fp, lr}
   109c0:	e28db004 	add	fp, sp, #4
    return __sel4_ipc_buffer;
   109c4:	eb00078c 	bl	127fc <__aeabi_read_tp>
   109c8:	e1a03000 	mov	r3, r0
   109cc:	e59f2008 	ldr	r2, [pc, #8]	; 109dc <seL4_GetIPCBuffer+0x20>
   109d0:	e7933002 	ldr	r3, [r3, r2]
}
   109d4:	e1a00003 	mov	r0, r3
   109d8:	e8bd8800 	pop	{fp, pc}
   109dc:	00000008 	andeq	r0, r0, r8

000109e0 <arm_sys_send_recv>:
{
   109e0:	e92d08b0 	push	{r4, r5, r7, fp}
   109e4:	e28db00c 	add	fp, sp, #12
   109e8:	e24dd010 	sub	sp, sp, #16
   109ec:	e50b0010 	str	r0, [fp, #-16]
   109f0:	e50b1014 	str	r1, [fp, #-20]	; 0xffffffec
   109f4:	e50b2018 	str	r2, [fp, #-24]	; 0xffffffe8
   109f8:	e50b301c 	str	r3, [fp, #-28]	; 0xffffffe4
    register seL4_Word destptr asm("r0") = dest;
   109fc:	e51b0014 	ldr	r0, [fp, #-20]	; 0xffffffec
    register seL4_Word info asm("r1") = info_arg;
   10a00:	e51b101c 	ldr	r1, [fp, #-28]	; 0xffffffe4
    register seL4_Word msg0 asm("r2") = *in_out_mr0;
   10a04:	e59b3008 	ldr	r3, [fp, #8]
   10a08:	e5933000 	ldr	r3, [r3]
   10a0c:	e1a02003 	mov	r2, r3
    register seL4_Word msg1 asm("r3") = *in_out_mr1;
   10a10:	e59b300c 	ldr	r3, [fp, #12]
   10a14:	e5933000 	ldr	r3, [r3]
    register seL4_Word msg2 asm("r4") = *in_out_mr2;
   10a18:	e59bc010 	ldr	ip, [fp, #16]
   10a1c:	e59cc000 	ldr	ip, [ip]
   10a20:	e1a0400c 	mov	r4, ip
    register seL4_Word msg3 asm("r5") = *in_out_mr3;
   10a24:	e59bc014 	ldr	ip, [fp, #20]
   10a28:	e59cc000 	ldr	ip, [ip]
   10a2c:	e1a0500c 	mov	r5, ip
    register seL4_Word scno asm("r7") = sys;
   10a30:	e51b7010 	ldr	r7, [fp, #-16]
    asm volatile(
   10a34:	ef000000 	svc	0x00000000
    *out_info = info;
   10a38:	e1a0c001 	mov	ip, r1
   10a3c:	e59b1004 	ldr	r1, [fp, #4]
   10a40:	e581c000 	str	ip, [r1]
    *out_badge = destptr;
   10a44:	e51b1018 	ldr	r1, [fp, #-24]	; 0xffffffe8
   10a48:	e5810000 	str	r0, [r1]
    *in_out_mr0 = msg0;
   10a4c:	e1a01002 	mov	r1, r2
   10a50:	e59b2008 	ldr	r2, [fp, #8]
   10a54:	e5821000 	str	r1, [r2]
    *in_out_mr1 = msg1;
   10a58:	e1a02003 	mov	r2, r3
   10a5c:	e59b300c 	ldr	r3, [fp, #12]
   10a60:	e5832000 	str	r2, [r3]
    *in_out_mr2 = msg2;
   10a64:	e1a02004 	mov	r2, r4
   10a68:	e59b3010 	ldr	r3, [fp, #16]
   10a6c:	e5832000 	str	r2, [r3]
    *in_out_mr3 = msg3;
   10a70:	e1a02005 	mov	r2, r5
   10a74:	e59b3014 	ldr	r3, [fp, #20]
   10a78:	e5832000 	str	r2, [r3]
}
   10a7c:	e320f000 	nop	{0}
   10a80:	e24bd00c 	sub	sp, fp, #12
   10a84:	e8bd08b0 	pop	{r4, r5, r7, fp}
   10a88:	e12fff1e 	bx	lr

00010a8c <seL4_DebugNameThread>:
    return (seL4_Uint32)cap;
}

char *strcpy(char *, const char *);
LIBSEL4_INLINE_FUNC void seL4_DebugNameThread(seL4_CPtr tcb, const char *name)
{
   10a8c:	e92d4800 	push	{fp, lr}
   10a90:	e28db004 	add	fp, sp, #4
   10a94:	e24dd038 	sub	sp, sp, #56	; 0x38
   10a98:	e50b0020 	str	r0, [fp, #-32]	; 0xffffffe0
   10a9c:	e50b1024 	str	r1, [fp, #-36]	; 0xffffffdc
    strcpy((char *)seL4_GetIPCBuffer()->msg, name);
   10aa0:	ebffffc5 	bl	109bc <seL4_GetIPCBuffer>
   10aa4:	e1a03000 	mov	r3, r0
   10aa8:	e2833004 	add	r3, r3, #4
   10aac:	e51b1024 	ldr	r1, [fp, #-36]	; 0xffffffdc
   10ab0:	e1a00003 	mov	r0, r3
   10ab4:	eb000f51 	bl	14800 <strcpy>

    seL4_Word unused0 = 0;
   10ab8:	e3a03000 	mov	r3, #0
   10abc:	e50b3008 	str	r3, [fp, #-8]
    seL4_Word unused1 = 0;
   10ac0:	e3a03000 	mov	r3, #0
   10ac4:	e50b300c 	str	r3, [fp, #-12]
    seL4_Word unused2 = 0;
   10ac8:	e3a03000 	mov	r3, #0
   10acc:	e50b3010 	str	r3, [fp, #-16]
    seL4_Word unused3 = 0;
   10ad0:	e3a03000 	mov	r3, #0
   10ad4:	e50b3014 	str	r3, [fp, #-20]	; 0xffffffec
    seL4_Word unused4 = 0;
   10ad8:	e3a03000 	mov	r3, #0
   10adc:	e50b3018 	str	r3, [fp, #-24]	; 0xffffffe8
    seL4_Word unused5 = 0;
   10ae0:	e3a03000 	mov	r3, #0
   10ae4:	e50b301c 	str	r3, [fp, #-28]	; 0xffffffe4

    arm_sys_send_recv(seL4_SysDebugNameThread, tcb, &unused0, 0, &unused1, &unused2, &unused3, &unused4, &unused5, 0);
   10ae8:	e24b2008 	sub	r2, fp, #8
   10aec:	e3a03000 	mov	r3, #0
   10af0:	e58d3014 	str	r3, [sp, #20]
   10af4:	e24b301c 	sub	r3, fp, #28
   10af8:	e58d3010 	str	r3, [sp, #16]
   10afc:	e24b3018 	sub	r3, fp, #24
   10b00:	e58d300c 	str	r3, [sp, #12]
   10b04:	e24b3014 	sub	r3, fp, #20
   10b08:	e58d3008 	str	r3, [sp, #8]
   10b0c:	e24b3010 	sub	r3, fp, #16
   10b10:	e58d3004 	str	r3, [sp, #4]
   10b14:	e24b300c 	sub	r3, fp, #12
   10b18:	e58d3000 	str	r3, [sp]
   10b1c:	e3a03000 	mov	r3, #0
   10b20:	e51b1020 	ldr	r1, [fp, #-32]	; 0xffffffe0
   10b24:	e3e0000d 	mvn	r0, #13
   10b28:	ebffffac 	bl	109e0 <arm_sys_send_recv>
}
   10b2c:	e320f000 	nop	{0}
   10b30:	e24bd004 	sub	sp, fp, #4
   10b34:	e8bd8800 	pop	{fp, pc}

00010b38 <sel4runtime_read_tpidr_el0>:
#if defined(__ARM_ARCH_7A__) || \
    defined(__ARM_ARCH_7R__) || \
    (defined(__ARM_ARCH) && __ARM_ARCH >= 7)

static inline sel4runtime_uintptr_t sel4runtime_read_tpidr_el0(void)
{
   10b38:	e52db004 	push	{fp}		; (str fp, [sp, #-4]!)
   10b3c:	e28db000 	add	fp, sp, #0
   10b40:	e24dd00c 	sub	sp, sp, #12
    sel4runtime_uintptr_t reg;
    __asm__ __volatile__("mrc p15,0,%0,c13,c0,2" : "=r"(reg));
   10b44:	ee1d3f50 	mrc	15, 0, r3, cr13, cr0, {2}
   10b48:	e50b3008 	str	r3, [fp, #-8]
    return reg;
   10b4c:	e51b3008 	ldr	r3, [fp, #-8]
}
   10b50:	e1a00003 	mov	r0, r3
   10b54:	e28bd000 	add	sp, fp, #0
   10b58:	e49db004 	pop	{fp}		; (ldr fp, [sp], #4)
   10b5c:	e12fff1e 	bx	lr

00010b60 <sel4runtime_write_tpidr_el0>:

static inline void sel4runtime_write_tpidr_el0(sel4runtime_uintptr_t reg)
{
   10b60:	e52db004 	push	{fp}		; (str fp, [sp, #-4]!)
   10b64:	e28db000 	add	fp, sp, #0
   10b68:	e24dd00c 	sub	sp, sp, #12
   10b6c:	e50b0008 	str	r0, [fp, #-8]
    __asm__ __volatile__("mcr p15,0,%0,c13,c0,2" :: "r"(reg));
   10b70:	e51b3008 	ldr	r3, [fp, #-8]
   10b74:	ee0d3f50 	mcr	15, 0, r3, cr13, cr0, {2}
}
   10b78:	e320f000 	nop	{0}
   10b7c:	e28bd000 	add	sp, fp, #0
   10b80:	e49db004 	pop	{fp}		; (ldr fp, [sp], #4)
   10b84:	e12fff1e 	bx	lr

00010b88 <sel4runtime_set_tls_base>:

/*
 * Set the value of the TLS base for the current thread.
 */
static inline void sel4runtime_set_tls_base(sel4runtime_uintptr_t tls_base)
{
   10b88:	e92d4800 	push	{fp, lr}
   10b8c:	e28db004 	add	fp, sp, #4
   10b90:	e24dd008 	sub	sp, sp, #8
   10b94:	e50b0008 	str	r0, [fp, #-8]
    sel4runtime_write_tpidr_el0(tls_base);
   10b98:	e51b0008 	ldr	r0, [fp, #-8]
   10b9c:	ebffffef 	bl	10b60 <sel4runtime_write_tpidr_el0>
}
   10ba0:	e320f000 	nop	{0}
   10ba4:	e24bd004 	sub	sp, fp, #4
   10ba8:	e8bd8800 	pop	{fp, pc}

00010bac <sel4runtime_get_tls_base>:

/*
 * Obtain the value of the TLS base for the current thread.
 */
static inline sel4runtime_uintptr_t sel4runtime_get_tls_base(void)
{
   10bac:	e92d4800 	push	{fp, lr}
   10bb0:	e28db004 	add	fp, sp, #4
    return sel4runtime_read_tpidr_el0();
   10bb4:	ebffffdf 	bl	10b38 <sel4runtime_read_tpidr_el0>
   10bb8:	e1a03000 	mov	r3, r0
}
   10bbc:	e1a00003 	mov	r0, r3
   10bc0:	e8bd8800 	pop	{fp, pc}

00010bc4 <sel4runtime_process_name>:
static const sel4runtime_size_t tls_region_size(sel4runtime_size_t mem_size, sel4runtime_size_t align);
static void empty_tls(void);
static int is_initial_thread(void);

char const *sel4runtime_process_name(void)
{
   10bc4:	e52db004 	push	{fp}		; (str fp, [sp, #-4]!)
   10bc8:	e28db000 	add	fp, sp, #0
    return env.process_name;
   10bcc:	e3083000 	movw	r3, #32768	; 0x8000
   10bd0:	e3403002 	movt	r3, #2
   10bd4:	e5933000 	ldr	r3, [r3]
}
   10bd8:	e1a00003 	mov	r0, r3
   10bdc:	e28bd000 	add	sp, fp, #0
   10be0:	e49db004 	pop	{fp}		; (ldr fp, [sp], #4)
   10be4:	e12fff1e 	bx	lr

00010be8 <sel4runtime_argv>:

char const *const *sel4runtime_argv(void)
{
   10be8:	e52db004 	push	{fp}		; (str fp, [sp, #-4]!)
   10bec:	e28db000 	add	fp, sp, #0
    return env.argv;
   10bf0:	e3083000 	movw	r3, #32768	; 0x8000
   10bf4:	e3403002 	movt	r3, #2
   10bf8:	e5933038 	ldr	r3, [r3, #56]	; 0x38
}
   10bfc:	e1a00003 	mov	r0, r3
   10c00:	e28bd000 	add	sp, fp, #0
   10c04:	e49db004 	pop	{fp}		; (ldr fp, [sp], #4)
   10c08:	e12fff1e 	bx	lr

00010c0c <sel4runtime_argc>:

int sel4runtime_argc(void)
{
   10c0c:	e52db004 	push	{fp}		; (str fp, [sp, #-4]!)
   10c10:	e28db000 	add	fp, sp, #0
    return env.argc;
   10c14:	e3083000 	movw	r3, #32768	; 0x8000
   10c18:	e3403002 	movt	r3, #2
   10c1c:	e593303c 	ldr	r3, [r3, #60]	; 0x3c
}
   10c20:	e1a00003 	mov	r0, r3
   10c24:	e28bd000 	add	sp, fp, #0
   10c28:	e49db004 	pop	{fp}		; (ldr fp, [sp], #4)
   10c2c:	e12fff1e 	bx	lr

00010c30 <sel4runtime_envp>:

char const *const *sel4runtime_envp(void)
{
   10c30:	e52db004 	push	{fp}		; (str fp, [sp, #-4]!)
   10c34:	e28db000 	add	fp, sp, #0
    return env.envp;
   10c38:	e3083000 	movw	r3, #32768	; 0x8000
   10c3c:	e3403002 	movt	r3, #2
   10c40:	e5933044 	ldr	r3, [r3, #68]	; 0x44
}
   10c44:	e1a00003 	mov	r0, r3
   10c48:	e28bd000 	add	sp, fp, #0
   10c4c:	e49db004 	pop	{fp}		; (ldr fp, [sp], #4)
   10c50:	e12fff1e 	bx	lr

00010c54 <sel4runtime_auxv>:

auxv_t const *sel4runtime_auxv(void)
{
   10c54:	e52db004 	push	{fp}		; (str fp, [sp, #-4]!)
   10c58:	e28db000 	add	fp, sp, #0
    return env.auxv;
   10c5c:	e3083000 	movw	r3, #32768	; 0x8000
   10c60:	e3403002 	movt	r3, #2
   10c64:	e5933040 	ldr	r3, [r3, #64]	; 0x40
}
   10c68:	e1a00003 	mov	r0, r3
   10c6c:	e28bd000 	add	sp, fp, #0
   10c70:	e49db004 	pop	{fp}		; (ldr fp, [sp], #4)
   10c74:	e12fff1e 	bx	lr

00010c78 <sel4runtime_bootinfo>:

seL4_BootInfo *sel4runtime_bootinfo(void)
{
   10c78:	e52db004 	push	{fp}		; (str fp, [sp, #-4]!)
   10c7c:	e28db000 	add	fp, sp, #0
    return env.bootinfo;
   10c80:	e3083000 	movw	r3, #32768	; 0x8000
   10c84:	e3403002 	movt	r3, #2
   10c88:	e5933004 	ldr	r3, [r3, #4]
}
   10c8c:	e1a00003 	mov	r0, r3
   10c90:	e28bd000 	add	sp, fp, #0
   10c94:	e49db004 	pop	{fp}		; (ldr fp, [sp], #4)
   10c98:	e12fff1e 	bx	lr

00010c9c <sel4runtime_get_tls_size>:

sel4runtime_size_t sel4runtime_get_tls_size(void)
{
   10c9c:	e52db004 	push	{fp}		; (str fp, [sp, #-4]!)
   10ca0:	e28db000 	add	fp, sp, #0
    return env.tls.region_size;
   10ca4:	e3083000 	movw	r3, #32768	; 0x8000
   10ca8:	e3403002 	movt	r3, #2
   10cac:	e593302c 	ldr	r3, [r3, #44]	; 0x2c
}
   10cb0:	e1a00003 	mov	r0, r3
   10cb4:	e28bd000 	add	sp, fp, #0
   10cb8:	e49db004 	pop	{fp}		; (ldr fp, [sp], #4)
   10cbc:	e12fff1e 	bx	lr

00010cc0 <sel4runtime_initial_tls_enabled>:

int sel4runtime_initial_tls_enabled(void)
{
   10cc0:	e52db004 	push	{fp}		; (str fp, [sp, #-4]!)
   10cc4:	e28db000 	add	fp, sp, #0
    /*
     * If the TLS for the initial process has been activated, the thread
     * object in the TLS will be used rather than the static thread
     * object.
     */
    return env.initial_thread_tls_base != (sel4runtime_uintptr_t)SEL4RUNTIME_NULL;
   10cc8:	e3083000 	movw	r3, #32768	; 0x8000
   10ccc:	e3403002 	movt	r3, #2
   10cd0:	e5933008 	ldr	r3, [r3, #8]
   10cd4:	e3530000 	cmp	r3, #0
   10cd8:	13a03001 	movne	r3, #1
   10cdc:	03a03000 	moveq	r3, #0
   10ce0:	e6ef3073 	uxtb	r3, r3
}
   10ce4:	e1a00003 	mov	r0, r3
   10ce8:	e28bd000 	add	sp, fp, #0
   10cec:	e49db004 	pop	{fp}		; (ldr fp, [sp], #4)
   10cf0:	e12fff1e 	bx	lr

00010cf4 <sel4runtime_write_tls_image>:

sel4runtime_uintptr_t sel4runtime_write_tls_image(void *tls_memory)
{
   10cf4:	e92d4800 	push	{fp, lr}
   10cf8:	e28db004 	add	fp, sp, #4
   10cfc:	e24dd008 	sub	sp, sp, #8
   10d00:	e50b0008 	str	r0, [fp, #-8]
    if (tls_memory == SEL4RUNTIME_NULL) {
   10d04:	e51b3008 	ldr	r3, [fp, #-8]
   10d08:	e3530000 	cmp	r3, #0
   10d0c:	1a000001 	bne	10d18 <sel4runtime_write_tls_image+0x24>
        return (sel4runtime_uintptr_t)SEL4RUNTIME_NULL;
   10d10:	e3a03000 	mov	r3, #0
   10d14:	ea000004 	b	10d2c <sel4runtime_write_tls_image+0x38>
    }

    copy_tls_data(tls_memory);
   10d18:	e51b0008 	ldr	r0, [fp, #-8]
   10d1c:	eb0001e7 	bl	114c0 <copy_tls_data>

    return tls_base_from_tls_region(tls_memory);
   10d20:	e51b0008 	ldr	r0, [fp, #-8]
   10d24:	eb000214 	bl	1157c <tls_base_from_tls_region>
   10d28:	e1a03000 	mov	r3, r0
}
   10d2c:	e1a00003 	mov	r0, r3
   10d30:	e24bd004 	sub	sp, fp, #4
   10d34:	e8bd8800 	pop	{fp, pc}

00010d38 <sel4runtime_move_initial_tls>:

sel4runtime_uintptr_t sel4runtime_move_initial_tls(void *tls_memory)
{
   10d38:	e92d4800 	push	{fp, lr}
   10d3c:	e28db004 	add	fp, sp, #4
   10d40:	e24dd010 	sub	sp, sp, #16
   10d44:	e50b0010 	str	r0, [fp, #-16]
    if (tls_memory == SEL4RUNTIME_NULL) {
   10d48:	e51b3010 	ldr	r3, [fp, #-16]
   10d4c:	e3530000 	cmp	r3, #0
   10d50:	1a000001 	bne	10d5c <sel4runtime_move_initial_tls+0x24>
        return (sel4runtime_uintptr_t)SEL4RUNTIME_NULL;
   10d54:	e3a03000 	mov	r3, #0
   10d58:	ea000034 	b	10e30 <sel4runtime_move_initial_tls+0xf8>
    }

    sel4runtime_uintptr_t tls_base = sel4runtime_write_tls_image(tls_memory);
   10d5c:	e51b0010 	ldr	r0, [fp, #-16]
   10d60:	ebffffe3 	bl	10cf4 <sel4runtime_write_tls_image>
   10d64:	e50b0008 	str	r0, [fp, #-8]
    if (tls_base == (sel4runtime_uintptr_t)SEL4RUNTIME_NULL) {
   10d68:	e51b3008 	ldr	r3, [fp, #-8]
   10d6c:	e3530000 	cmp	r3, #0
   10d70:	1a000001 	bne	10d7c <sel4runtime_move_initial_tls+0x44>
        return (sel4runtime_uintptr_t)SEL4RUNTIME_NULL;
   10d74:	e3a03000 	mov	r3, #0
   10d78:	ea00002c 	b	10e30 <sel4runtime_move_initial_tls+0xf8>
    }

    sel4runtime_set_tls_base(tls_base);
   10d7c:	e51b0008 	ldr	r0, [fp, #-8]
   10d80:	ebffff80 	bl	10b88 <sel4runtime_set_tls_base>

    if (env.initial_thread_ipc_buffer != SEL4RUNTIME_NULL) {
   10d84:	e3083000 	movw	r3, #32768	; 0x8000
   10d88:	e3403002 	movt	r3, #2
   10d8c:	e5933010 	ldr	r3, [r3, #16]
   10d90:	e3530000 	cmp	r3, #0
   10d94:	0a000006 	beq	10db4 <sel4runtime_move_initial_tls+0x7c>
        __sel4_ipc_buffer = env.initial_thread_ipc_buffer;
   10d98:	e3083000 	movw	r3, #32768	; 0x8000
   10d9c:	e3403002 	movt	r3, #2
   10da0:	e5933010 	ldr	r3, [r3, #16]
   10da4:	eb000694 	bl	127fc <__aeabi_read_tp>
   10da8:	e1a02000 	mov	r2, r0
   10dac:	e59f1088 	ldr	r1, [pc, #136]	; 10e3c <sel4runtime_move_initial_tls+0x104>
   10db0:	e7823001 	str	r3, [r2, r1]
    }

    env.initial_thread_tls_base = tls_base;
   10db4:	e3083000 	movw	r3, #32768	; 0x8000
   10db8:	e3403002 	movt	r3, #2
   10dbc:	e51b2008 	ldr	r2, [fp, #-8]
   10dc0:	e5832008 	str	r2, [r3, #8]

#if defined(CONFIG_DEBUG_BUILD)
    if (env.initial_thread_tcb && env.initial_thread_ipc_buffer && env.process_name) {
   10dc4:	e3083000 	movw	r3, #32768	; 0x8000
   10dc8:	e3403002 	movt	r3, #2
   10dcc:	e593300c 	ldr	r3, [r3, #12]
   10dd0:	e3530000 	cmp	r3, #0
   10dd4:	0a000012 	beq	10e24 <sel4runtime_move_initial_tls+0xec>
   10dd8:	e3083000 	movw	r3, #32768	; 0x8000
   10ddc:	e3403002 	movt	r3, #2
   10de0:	e5933010 	ldr	r3, [r3, #16]
   10de4:	e3530000 	cmp	r3, #0
   10de8:	0a00000d 	beq	10e24 <sel4runtime_move_initial_tls+0xec>
   10dec:	e3083000 	movw	r3, #32768	; 0x8000
   10df0:	e3403002 	movt	r3, #2
   10df4:	e5933000 	ldr	r3, [r3]
   10df8:	e3530000 	cmp	r3, #0
   10dfc:	0a000008 	beq	10e24 <sel4runtime_move_initial_tls+0xec>
        // The thread can only be named after the TLS is initialised
        // and if an IPC buffer is present.
        seL4_DebugNameThread(env.initial_thread_tcb, env.process_name);
   10e00:	e3083000 	movw	r3, #32768	; 0x8000
   10e04:	e3403002 	movt	r3, #2
   10e08:	e593200c 	ldr	r2, [r3, #12]
   10e0c:	e3083000 	movw	r3, #32768	; 0x8000
   10e10:	e3403002 	movt	r3, #2
   10e14:	e5933000 	ldr	r3, [r3]
   10e18:	e1a01003 	mov	r1, r3
   10e1c:	e1a00002 	mov	r0, r2
   10e20:	ebffff19 	bl	10a8c <seL4_DebugNameThread>
    }
#endif

    return env.initial_thread_tls_base;
   10e24:	e3083000 	movw	r3, #32768	; 0x8000
   10e28:	e3403002 	movt	r3, #2
   10e2c:	e5933008 	ldr	r3, [r3, #8]
}
   10e30:	e1a00003 	mov	r0, r3
   10e34:	e24bd004 	sub	sp, fp, #4
   10e38:	e8bd8800 	pop	{fp, pc}
   10e3c:	00000008 	andeq	r0, r0, r8

00010e40 <sel4runtime_set_exit>:

sel4runtime_exit_cb *sel4runtime_set_exit(sel4runtime_exit_cb *cb)
{
   10e40:	e52db004 	push	{fp}		; (str fp, [sp, #-4]!)
   10e44:	e28db000 	add	fp, sp, #0
   10e48:	e24dd014 	sub	sp, sp, #20
   10e4c:	e50b0010 	str	r0, [fp, #-16]
    sel4runtime_exit_cb *old = env.exit_cb;
   10e50:	e3083000 	movw	r3, #32768	; 0x8000
   10e54:	e3403002 	movt	r3, #2
   10e58:	e5933048 	ldr	r3, [r3, #72]	; 0x48
   10e5c:	e50b3008 	str	r3, [fp, #-8]
    env.exit_cb = cb;
   10e60:	e3083000 	movw	r3, #32768	; 0x8000
   10e64:	e3403002 	movt	r3, #2
   10e68:	e51b2010 	ldr	r2, [fp, #-16]
   10e6c:	e5832048 	str	r2, [r3, #72]	; 0x48
    return old;
   10e70:	e51b3008 	ldr	r3, [fp, #-8]
}
   10e74:	e1a00003 	mov	r0, r3
   10e78:	e28bd000 	add	sp, fp, #0
   10e7c:	e49db004 	pop	{fp}		; (ldr fp, [sp], #4)
   10e80:	e12fff1e 	bx	lr

00010e84 <sel4runtime_set_pre_exit>:

sel4runtime_pre_exit_cb *sel4runtime_set_pre_exit(sel4runtime_pre_exit_cb *cb)
{
   10e84:	e52db004 	push	{fp}		; (str fp, [sp, #-4]!)
   10e88:	e28db000 	add	fp, sp, #0
   10e8c:	e24dd014 	sub	sp, sp, #20
   10e90:	e50b0010 	str	r0, [fp, #-16]
    sel4runtime_pre_exit_cb *old = env.pre_exit_cb;
   10e94:	e3083000 	movw	r3, #32768	; 0x8000
   10e98:	e3403002 	movt	r3, #2
   10e9c:	e593304c 	ldr	r3, [r3, #76]	; 0x4c
   10ea0:	e50b3008 	str	r3, [fp, #-8]
    env.pre_exit_cb = cb;
   10ea4:	e3083000 	movw	r3, #32768	; 0x8000
   10ea8:	e3403002 	movt	r3, #2
   10eac:	e51b2010 	ldr	r2, [fp, #-16]
   10eb0:	e583204c 	str	r2, [r3, #76]	; 0x4c
    return old;
   10eb4:	e51b3008 	ldr	r3, [fp, #-8]
}
   10eb8:	e1a00003 	mov	r0, r3
   10ebc:	e28bd000 	add	sp, fp, #0
   10ec0:	e49db004 	pop	{fp}		; (ldr fp, [sp], #4)
   10ec4:	e12fff1e 	bx	lr

00010ec8 <sel4runtime_exit>:

void sel4runtime_exit(int code)
{
   10ec8:	e92d4800 	push	{fp, lr}
   10ecc:	e28db004 	add	fp, sp, #4
   10ed0:	e24dd008 	sub	sp, sp, #8
   10ed4:	e50b0008 	str	r0, [fp, #-8]
    if (env.pre_exit_cb != SEL4RUNTIME_NULL) {
   10ed8:	e3083000 	movw	r3, #32768	; 0x8000
   10edc:	e3403002 	movt	r3, #2
   10ee0:	e593304c 	ldr	r3, [r3, #76]	; 0x4c
   10ee4:	e3530000 	cmp	r3, #0
   10ee8:	0a000005 	beq	10f04 <sel4runtime_exit+0x3c>
        code = env.pre_exit_cb(code);
   10eec:	e3083000 	movw	r3, #32768	; 0x8000
   10ef0:	e3403002 	movt	r3, #2
   10ef4:	e593304c 	ldr	r3, [r3, #76]	; 0x4c
   10ef8:	e51b0008 	ldr	r0, [fp, #-8]
   10efc:	e12fff33 	blx	r3
   10f00:	e50b0008 	str	r0, [fp, #-8]
    }

    __sel4runtime_run_destructors();
   10f04:	eb00029a 	bl	11974 <__sel4runtime_run_destructors>

    /* If the exit is never set this will try and call a NULL function
     * pointer which should result in a fault. This is as good a way as
     * any to exit the process if we don't know anything better about
     * the environment. */
    env.exit_cb(code);
   10f08:	e3083000 	movw	r3, #32768	; 0x8000
   10f0c:	e3403002 	movt	r3, #2
   10f10:	e5933048 	ldr	r3, [r3, #72]	; 0x48
   10f14:	e51b0008 	ldr	r0, [fp, #-8]
   10f18:	e12fff33 	blx	r3
}
   10f1c:	e320f000 	nop	{0}
   10f20:	e24bd004 	sub	sp, fp, #4
   10f24:	e8bd8800 	pop	{fp, pc}

00010f28 <__sel4runtime_write_tls_variable>:
    sel4runtime_uintptr_t dest_tls_base,
    unsigned char *local_tls_dest,
    unsigned char *src,
    sel4runtime_size_t bytes
)
{
   10f28:	e92d4800 	push	{fp, lr}
   10f2c:	e28db004 	add	fp, sp, #4
   10f30:	e24dd028 	sub	sp, sp, #40	; 0x28
   10f34:	e50b0020 	str	r0, [fp, #-32]	; 0xffffffe0
   10f38:	e50b1024 	str	r1, [fp, #-36]	; 0xffffffdc
   10f3c:	e50b2028 	str	r2, [fp, #-40]	; 0xffffffd8
   10f40:	e50b302c 	str	r3, [fp, #-44]	; 0xffffffd4
    sel4runtime_uintptr_t local_tls_base = sel4runtime_get_tls_base();
   10f44:	ebffff18 	bl	10bac <sel4runtime_get_tls_base>
   10f48:	e50b0008 	str	r0, [fp, #-8]
    unsigned char *local_tls = tls_from_tls_base(local_tls_base);
   10f4c:	e51b0008 	ldr	r0, [fp, #-8]
   10f50:	eb0001ab 	bl	11604 <tls_from_tls_base>
   10f54:	e50b000c 	str	r0, [fp, #-12]
    sel4runtime_size_t offset = local_tls_dest - local_tls;
   10f58:	e51b2024 	ldr	r2, [fp, #-36]	; 0xffffffdc
   10f5c:	e51b300c 	ldr	r3, [fp, #-12]
   10f60:	e0423003 	sub	r3, r2, r3
   10f64:	e50b3010 	str	r3, [fp, #-16]
    sel4runtime_size_t tls_size = env.tls.memory_size;
   10f68:	e3083000 	movw	r3, #32768	; 0x8000
   10f6c:	e3403002 	movt	r3, #2
   10f70:	e5933028 	ldr	r3, [r3, #40]	; 0x28
   10f74:	e50b3014 	str	r3, [fp, #-20]	; 0xffffffec

    // Write must not go past end of TLS.
    if (offset > tls_size || offset + bytes > tls_size) {
   10f78:	e51b2010 	ldr	r2, [fp, #-16]
   10f7c:	e51b3014 	ldr	r3, [fp, #-20]	; 0xffffffec
   10f80:	e1520003 	cmp	r2, r3
   10f84:	8a000005 	bhi	10fa0 <__sel4runtime_write_tls_variable+0x78>
   10f88:	e51b2010 	ldr	r2, [fp, #-16]
   10f8c:	e51b302c 	ldr	r3, [fp, #-44]	; 0xffffffd4
   10f90:	e0823003 	add	r3, r2, r3
   10f94:	e51b2014 	ldr	r2, [fp, #-20]	; 0xffffffec
   10f98:	e1520003 	cmp	r2, r3
   10f9c:	2a000001 	bcs	10fa8 <__sel4runtime_write_tls_variable+0x80>
        return -1;
   10fa0:	e3e03000 	mvn	r3, #0
   10fa4:	ea00000b 	b	10fd8 <__sel4runtime_write_tls_variable+0xb0>
    }

    unsigned char *dest_tls = tls_from_tls_base(dest_tls_base);
   10fa8:	e51b0020 	ldr	r0, [fp, #-32]	; 0xffffffe0
   10fac:	eb000194 	bl	11604 <tls_from_tls_base>
   10fb0:	e50b0018 	str	r0, [fp, #-24]	; 0xffffffe8
    unsigned char *dest_addr = dest_tls + offset;
   10fb4:	e51b2018 	ldr	r2, [fp, #-24]	; 0xffffffe8
   10fb8:	e51b3010 	ldr	r3, [fp, #-16]
   10fbc:	e0823003 	add	r3, r2, r3
   10fc0:	e50b301c 	str	r3, [fp, #-28]	; 0xffffffe4

    __sel4runtime_memcpy(dest_addr, src, bytes);
   10fc4:	e51b202c 	ldr	r2, [fp, #-44]	; 0xffffffd4
   10fc8:	e51b1028 	ldr	r1, [fp, #-40]	; 0xffffffd8
   10fcc:	e51b001c 	ldr	r0, [fp, #-28]	; 0xffffffe4
   10fd0:	eb000367 	bl	11d74 <__sel4runtime_memcpy>

    return 0;
   10fd4:	e3a03000 	mov	r3, #0
}
   10fd8:	e1a00003 	mov	r0, r3
   10fdc:	e24bd004 	sub	sp, fp, #4
   10fe0:	e8bd8800 	pop	{fp, pc}

00010fe4 <__sel4runtime_load_env>:
    int argc,
    char const *const *argv,
    char const *const *envp,
    auxv_t const auxv[]
)
{
   10fe4:	e92d4800 	push	{fp, lr}
   10fe8:	e28db004 	add	fp, sp, #4
   10fec:	e24dd010 	sub	sp, sp, #16
   10ff0:	e50b0008 	str	r0, [fp, #-8]
   10ff4:	e50b100c 	str	r1, [fp, #-12]
   10ff8:	e50b2010 	str	r2, [fp, #-16]
   10ffc:	e50b3014 	str	r3, [fp, #-20]	; 0xffffffec
    empty_tls();
   11000:	eb0001f4 	bl	117d8 <empty_tls>
    parse_auxv(auxv);
   11004:	e51b0014 	ldr	r0, [fp, #-20]	; 0xffffffec
   11008:	eb00003c 	bl	11100 <parse_auxv>
    parse_phdrs();
   1100c:	eb0000b4 	bl	112e4 <parse_phdrs>
    if (argc > 0) {
   11010:	e51b3008 	ldr	r3, [fp, #-8]
   11014:	e3530000 	cmp	r3, #0
   11018:	da000003 	ble	1102c <__sel4runtime_load_env+0x48>
        name_process(argv[0]);
   1101c:	e51b300c 	ldr	r3, [fp, #-12]
   11020:	e5933000 	ldr	r3, [r3]
   11024:	e1a00003 	mov	r0, r3
   11028:	eb000014 	bl	11080 <name_process>
    }
    try_init_static_tls();
   1102c:	eb000117 	bl	11490 <try_init_static_tls>

    env.argc = argc;
   11030:	e3083000 	movw	r3, #32768	; 0x8000
   11034:	e3403002 	movt	r3, #2
   11038:	e51b2008 	ldr	r2, [fp, #-8]
   1103c:	e583203c 	str	r2, [r3, #60]	; 0x3c
    env.argv = argv;
   11040:	e3083000 	movw	r3, #32768	; 0x8000
   11044:	e3403002 	movt	r3, #2
   11048:	e51b200c 	ldr	r2, [fp, #-12]
   1104c:	e5832038 	str	r2, [r3, #56]	; 0x38
    env.auxv = auxv;
   11050:	e3083000 	movw	r3, #32768	; 0x8000
   11054:	e3403002 	movt	r3, #2
   11058:	e51b2014 	ldr	r2, [fp, #-20]	; 0xffffffec
   1105c:	e5832040 	str	r2, [r3, #64]	; 0x40
    env.envp = envp;
   11060:	e3083000 	movw	r3, #32768	; 0x8000
   11064:	e3403002 	movt	r3, #2
   11068:	e51b2010 	ldr	r2, [fp, #-16]
   1106c:	e5832044 	str	r2, [r3, #68]	; 0x44

    __sel4runtime_run_constructors();
   11070:	eb00020c 	bl	118a8 <__sel4runtime_run_constructors>
}
   11074:	e320f000 	nop	{0}
   11078:	e24bd004 	sub	sp, fp, #4
   1107c:	e8bd8800 	pop	{fp, pc}

00011080 <name_process>:

static void name_process(char const *name)
{
   11080:	e52db004 	push	{fp}		; (str fp, [sp, #-4]!)
   11084:	e28db000 	add	fp, sp, #0
   11088:	e24dd00c 	sub	sp, sp, #12
   1108c:	e50b0008 	str	r0, [fp, #-8]
    env.process_name = name;
   11090:	e3083000 	movw	r3, #32768	; 0x8000
   11094:	e3403002 	movt	r3, #2
   11098:	e51b2008 	ldr	r2, [fp, #-8]
   1109c:	e5832000 	str	r2, [r3]

    while (name && *name != '\0') {
   110a0:	ea00000b 	b	110d4 <name_process+0x54>
        if (*name == '/') {
   110a4:	e51b3008 	ldr	r3, [fp, #-8]
   110a8:	e5d33000 	ldrb	r3, [r3]
   110ac:	e353002f 	cmp	r3, #47	; 0x2f
   110b0:	1a000004 	bne	110c8 <name_process+0x48>
            env.process_name = name + 1;
   110b4:	e51b3008 	ldr	r3, [fp, #-8]
   110b8:	e2832001 	add	r2, r3, #1
   110bc:	e3083000 	movw	r3, #32768	; 0x8000
   110c0:	e3403002 	movt	r3, #2
   110c4:	e5832000 	str	r2, [r3]
        }

        name++;
   110c8:	e51b3008 	ldr	r3, [fp, #-8]
   110cc:	e2833001 	add	r3, r3, #1
   110d0:	e50b3008 	str	r3, [fp, #-8]
    while (name && *name != '\0') {
   110d4:	e51b3008 	ldr	r3, [fp, #-8]
   110d8:	e3530000 	cmp	r3, #0
   110dc:	0a000003 	beq	110f0 <name_process+0x70>
   110e0:	e51b3008 	ldr	r3, [fp, #-8]
   110e4:	e5d33000 	ldrb	r3, [r3]
   110e8:	e3530000 	cmp	r3, #0
   110ec:	1affffec 	bne	110a4 <name_process+0x24>
    }
}
   110f0:	e320f000 	nop	{0}
   110f4:	e28bd000 	add	sp, fp, #0
   110f8:	e49db004 	pop	{fp}		; (ldr fp, [sp], #4)
   110fc:	e12fff1e 	bx	lr

00011100 <parse_auxv>:

static void parse_auxv(auxv_t const auxv[])
{
   11100:	e52db004 	push	{fp}		; (str fp, [sp, #-4]!)
   11104:	e28db000 	add	fp, sp, #0
   11108:	e24dd014 	sub	sp, sp, #20
   1110c:	e50b0010 	str	r0, [fp, #-16]
    for (int i = 0; auxv[i].a_type != AT_NULL; i++) {
   11110:	e3a03000 	mov	r3, #0
   11114:	e50b3008 	str	r3, [fp, #-8]
   11118:	ea000065 	b	112b4 <parse_auxv+0x1b4>
        switch (auxv[i].a_type) {
   1111c:	e51b3008 	ldr	r3, [fp, #-8]
   11120:	e1a03183 	lsl	r3, r3, #3
   11124:	e51b2010 	ldr	r2, [fp, #-16]
   11128:	e0823003 	add	r3, r2, r3
   1112c:	e5933000 	ldr	r3, [r3]
   11130:	e3530045 	cmp	r3, #69	; 0x45
   11134:	0a00004e 	beq	11274 <parse_auxv+0x174>
   11138:	e3530045 	cmp	r3, #69	; 0x45
   1113c:	ca000056 	bgt	1129c <parse_auxv+0x19c>
   11140:	e3530043 	cmp	r3, #67	; 0x43
   11144:	0a000041 	beq	11250 <parse_auxv+0x150>
   11148:	e3530043 	cmp	r3, #67	; 0x43
   1114c:	ca000052 	bgt	1129c <parse_auxv+0x19c>
   11150:	e3530040 	cmp	r3, #64	; 0x40
   11154:	0a000026 	beq	111f4 <parse_auxv+0xf4>
   11158:	e3530040 	cmp	r3, #64	; 0x40
   1115c:	ca00004e 	bgt	1129c <parse_auxv+0x19c>
   11160:	e3530005 	cmp	r3, #5
   11164:	0a00000f 	beq	111a8 <parse_auxv+0xa8>
   11168:	e3530005 	cmp	r3, #5
   1116c:	ca00004a 	bgt	1129c <parse_auxv+0x19c>
   11170:	e3530003 	cmp	r3, #3
   11174:	0a000015 	beq	111d0 <parse_auxv+0xd0>
   11178:	e3530004 	cmp	r3, #4
   1117c:	1a000046 	bne	1129c <parse_auxv+0x19c>
        case AT_PHENT: {
            env.program_header.size = auxv[i].a_un.a_val;
   11180:	e51b3008 	ldr	r3, [fp, #-8]
   11184:	e1a03183 	lsl	r3, r3, #3
   11188:	e51b2010 	ldr	r2, [fp, #-16]
   1118c:	e0823003 	add	r3, r2, r3
   11190:	e5933004 	ldr	r3, [r3, #4]
   11194:	e1a02003 	mov	r2, r3
   11198:	e3083000 	movw	r3, #32768	; 0x8000
   1119c:	e3403002 	movt	r3, #2
   111a0:	e5832018 	str	r2, [r3, #24]
            break;
   111a4:	ea00003f 	b	112a8 <parse_auxv+0x1a8>
        }
        case AT_PHNUM: {
            env.program_header.count = auxv[i].a_un.a_val;
   111a8:	e51b3008 	ldr	r3, [fp, #-8]
   111ac:	e1a03183 	lsl	r3, r3, #3
   111b0:	e51b2010 	ldr	r2, [fp, #-16]
   111b4:	e0823003 	add	r3, r2, r3
   111b8:	e5933004 	ldr	r3, [r3, #4]
   111bc:	e1a02003 	mov	r2, r3
   111c0:	e3083000 	movw	r3, #32768	; 0x8000
   111c4:	e3403002 	movt	r3, #2
   111c8:	e5832014 	str	r2, [r3, #20]
            break;
   111cc:	ea000035 	b	112a8 <parse_auxv+0x1a8>
        }
        case AT_PHDR: {
            env.program_header.headers = auxv[i].a_un.a_ptr;
   111d0:	e51b3008 	ldr	r3, [fp, #-8]
   111d4:	e1a03183 	lsl	r3, r3, #3
   111d8:	e51b2010 	ldr	r2, [fp, #-16]
   111dc:	e0823003 	add	r3, r2, r3
   111e0:	e5932004 	ldr	r2, [r3, #4]
   111e4:	e3083000 	movw	r3, #32768	; 0x8000
   111e8:	e3403002 	movt	r3, #2
   111ec:	e583201c 	str	r2, [r3, #28]
            break;
   111f0:	ea00002c 	b	112a8 <parse_auxv+0x1a8>
        }
        case AT_SEL4_BOOT_INFO: {
            seL4_BootInfo *bootinfo = auxv[i].a_un.a_ptr;
   111f4:	e51b3008 	ldr	r3, [fp, #-8]
   111f8:	e1a03183 	lsl	r3, r3, #3
   111fc:	e51b2010 	ldr	r2, [fp, #-16]
   11200:	e0823003 	add	r3, r2, r3
   11204:	e5933004 	ldr	r3, [r3, #4]
   11208:	e50b300c 	str	r3, [fp, #-12]
            if (bootinfo == SEL4RUNTIME_NULL) {
   1120c:	e51b300c 	ldr	r3, [fp, #-12]
   11210:	e3530000 	cmp	r3, #0
   11214:	0a000022 	beq	112a4 <parse_auxv+0x1a4>
                break;
            }
            env.bootinfo = bootinfo;
   11218:	e3083000 	movw	r3, #32768	; 0x8000
   1121c:	e3403002 	movt	r3, #2
   11220:	e51b200c 	ldr	r2, [fp, #-12]
   11224:	e5832004 	str	r2, [r3, #4]
            env.initial_thread_ipc_buffer = bootinfo->ipcBuffer;
   11228:	e51b300c 	ldr	r3, [fp, #-12]
   1122c:	e5932010 	ldr	r2, [r3, #16]
   11230:	e3083000 	movw	r3, #32768	; 0x8000
   11234:	e3403002 	movt	r3, #2
   11238:	e5832010 	str	r2, [r3, #16]
            env.initial_thread_tcb = seL4_CapInitThreadTCB;
   1123c:	e3083000 	movw	r3, #32768	; 0x8000
   11240:	e3403002 	movt	r3, #2
   11244:	e3a02001 	mov	r2, #1
   11248:	e583200c 	str	r2, [r3, #12]
            break;
   1124c:	ea000015 	b	112a8 <parse_auxv+0x1a8>
        }
        case AT_SEL4_IPC_BUFFER_PTR: {
            env.initial_thread_ipc_buffer = auxv[i].a_un.a_ptr;
   11250:	e51b3008 	ldr	r3, [fp, #-8]
   11254:	e1a03183 	lsl	r3, r3, #3
   11258:	e51b2010 	ldr	r2, [fp, #-16]
   1125c:	e0823003 	add	r3, r2, r3
   11260:	e5932004 	ldr	r2, [r3, #4]
   11264:	e3083000 	movw	r3, #32768	; 0x8000
   11268:	e3403002 	movt	r3, #2
   1126c:	e5832010 	str	r2, [r3, #16]
            break;
   11270:	ea00000c 	b	112a8 <parse_auxv+0x1a8>
        }
        case AT_SEL4_TCB: {
            env.initial_thread_tcb = auxv[i].a_un.a_val;
   11274:	e51b3008 	ldr	r3, [fp, #-8]
   11278:	e1a03183 	lsl	r3, r3, #3
   1127c:	e51b2010 	ldr	r2, [fp, #-16]
   11280:	e0823003 	add	r3, r2, r3
   11284:	e5933004 	ldr	r3, [r3, #4]
   11288:	e1a02003 	mov	r2, r3
   1128c:	e3083000 	movw	r3, #32768	; 0x8000
   11290:	e3403002 	movt	r3, #2
   11294:	e583200c 	str	r2, [r3, #12]
            break;
   11298:	ea000002 	b	112a8 <parse_auxv+0x1a8>
        }
        default:
            break;
   1129c:	e320f000 	nop	{0}
   112a0:	ea000000 	b	112a8 <parse_auxv+0x1a8>
                break;
   112a4:	e320f000 	nop	{0}
    for (int i = 0; auxv[i].a_type != AT_NULL; i++) {
   112a8:	e51b3008 	ldr	r3, [fp, #-8]
   112ac:	e2833001 	add	r3, r3, #1
   112b0:	e50b3008 	str	r3, [fp, #-8]
   112b4:	e51b3008 	ldr	r3, [fp, #-8]
   112b8:	e1a03183 	lsl	r3, r3, #3
   112bc:	e51b2010 	ldr	r2, [fp, #-16]
   112c0:	e0823003 	add	r3, r2, r3
   112c4:	e5933000 	ldr	r3, [r3]
   112c8:	e3530000 	cmp	r3, #0
   112cc:	1affff92 	bne	1111c <parse_auxv+0x1c>
        }
    }
}
   112d0:	e320f000 	nop	{0}
   112d4:	e320f000 	nop	{0}
   112d8:	e28bd000 	add	sp, fp, #0
   112dc:	e49db004 	pop	{fp}		; (ldr fp, [sp], #4)
   112e0:	e12fff1e 	bx	lr

000112e4 <parse_phdrs>:

static void parse_phdrs(void)
{
   112e4:	e92d4800 	push	{fp, lr}
   112e8:	e28db004 	add	fp, sp, #4
   112ec:	e24dd008 	sub	sp, sp, #8
    for (sel4runtime_size_t h = 0; h < env.program_header.count; h++) {
   112f0:	e3a03000 	mov	r3, #0
   112f4:	e50b3008 	str	r3, [fp, #-8]
   112f8:	ea000011 	b	11344 <parse_phdrs+0x60>
        Elf_Phdr *header = &env.program_header.headers[h];
   112fc:	e3083000 	movw	r3, #32768	; 0x8000
   11300:	e3403002 	movt	r3, #2
   11304:	e593201c 	ldr	r2, [r3, #28]
   11308:	e51b3008 	ldr	r3, [fp, #-8]
   1130c:	e1a03283 	lsl	r3, r3, #5
   11310:	e0823003 	add	r3, r2, r3
   11314:	e50b300c 	str	r3, [fp, #-12]
        switch (header->p_type) {
   11318:	e51b300c 	ldr	r3, [fp, #-12]
   1131c:	e5933000 	ldr	r3, [r3]
   11320:	e3530007 	cmp	r3, #7
   11324:	1a000002 	bne	11334 <parse_phdrs+0x50>
        case PT_TLS:
            load_tls_data(header);
   11328:	e51b000c 	ldr	r0, [fp, #-12]
   1132c:	eb00000e 	bl	1136c <load_tls_data>
            break;
   11330:	ea000000 	b	11338 <parse_phdrs+0x54>
        default:
            break;
   11334:	e320f000 	nop	{0}
    for (sel4runtime_size_t h = 0; h < env.program_header.count; h++) {
   11338:	e51b3008 	ldr	r3, [fp, #-8]
   1133c:	e2833001 	add	r3, r3, #1
   11340:	e50b3008 	str	r3, [fp, #-8]
   11344:	e3083000 	movw	r3, #32768	; 0x8000
   11348:	e3403002 	movt	r3, #2
   1134c:	e5933014 	ldr	r3, [r3, #20]
   11350:	e51b2008 	ldr	r2, [fp, #-8]
   11354:	e1520003 	cmp	r2, r3
   11358:	3affffe7 	bcc	112fc <parse_phdrs+0x18>
        }
    }
}
   1135c:	e320f000 	nop	{0}
   11360:	e320f000 	nop	{0}
   11364:	e24bd004 	sub	sp, fp, #4
   11368:	e8bd8800 	pop	{fp, pc}

0001136c <load_tls_data>:

static void load_tls_data(Elf_Phdr *header)
{
   1136c:	e92d4800 	push	{fp, lr}
   11370:	e28db004 	add	fp, sp, #4
   11374:	e24dd010 	sub	sp, sp, #16
   11378:	e50b0010 	str	r0, [fp, #-16]
    env.tls.image = (void *) header->p_vaddr;
   1137c:	e51b3010 	ldr	r3, [fp, #-16]
   11380:	e5933008 	ldr	r3, [r3, #8]
   11384:	e1a02003 	mov	r2, r3
   11388:	e3083000 	movw	r3, #32768	; 0x8000
   1138c:	e3403002 	movt	r3, #2
   11390:	e5832020 	str	r2, [r3, #32]
    if (header->p_align > MIN_ALIGN_BYTES) {
   11394:	e51b3010 	ldr	r3, [fp, #-16]
   11398:	e593301c 	ldr	r3, [r3, #28]
   1139c:	e3530010 	cmp	r3, #16
   113a0:	9a000005 	bls	113bc <load_tls_data+0x50>
        env.tls.align = header->p_align;
   113a4:	e51b3010 	ldr	r3, [fp, #-16]
   113a8:	e593201c 	ldr	r2, [r3, #28]
   113ac:	e3083000 	movw	r3, #32768	; 0x8000
   113b0:	e3403002 	movt	r3, #2
   113b4:	e5832030 	str	r2, [r3, #48]	; 0x30
   113b8:	ea000003 	b	113cc <load_tls_data+0x60>
    } else {
        env.tls.align = MIN_ALIGN_BYTES;
   113bc:	e3083000 	movw	r3, #32768	; 0x8000
   113c0:	e3403002 	movt	r3, #2
   113c4:	e3a02010 	mov	r2, #16
   113c8:	e5832030 	str	r2, [r3, #48]	; 0x30
    }
    env.tls.image_size = header->p_filesz;
   113cc:	e51b3010 	ldr	r3, [fp, #-16]
   113d0:	e5932010 	ldr	r2, [r3, #16]
   113d4:	e3083000 	movw	r3, #32768	; 0x8000
   113d8:	e3403002 	movt	r3, #2
   113dc:	e5832024 	str	r2, [r3, #36]	; 0x24
    env.tls.memory_size = ROUND_UP(header->p_memsz, header->p_align);
   113e0:	e51b3010 	ldr	r3, [fp, #-16]
   113e4:	e5933014 	ldr	r3, [r3, #20]
   113e8:	e50b3008 	str	r3, [fp, #-8]
   113ec:	e51b3010 	ldr	r3, [fp, #-16]
   113f0:	e593301c 	ldr	r3, [r3, #28]
   113f4:	e50b300c 	str	r3, [fp, #-12]
   113f8:	e51b3008 	ldr	r3, [fp, #-8]
   113fc:	e51b100c 	ldr	r1, [fp, #-12]
   11400:	e1a00003 	mov	r0, r3
   11404:	eb001175 	bl	159e0 <__aeabi_uidivmod>
   11408:	e1a03001 	mov	r3, r1
   1140c:	e3530000 	cmp	r3, #0
   11410:	0a000008 	beq	11438 <load_tls_data+0xcc>
   11414:	e51b3008 	ldr	r3, [fp, #-8]
   11418:	e51b100c 	ldr	r1, [fp, #-12]
   1141c:	e1a00003 	mov	r0, r3
   11420:	eb00116e 	bl	159e0 <__aeabi_uidivmod>
   11424:	e1a03001 	mov	r3, r1
   11428:	e1a02003 	mov	r2, r3
   1142c:	e51b300c 	ldr	r3, [fp, #-12]
   11430:	e0433002 	sub	r3, r3, r2
   11434:	ea000000 	b	1143c <load_tls_data+0xd0>
   11438:	e3a03000 	mov	r3, #0
   1143c:	e51b2008 	ldr	r2, [fp, #-8]
   11440:	e0832002 	add	r2, r3, r2
   11444:	e3083000 	movw	r3, #32768	; 0x8000
   11448:	e3403002 	movt	r3, #2
   1144c:	e5832028 	str	r2, [r3, #40]	; 0x28
    env.tls.region_size = tls_region_size(
   11450:	e3083000 	movw	r3, #32768	; 0x8000
   11454:	e3403002 	movt	r3, #2
   11458:	e5932028 	ldr	r2, [r3, #40]	; 0x28
   1145c:	e3083000 	movw	r3, #32768	; 0x8000
   11460:	e3403002 	movt	r3, #2
   11464:	e5933030 	ldr	r3, [r3, #48]	; 0x30
   11468:	e1a01003 	mov	r1, r3
   1146c:	e1a00002 	mov	r0, r2
   11470:	eb000087 	bl	11694 <tls_region_size>
   11474:	e1a02000 	mov	r2, r0
   11478:	e3083000 	movw	r3, #32768	; 0x8000
   1147c:	e3403002 	movt	r3, #2
   11480:	e583202c 	str	r2, [r3, #44]	; 0x2c
                              env.tls.memory_size,
                              env.tls.align
                          );
}
   11484:	e320f000 	nop	{0}
   11488:	e24bd004 	sub	sp, fp, #4
   1148c:	e8bd8800 	pop	{fp, pc}

00011490 <try_init_static_tls>:

static void try_init_static_tls(void)
{
   11490:	e92d4800 	push	{fp, lr}
   11494:	e28db004 	add	fp, sp, #4
    if (env.tls.region_size <= sizeof(static_tls)) {
   11498:	e3083000 	movw	r3, #32768	; 0x8000
   1149c:	e3403002 	movt	r3, #2
   114a0:	e593302c 	ldr	r3, [r3, #44]	; 0x2c
   114a4:	e3530901 	cmp	r3, #16384	; 0x4000
   114a8:	8a000002 	bhi	114b8 <try_init_static_tls+0x28>
        sel4runtime_move_initial_tls(static_tls);
   114ac:	e3040000 	movw	r0, #16384	; 0x4000
   114b0:	e3400002 	movt	r0, #2
   114b4:	ebfffe1f 	bl	10d38 <sel4runtime_move_initial_tls>
    }
}
   114b8:	e320f000 	nop	{0}
   114bc:	e8bd8800 	pop	{fp, pc}

000114c0 <copy_tls_data>:

static void copy_tls_data(unsigned char *tls_region)
{
   114c0:	e92d4800 	push	{fp, lr}
   114c4:	e28db004 	add	fp, sp, #4
   114c8:	e24dd018 	sub	sp, sp, #24
   114cc:	e50b0018 	str	r0, [fp, #-24]	; 0xffffffe8
    unsigned char *tls = tls_from_tls_region(tls_region);
   114d0:	e51b0018 	ldr	r0, [fp, #-24]	; 0xffffffe8
   114d4:	eb000058 	bl	1163c <tls_from_tls_region>
   114d8:	e50b0008 	str	r0, [fp, #-8]
    __sel4runtime_memcpy(tls, env.tls.image, env.tls.image_size);
   114dc:	e3083000 	movw	r3, #32768	; 0x8000
   114e0:	e3403002 	movt	r3, #2
   114e4:	e5931020 	ldr	r1, [r3, #32]
   114e8:	e3083000 	movw	r3, #32768	; 0x8000
   114ec:	e3403002 	movt	r3, #2
   114f0:	e5933024 	ldr	r3, [r3, #36]	; 0x24
   114f4:	e1a02003 	mov	r2, r3
   114f8:	e51b0008 	ldr	r0, [fp, #-8]
   114fc:	eb00021c 	bl	11d74 <__sel4runtime_memcpy>
    unsigned char *tbss = &tls[env.tls.image_size];
   11500:	e3083000 	movw	r3, #32768	; 0x8000
   11504:	e3403002 	movt	r3, #2
   11508:	e5933024 	ldr	r3, [r3, #36]	; 0x24
   1150c:	e51b2008 	ldr	r2, [fp, #-8]
   11510:	e0823003 	add	r3, r2, r3
   11514:	e50b300c 	str	r3, [fp, #-12]
    __sel4runtime_memset(tbss, 0, env.tls.memory_size - env.tls.image_size);
   11518:	e3083000 	movw	r3, #32768	; 0x8000
   1151c:	e3403002 	movt	r3, #2
   11520:	e5932028 	ldr	r2, [r3, #40]	; 0x28
   11524:	e3083000 	movw	r3, #32768	; 0x8000
   11528:	e3403002 	movt	r3, #2
   1152c:	e5933024 	ldr	r3, [r3, #36]	; 0x24
   11530:	e0423003 	sub	r3, r2, r3
   11534:	e1a02003 	mov	r2, r3
   11538:	e3a01000 	mov	r1, #0
   1153c:	e51b000c 	ldr	r0, [fp, #-12]
   11540:	eb000128 	bl	119e8 <__sel4runtime_memset>

    thread_lookup_t *lookup = thread_lookup_from_tls_region(tls_region);
   11544:	e51b0018 	ldr	r0, [fp, #-24]	; 0xffffffe8
   11548:	eb000048 	bl	11670 <thread_lookup_from_tls_region>
   1154c:	e50b0010 	str	r0, [fp, #-16]
    if (lookup != SEL4RUNTIME_NULL) {
   11550:	e51b3010 	ldr	r3, [fp, #-16]
   11554:	e3530000 	cmp	r3, #0
   11558:	0a000004 	beq	11570 <copy_tls_data+0xb0>
        lookup->tls_base = tls_base_from_tls_region(tls_region);
   1155c:	e51b0018 	ldr	r0, [fp, #-24]	; 0xffffffe8
   11560:	eb000005 	bl	1157c <tls_base_from_tls_region>
   11564:	e1a02000 	mov	r2, r0
   11568:	e51b3010 	ldr	r3, [fp, #-16]
   1156c:	e5832000 	str	r2, [r3]
    }
}
   11570:	e320f000 	nop	{0}
   11574:	e24bd004 	sub	sp, fp, #4
   11578:	e8bd8800 	pop	{fp, pc}

0001157c <tls_base_from_tls_region>:

static sel4runtime_uintptr_t tls_base_from_tls_region(unsigned char *tls_region)
{
   1157c:	e92d4800 	push	{fp, lr}
   11580:	e28db004 	add	fp, sp, #4
   11584:	e24dd018 	sub	sp, sp, #24
   11588:	e50b0018 	str	r0, [fp, #-24]	; 0xffffffe8
    sel4runtime_uintptr_t tls_base = (sel4runtime_uintptr_t)tls_region;
   1158c:	e51b3018 	ldr	r3, [fp, #-24]	; 0xffffffe8
   11590:	e50b3008 	str	r3, [fp, #-8]
#if !defined(TLS_ABOVE_TP)
    tls_base += env.tls.memory_size;
#endif
    return ROUND_UP(tls_base, env.tls.align);
   11594:	e51b3008 	ldr	r3, [fp, #-8]
   11598:	e50b300c 	str	r3, [fp, #-12]
   1159c:	e3083000 	movw	r3, #32768	; 0x8000
   115a0:	e3403002 	movt	r3, #2
   115a4:	e5933030 	ldr	r3, [r3, #48]	; 0x30
   115a8:	e50b3010 	str	r3, [fp, #-16]
   115ac:	e51b300c 	ldr	r3, [fp, #-12]
   115b0:	e51b1010 	ldr	r1, [fp, #-16]
   115b4:	e1a00003 	mov	r0, r3
   115b8:	eb001108 	bl	159e0 <__aeabi_uidivmod>
   115bc:	e1a03001 	mov	r3, r1
   115c0:	e3530000 	cmp	r3, #0
   115c4:	0a000008 	beq	115ec <tls_base_from_tls_region+0x70>
   115c8:	e51b300c 	ldr	r3, [fp, #-12]
   115cc:	e51b1010 	ldr	r1, [fp, #-16]
   115d0:	e1a00003 	mov	r0, r3
   115d4:	eb001101 	bl	159e0 <__aeabi_uidivmod>
   115d8:	e1a03001 	mov	r3, r1
   115dc:	e1a02003 	mov	r2, r3
   115e0:	e51b3010 	ldr	r3, [fp, #-16]
   115e4:	e0433002 	sub	r3, r3, r2
   115e8:	ea000000 	b	115f0 <tls_base_from_tls_region+0x74>
   115ec:	e3a03000 	mov	r3, #0
   115f0:	e51b200c 	ldr	r2, [fp, #-12]
   115f4:	e0833002 	add	r3, r3, r2
}
   115f8:	e1a00003 	mov	r0, r3
   115fc:	e24bd004 	sub	sp, fp, #4
   11600:	e8bd8800 	pop	{fp, pc}

00011604 <tls_from_tls_base>:

static unsigned char *tls_from_tls_base(sel4runtime_uintptr_t tls_base)
{
   11604:	e52db004 	push	{fp}		; (str fp, [sp, #-4]!)
   11608:	e28db000 	add	fp, sp, #0
   1160c:	e24dd014 	sub	sp, sp, #20
   11610:	e50b0010 	str	r0, [fp, #-16]
    sel4runtime_uintptr_t tls_addr = tls_base;
   11614:	e51b3010 	ldr	r3, [fp, #-16]
   11618:	e50b3008 	str	r3, [fp, #-8]
#if !defined(TLS_ABOVE_TP)
    tls_addr -= env.tls.memory_size;
#endif
#if defined(GAP_ABOVE_TP)
    tls_addr +=  GAP_ABOVE_TP;
   1161c:	e51b3008 	ldr	r3, [fp, #-8]
   11620:	e2833008 	add	r3, r3, #8
   11624:	e50b3008 	str	r3, [fp, #-8]
#endif
    return (unsigned char *)tls_addr;
   11628:	e51b3008 	ldr	r3, [fp, #-8]
}
   1162c:	e1a00003 	mov	r0, r3
   11630:	e28bd000 	add	sp, fp, #0
   11634:	e49db004 	pop	{fp}		; (ldr fp, [sp], #4)
   11638:	e12fff1e 	bx	lr

0001163c <tls_from_tls_region>:

static unsigned char *tls_from_tls_region(unsigned char *tls_region)
{
   1163c:	e92d4800 	push	{fp, lr}
   11640:	e28db004 	add	fp, sp, #4
   11644:	e24dd008 	sub	sp, sp, #8
   11648:	e50b0008 	str	r0, [fp, #-8]
    return tls_from_tls_base(tls_base_from_tls_region(tls_region));
   1164c:	e51b0008 	ldr	r0, [fp, #-8]
   11650:	ebffffc9 	bl	1157c <tls_base_from_tls_region>
   11654:	e1a03000 	mov	r3, r0
   11658:	e1a00003 	mov	r0, r3
   1165c:	ebffffe8 	bl	11604 <tls_from_tls_base>
   11660:	e1a03000 	mov	r3, r0
}
   11664:	e1a00003 	mov	r0, r3
   11668:	e24bd004 	sub	sp, fp, #4
   1166c:	e8bd8800 	pop	{fp, pc}

00011670 <thread_lookup_from_tls_region>:

static thread_lookup_t *thread_lookup_from_tls_region(
    unsigned char *tls_region
)
{
   11670:	e52db004 	push	{fp}		; (str fp, [sp, #-4]!)
   11674:	e28db000 	add	fp, sp, #0
   11678:	e24dd00c 	sub	sp, sp, #12
   1167c:	e50b0008 	str	r0, [fp, #-8]
#if !defined(TLS_ABOVE_TP)
    return (thread_lookup_t *)tls_base_from_tls_region(tls_region);
#else
    return SEL4RUNTIME_NULL;
   11680:	e3a03000 	mov	r3, #0
#endif
}
   11684:	e1a00003 	mov	r0, r3
   11688:	e28bd000 	add	sp, fp, #0
   1168c:	e49db004 	pop	{fp}		; (ldr fp, [sp], #4)
   11690:	e12fff1e 	bx	lr

00011694 <tls_region_size>:

static const sel4runtime_size_t tls_region_size(sel4runtime_size_t mem_size, sel4runtime_size_t align)
{
   11694:	e92d4810 	push	{r4, fp, lr}
   11698:	e28db008 	add	fp, sp, #8
   1169c:	e24dd024 	sub	sp, sp, #36	; 0x24
   116a0:	e50b0028 	str	r0, [fp, #-40]	; 0xffffffd8
   116a4:	e50b102c 	str	r1, [fp, #-44]	; 0xffffffd4
    return align
           + ROUND_UP(sizeof(thread_lookup_t), align)
   116a8:	e3a03004 	mov	r3, #4
   116ac:	e50b3010 	str	r3, [fp, #-16]
   116b0:	e51b302c 	ldr	r3, [fp, #-44]	; 0xffffffd4
   116b4:	e50b3014 	str	r3, [fp, #-20]	; 0xffffffec
   116b8:	e51b3010 	ldr	r3, [fp, #-16]
   116bc:	e51b1014 	ldr	r1, [fp, #-20]	; 0xffffffec
   116c0:	e1a00003 	mov	r0, r3
   116c4:	eb0010c5 	bl	159e0 <__aeabi_uidivmod>
   116c8:	e1a03001 	mov	r3, r1
   116cc:	e3530000 	cmp	r3, #0
   116d0:	0a000008 	beq	116f8 <tls_region_size+0x64>
   116d4:	e51b3010 	ldr	r3, [fp, #-16]
   116d8:	e51b1014 	ldr	r1, [fp, #-20]	; 0xffffffec
   116dc:	e1a00003 	mov	r0, r3
   116e0:	eb0010be 	bl	159e0 <__aeabi_uidivmod>
   116e4:	e1a03001 	mov	r3, r1
   116e8:	e1a02003 	mov	r2, r3
   116ec:	e51b3014 	ldr	r3, [fp, #-20]	; 0xffffffec
   116f0:	e0433002 	sub	r3, r3, r2
   116f4:	ea000000 	b	116fc <tls_region_size+0x68>
   116f8:	e3a03000 	mov	r3, #0
   116fc:	e51b2010 	ldr	r2, [fp, #-16]
   11700:	e0832002 	add	r2, r3, r2
   11704:	e51b302c 	ldr	r3, [fp, #-44]	; 0xffffffd4
   11708:	e0824003 	add	r4, r2, r3
#if defined(GAP_ABOVE_TP)
           + ROUND_UP(GAP_ABOVE_TP, align)
   1170c:	e3a03008 	mov	r3, #8
   11710:	e50b3018 	str	r3, [fp, #-24]	; 0xffffffe8
   11714:	e51b302c 	ldr	r3, [fp, #-44]	; 0xffffffd4
   11718:	e50b301c 	str	r3, [fp, #-28]	; 0xffffffe4
   1171c:	e51b3018 	ldr	r3, [fp, #-24]	; 0xffffffe8
   11720:	e51b101c 	ldr	r1, [fp, #-28]	; 0xffffffe4
   11724:	e1a00003 	mov	r0, r3
   11728:	eb0010ac 	bl	159e0 <__aeabi_uidivmod>
   1172c:	e1a03001 	mov	r3, r1
   11730:	e3530000 	cmp	r3, #0
   11734:	0a000008 	beq	1175c <tls_region_size+0xc8>
   11738:	e51b3018 	ldr	r3, [fp, #-24]	; 0xffffffe8
   1173c:	e51b101c 	ldr	r1, [fp, #-28]	; 0xffffffe4
   11740:	e1a00003 	mov	r0, r3
   11744:	eb0010a5 	bl	159e0 <__aeabi_uidivmod>
   11748:	e1a03001 	mov	r3, r1
   1174c:	e1a02003 	mov	r2, r3
   11750:	e51b301c 	ldr	r3, [fp, #-28]	; 0xffffffe4
   11754:	e0433002 	sub	r3, r3, r2
   11758:	ea000000 	b	11760 <tls_region_size+0xcc>
   1175c:	e3a03000 	mov	r3, #0
   11760:	e51b2018 	ldr	r2, [fp, #-24]	; 0xffffffe8
   11764:	e0833002 	add	r3, r3, r2
   11768:	e0834004 	add	r4, r3, r4
#endif
           + ROUND_UP(mem_size, align);
   1176c:	e51b3028 	ldr	r3, [fp, #-40]	; 0xffffffd8
   11770:	e50b3020 	str	r3, [fp, #-32]	; 0xffffffe0
   11774:	e51b302c 	ldr	r3, [fp, #-44]	; 0xffffffd4
   11778:	e50b3024 	str	r3, [fp, #-36]	; 0xffffffdc
   1177c:	e51b3020 	ldr	r3, [fp, #-32]	; 0xffffffe0
   11780:	e51b1024 	ldr	r1, [fp, #-36]	; 0xffffffdc
   11784:	e1a00003 	mov	r0, r3
   11788:	eb001094 	bl	159e0 <__aeabi_uidivmod>
   1178c:	e1a03001 	mov	r3, r1
   11790:	e3530000 	cmp	r3, #0
   11794:	0a000008 	beq	117bc <tls_region_size+0x128>
   11798:	e51b3020 	ldr	r3, [fp, #-32]	; 0xffffffe0
   1179c:	e51b1024 	ldr	r1, [fp, #-36]	; 0xffffffdc
   117a0:	e1a00003 	mov	r0, r3
   117a4:	eb00108d 	bl	159e0 <__aeabi_uidivmod>
   117a8:	e1a03001 	mov	r3, r1
   117ac:	e1a02003 	mov	r2, r3
   117b0:	e51b3024 	ldr	r3, [fp, #-36]	; 0xffffffdc
   117b4:	e0433002 	sub	r3, r3, r2
   117b8:	ea000000 	b	117c0 <tls_region_size+0x12c>
   117bc:	e3a03000 	mov	r3, #0
   117c0:	e51b2020 	ldr	r2, [fp, #-32]	; 0xffffffe0
   117c4:	e0833002 	add	r3, r3, r2
   117c8:	e0833004 	add	r3, r3, r4
}
   117cc:	e1a00003 	mov	r0, r3
   117d0:	e24bd008 	sub	sp, fp, #8
   117d4:	e8bd8810 	pop	{r4, fp, pc}

000117d8 <empty_tls>:

static void empty_tls(void)
{
   117d8:	e92d4800 	push	{fp, lr}
   117dc:	e28db004 	add	fp, sp, #4
    env.tls.image = SEL4RUNTIME_NULL;
   117e0:	e3083000 	movw	r3, #32768	; 0x8000
   117e4:	e3403002 	movt	r3, #2
   117e8:	e3a02000 	mov	r2, #0
   117ec:	e5832020 	str	r2, [r3, #32]
    env.tls.align = MIN_ALIGN_BYTES;
   117f0:	e3083000 	movw	r3, #32768	; 0x8000
   117f4:	e3403002 	movt	r3, #2
   117f8:	e3a02010 	mov	r2, #16
   117fc:	e5832030 	str	r2, [r3, #48]	; 0x30
    env.tls.image_size = 0;
   11800:	e3083000 	movw	r3, #32768	; 0x8000
   11804:	e3403002 	movt	r3, #2
   11808:	e3a02000 	mov	r2, #0
   1180c:	e5832024 	str	r2, [r3, #36]	; 0x24
    env.tls.memory_size = 0;
   11810:	e3083000 	movw	r3, #32768	; 0x8000
   11814:	e3403002 	movt	r3, #2
   11818:	e3a02000 	mov	r2, #0
   1181c:	e5832028 	str	r2, [r3, #40]	; 0x28
    env.tls.region_size = tls_region_size(
   11820:	e3083000 	movw	r3, #32768	; 0x8000
   11824:	e3403002 	movt	r3, #2
   11828:	e5932028 	ldr	r2, [r3, #40]	; 0x28
   1182c:	e3083000 	movw	r3, #32768	; 0x8000
   11830:	e3403002 	movt	r3, #2
   11834:	e5933030 	ldr	r3, [r3, #48]	; 0x30
   11838:	e1a01003 	mov	r1, r3
   1183c:	e1a00002 	mov	r0, r2
   11840:	ebffff93 	bl	11694 <tls_region_size>
   11844:	e1a02000 	mov	r2, r0
   11848:	e3083000 	movw	r3, #32768	; 0x8000
   1184c:	e3403002 	movt	r3, #2
   11850:	e583202c 	str	r2, [r3, #44]	; 0x2c
                              env.tls.memory_size,
                              env.tls.align
                          );
}
   11854:	e320f000 	nop	{0}
   11858:	e8bd8800 	pop	{fp, pc}

0001185c <is_initial_thread>:
 *
 * This will optimistically assume that the current thread is the
 * initial thread of no thread ever had TLS configured.
 */
static int is_initial_thread(void)
{
   1185c:	e92d4800 	push	{fp, lr}
   11860:	e28db004 	add	fp, sp, #4
    return env.initial_thread_tls_base == (sel4runtime_uintptr_t)SEL4RUNTIME_NULL
   11864:	e3083000 	movw	r3, #32768	; 0x8000
   11868:	e3403002 	movt	r3, #2
   1186c:	e5933008 	ldr	r3, [r3, #8]
           || sel4runtime_get_tls_base() == env.initial_thread_tls_base;
   11870:	e3530000 	cmp	r3, #0
   11874:	0a000006 	beq	11894 <is_initial_thread+0x38>
   11878:	ebfffccb 	bl	10bac <sel4runtime_get_tls_base>
   1187c:	e1a02000 	mov	r2, r0
   11880:	e3083000 	movw	r3, #32768	; 0x8000
   11884:	e3403002 	movt	r3, #2
   11888:	e5933008 	ldr	r3, [r3, #8]
   1188c:	e1520003 	cmp	r2, r3
   11890:	1a000001 	bne	1189c <is_initial_thread+0x40>
   11894:	e3a03001 	mov	r3, #1
   11898:	ea000000 	b	118a0 <is_initial_thread+0x44>
   1189c:	e3a03000 	mov	r3, #0
}
   118a0:	e1a00003 	mov	r0, r3
   118a4:	e8bd8800 	pop	{fp, pc}

000118a8 <__sel4runtime_run_constructors>:
void _fini(void);
extern routine __fini_array_start[];
extern routine __fini_array_end[];

void __sel4runtime_run_constructors(void)
{
   118a8:	e92d4800 	push	{fp, lr}
   118ac:	e28db004 	add	fp, sp, #4
   118b0:	e24dd010 	sub	sp, sp, #16
    int preinit_array_len
        = &__preinit_array_end[0]
          - &__preinit_array_start[0];
   118b4:	e3072000 	movw	r2, #28672	; 0x7000
   118b8:	e3402001 	movt	r2, #1
   118bc:	e3073000 	movw	r3, #28672	; 0x7000
   118c0:	e3403001 	movt	r3, #1
   118c4:	e0423003 	sub	r3, r2, r3
    int preinit_array_len
   118c8:	e1a03143 	asr	r3, r3, #2
   118cc:	e50b3010 	str	r3, [fp, #-16]
    for (int f = 0; f < preinit_array_len; f++) {
   118d0:	e3a03000 	mov	r3, #0
   118d4:	e50b3008 	str	r3, [fp, #-8]
   118d8:	ea000007 	b	118fc <__sel4runtime_run_constructors+0x54>
        __preinit_array_start[f]();
   118dc:	e3073000 	movw	r3, #28672	; 0x7000
   118e0:	e3403001 	movt	r3, #1
   118e4:	e51b2008 	ldr	r2, [fp, #-8]
   118e8:	e7933102 	ldr	r3, [r3, r2, lsl #2]
   118ec:	e12fff33 	blx	r3
    for (int f = 0; f < preinit_array_len; f++) {
   118f0:	e51b3008 	ldr	r3, [fp, #-8]
   118f4:	e2833001 	add	r3, r3, #1
   118f8:	e50b3008 	str	r3, [fp, #-8]
   118fc:	e51b2008 	ldr	r2, [fp, #-8]
   11900:	e51b3010 	ldr	r3, [fp, #-16]
   11904:	e1520003 	cmp	r2, r3
   11908:	bafffff3 	blt	118dc <__sel4runtime_run_constructors+0x34>
    }
    //_init();
    int init_array_len
        = &__init_array_end[0]
          - &__init_array_start[0];
   1190c:	e3072000 	movw	r2, #28672	; 0x7000
   11910:	e3402001 	movt	r2, #1
   11914:	e3073000 	movw	r3, #28672	; 0x7000
   11918:	e3403001 	movt	r3, #1
   1191c:	e0423003 	sub	r3, r2, r3
    int init_array_len
   11920:	e1a03143 	asr	r3, r3, #2
   11924:	e50b3014 	str	r3, [fp, #-20]	; 0xffffffec
    for (int f = 0; f < init_array_len; f++) {
   11928:	e3a03000 	mov	r3, #0
   1192c:	e50b300c 	str	r3, [fp, #-12]
   11930:	ea000007 	b	11954 <__sel4runtime_run_constructors+0xac>
        __init_array_start[f]();
   11934:	e3073000 	movw	r3, #28672	; 0x7000
   11938:	e3403001 	movt	r3, #1
   1193c:	e51b200c 	ldr	r2, [fp, #-12]
   11940:	e7933102 	ldr	r3, [r3, r2, lsl #2]
   11944:	e12fff33 	blx	r3
    for (int f = 0; f < init_array_len; f++) {
   11948:	e51b300c 	ldr	r3, [fp, #-12]
   1194c:	e2833001 	add	r3, r3, #1
   11950:	e50b300c 	str	r3, [fp, #-12]
   11954:	e51b200c 	ldr	r2, [fp, #-12]
   11958:	e51b3014 	ldr	r3, [fp, #-20]	; 0xffffffec
   1195c:	e1520003 	cmp	r2, r3
   11960:	bafffff3 	blt	11934 <__sel4runtime_run_constructors+0x8c>
    }
}
   11964:	e320f000 	nop	{0}
   11968:	e320f000 	nop	{0}
   1196c:	e24bd004 	sub	sp, fp, #4
   11970:	e8bd8800 	pop	{fp, pc}

00011974 <__sel4runtime_run_destructors>:

void __sel4runtime_run_destructors(void)
{
   11974:	e92d4800 	push	{fp, lr}
   11978:	e28db004 	add	fp, sp, #4
   1197c:	e24dd008 	sub	sp, sp, #8
    int fini_array_len
        = &__fini_array_end[0]
          - &__fini_array_start[0];
   11980:	e3072000 	movw	r2, #28672	; 0x7000
   11984:	e3402001 	movt	r2, #1
   11988:	e3073000 	movw	r3, #28672	; 0x7000
   1198c:	e3403001 	movt	r3, #1
   11990:	e0423003 	sub	r3, r2, r3
    int fini_array_len
   11994:	e1a03143 	asr	r3, r3, #2
   11998:	e50b300c 	str	r3, [fp, #-12]
    for (int f = fini_array_len - 1; f >= 0; f--) {
   1199c:	e51b300c 	ldr	r3, [fp, #-12]
   119a0:	e2433001 	sub	r3, r3, #1
   119a4:	e50b3008 	str	r3, [fp, #-8]
   119a8:	ea000007 	b	119cc <__sel4runtime_run_destructors+0x58>
        __fini_array_start[f]();
   119ac:	e3073000 	movw	r3, #28672	; 0x7000
   119b0:	e3403001 	movt	r3, #1
   119b4:	e51b2008 	ldr	r2, [fp, #-8]
   119b8:	e7933102 	ldr	r3, [r3, r2, lsl #2]
   119bc:	e12fff33 	blx	r3
    for (int f = fini_array_len - 1; f >= 0; f--) {
   119c0:	e51b3008 	ldr	r3, [fp, #-8]
   119c4:	e2433001 	sub	r3, r3, #1
   119c8:	e50b3008 	str	r3, [fp, #-8]
   119cc:	e51b3008 	ldr	r3, [fp, #-8]
   119d0:	e3530000 	cmp	r3, #0
   119d4:	aafffff4 	bge	119ac <__sel4runtime_run_destructors+0x38>
    }
    //_fini();
}
   119d8:	e320f000 	nop	{0}
   119dc:	e320f000 	nop	{0}
   119e0:	e24bd004 	sub	sp, fp, #4
   119e4:	e8bd8800 	pop	{fp, pc}

000119e8 <__sel4runtime_memset>:
 */

#include "util.h"

void *__sel4runtime_memset(void *dest, int c, sel4runtime_size_t n)
{
   119e8:	e92d08f0 	push	{r4, r5, r6, r7, fp}
   119ec:	e28db010 	add	fp, sp, #16
   119f0:	e24dd02c 	sub	sp, sp, #44	; 0x2c
   119f4:	e50b0030 	str	r0, [fp, #-48]	; 0xffffffd0
   119f8:	e50b1034 	str	r1, [fp, #-52]	; 0xffffffcc
   119fc:	e50b2038 	str	r2, [fp, #-56]	; 0xffffffc8
    unsigned char *s = dest;
   11a00:	e51b3030 	ldr	r3, [fp, #-48]	; 0xffffffd0
   11a04:	e50b3018 	str	r3, [fp, #-24]	; 0xffffffe8

    /* Fill head and tail with minimal branching. Each
     * conditional ensures that all the subsequently used
     * offsets are well-defined and in the dest region. */

    if (!n) {
   11a08:	e51b3038 	ldr	r3, [fp, #-56]	; 0xffffffc8
   11a0c:	e3530000 	cmp	r3, #0
   11a10:	1a000001 	bne	11a1c <__sel4runtime_memset+0x34>
        return dest;
   11a14:	e51b3030 	ldr	r3, [fp, #-48]	; 0xffffffd0
   11a18:	ea0000d1 	b	11d64 <__sel4runtime_memset+0x37c>
    }
    s[0] = s[n - 1] = c;
   11a1c:	e51b3038 	ldr	r3, [fp, #-56]	; 0xffffffc8
   11a20:	e2433001 	sub	r3, r3, #1
   11a24:	e51b2018 	ldr	r2, [fp, #-24]	; 0xffffffe8
   11a28:	e0823003 	add	r3, r2, r3
   11a2c:	e51b2034 	ldr	r2, [fp, #-52]	; 0xffffffcc
   11a30:	e6ef2072 	uxtb	r2, r2
   11a34:	e5c32000 	strb	r2, [r3]
   11a38:	e5d32000 	ldrb	r2, [r3]
   11a3c:	e51b3018 	ldr	r3, [fp, #-24]	; 0xffffffe8
   11a40:	e5c32000 	strb	r2, [r3]
    if (n <= 2) {
   11a44:	e51b3038 	ldr	r3, [fp, #-56]	; 0xffffffc8
   11a48:	e3530002 	cmp	r3, #2
   11a4c:	8a000001 	bhi	11a58 <__sel4runtime_memset+0x70>
        return dest;
   11a50:	e51b3030 	ldr	r3, [fp, #-48]	; 0xffffffd0
   11a54:	ea0000c2 	b	11d64 <__sel4runtime_memset+0x37c>
    }
    s[1] = s[n - 2] = c;
   11a58:	e51b3038 	ldr	r3, [fp, #-56]	; 0xffffffc8
   11a5c:	e2433002 	sub	r3, r3, #2
   11a60:	e51b2018 	ldr	r2, [fp, #-24]	; 0xffffffe8
   11a64:	e0823003 	add	r3, r2, r3
   11a68:	e51b2034 	ldr	r2, [fp, #-52]	; 0xffffffcc
   11a6c:	e6ef2072 	uxtb	r2, r2
   11a70:	e5c32000 	strb	r2, [r3]
   11a74:	e51b2018 	ldr	r2, [fp, #-24]	; 0xffffffe8
   11a78:	e2822001 	add	r2, r2, #1
   11a7c:	e5d33000 	ldrb	r3, [r3]
   11a80:	e5c23000 	strb	r3, [r2]
    s[2] = s[n - 3] = c;
   11a84:	e51b3038 	ldr	r3, [fp, #-56]	; 0xffffffc8
   11a88:	e2433003 	sub	r3, r3, #3
   11a8c:	e51b2018 	ldr	r2, [fp, #-24]	; 0xffffffe8
   11a90:	e0823003 	add	r3, r2, r3
   11a94:	e51b2034 	ldr	r2, [fp, #-52]	; 0xffffffcc
   11a98:	e6ef2072 	uxtb	r2, r2
   11a9c:	e5c32000 	strb	r2, [r3]
   11aa0:	e51b2018 	ldr	r2, [fp, #-24]	; 0xffffffe8
   11aa4:	e2822002 	add	r2, r2, #2
   11aa8:	e5d33000 	ldrb	r3, [r3]
   11aac:	e5c23000 	strb	r3, [r2]
    if (n <= 6) {
   11ab0:	e51b3038 	ldr	r3, [fp, #-56]	; 0xffffffc8
   11ab4:	e3530006 	cmp	r3, #6
   11ab8:	8a000001 	bhi	11ac4 <__sel4runtime_memset+0xdc>
        return dest;
   11abc:	e51b3030 	ldr	r3, [fp, #-48]	; 0xffffffd0
   11ac0:	ea0000a7 	b	11d64 <__sel4runtime_memset+0x37c>
    }
    s[3] = s[n - 4] = c;
   11ac4:	e51b3038 	ldr	r3, [fp, #-56]	; 0xffffffc8
   11ac8:	e2433004 	sub	r3, r3, #4
   11acc:	e51b2018 	ldr	r2, [fp, #-24]	; 0xffffffe8
   11ad0:	e0823003 	add	r3, r2, r3
   11ad4:	e51b2034 	ldr	r2, [fp, #-52]	; 0xffffffcc
   11ad8:	e6ef2072 	uxtb	r2, r2
   11adc:	e5c32000 	strb	r2, [r3]
   11ae0:	e51b2018 	ldr	r2, [fp, #-24]	; 0xffffffe8
   11ae4:	e2822003 	add	r2, r2, #3
   11ae8:	e5d33000 	ldrb	r3, [r3]
   11aec:	e5c23000 	strb	r3, [r2]
    if (n <= 8) {
   11af0:	e51b3038 	ldr	r3, [fp, #-56]	; 0xffffffc8
   11af4:	e3530008 	cmp	r3, #8
   11af8:	8a000001 	bhi	11b04 <__sel4runtime_memset+0x11c>
        return dest;
   11afc:	e51b3030 	ldr	r3, [fp, #-48]	; 0xffffffd0
   11b00:	ea000097 	b	11d64 <__sel4runtime_memset+0x37c>
    /* Advance pointer to align it at a 4-byte boundary,
     * and truncate n to a multiple of 4. The previous code
     * already took care of any head/tail that get cut off
     * by the alignment. */

    k = -(sel4runtime_uintptr_t)s & 3;
   11b04:	e51b3018 	ldr	r3, [fp, #-24]	; 0xffffffe8
   11b08:	e2633000 	rsb	r3, r3, #0
   11b0c:	e2033003 	and	r3, r3, #3
   11b10:	e50b301c 	str	r3, [fp, #-28]	; 0xffffffe4
    s += k;
   11b14:	e51b2018 	ldr	r2, [fp, #-24]	; 0xffffffe8
   11b18:	e51b301c 	ldr	r3, [fp, #-28]	; 0xffffffe4
   11b1c:	e0823003 	add	r3, r2, r3
   11b20:	e50b3018 	str	r3, [fp, #-24]	; 0xffffffe8
    n -= k;
   11b24:	e51b2038 	ldr	r2, [fp, #-56]	; 0xffffffc8
   11b28:	e51b301c 	ldr	r3, [fp, #-28]	; 0xffffffe4
   11b2c:	e0423003 	sub	r3, r2, r3
   11b30:	e50b3038 	str	r3, [fp, #-56]	; 0xffffffc8
    n &= -4;
   11b34:	e51b3038 	ldr	r3, [fp, #-56]	; 0xffffffc8
   11b38:	e3c33003 	bic	r3, r3, #3
   11b3c:	e50b3038 	str	r3, [fp, #-56]	; 0xffffffc8

#ifdef __GNUC__
    typedef sel4runtime_uint32_t __attribute__((__may_alias__)) u32;
    typedef sel4runtime_uint64_t __attribute__((__may_alias__)) u64;

    u32 c32 = ((u32) - 1) / 255 * (unsigned char)c;
   11b40:	e51b3034 	ldr	r3, [fp, #-52]	; 0xffffffcc
   11b44:	e6ef3073 	uxtb	r3, r3
   11b48:	e1a02003 	mov	r2, r3
   11b4c:	e3003101 	movw	r3, #257	; 0x101
   11b50:	e3403101 	movt	r3, #257	; 0x101
   11b54:	e0030293 	mul	r3, r3, r2
   11b58:	e50b3020 	str	r3, [fp, #-32]	; 0xffffffe0
     * an 8-byte bounary, fill head/tail up to 28 bytes each.
     * As in the initial byte-based head/tail fill, each
     * conditional below ensures that the subsequent offsets
     * are valid (e.g. !(n<=24) implies n>=28). */

    *(u32 *)(s + 0) = c32;
   11b5c:	e51b3018 	ldr	r3, [fp, #-24]	; 0xffffffe8
   11b60:	e51b2020 	ldr	r2, [fp, #-32]	; 0xffffffe0
   11b64:	e5832000 	str	r2, [r3]
    *(u32 *)(s + n - 4) = c32;
   11b68:	e51b3038 	ldr	r3, [fp, #-56]	; 0xffffffc8
   11b6c:	e2433004 	sub	r3, r3, #4
   11b70:	e51b2018 	ldr	r2, [fp, #-24]	; 0xffffffe8
   11b74:	e0823003 	add	r3, r2, r3
   11b78:	e51b2020 	ldr	r2, [fp, #-32]	; 0xffffffe0
   11b7c:	e5832000 	str	r2, [r3]
    if (n <= 8) {
   11b80:	e51b3038 	ldr	r3, [fp, #-56]	; 0xffffffc8
   11b84:	e3530008 	cmp	r3, #8
   11b88:	8a000001 	bhi	11b94 <__sel4runtime_memset+0x1ac>
        return dest;
   11b8c:	e51b3030 	ldr	r3, [fp, #-48]	; 0xffffffd0
   11b90:	ea000073 	b	11d64 <__sel4runtime_memset+0x37c>
    }
    *(u32 *)(s + 4) = c32;
   11b94:	e51b3018 	ldr	r3, [fp, #-24]	; 0xffffffe8
   11b98:	e2833004 	add	r3, r3, #4
   11b9c:	e51b2020 	ldr	r2, [fp, #-32]	; 0xffffffe0
   11ba0:	e5832000 	str	r2, [r3]
    *(u32 *)(s + 8) = c32;
   11ba4:	e51b3018 	ldr	r3, [fp, #-24]	; 0xffffffe8
   11ba8:	e2833008 	add	r3, r3, #8
   11bac:	e51b2020 	ldr	r2, [fp, #-32]	; 0xffffffe0
   11bb0:	e5832000 	str	r2, [r3]
    *(u32 *)(s + n - 12) = c32;
   11bb4:	e51b3038 	ldr	r3, [fp, #-56]	; 0xffffffc8
   11bb8:	e243300c 	sub	r3, r3, #12
   11bbc:	e51b2018 	ldr	r2, [fp, #-24]	; 0xffffffe8
   11bc0:	e0823003 	add	r3, r2, r3
   11bc4:	e51b2020 	ldr	r2, [fp, #-32]	; 0xffffffe0
   11bc8:	e5832000 	str	r2, [r3]
    *(u32 *)(s + n - 8) = c32;
   11bcc:	e51b3038 	ldr	r3, [fp, #-56]	; 0xffffffc8
   11bd0:	e2433008 	sub	r3, r3, #8
   11bd4:	e51b2018 	ldr	r2, [fp, #-24]	; 0xffffffe8
   11bd8:	e0823003 	add	r3, r2, r3
   11bdc:	e51b2020 	ldr	r2, [fp, #-32]	; 0xffffffe0
   11be0:	e5832000 	str	r2, [r3]
    if (n <= 24) {
   11be4:	e51b3038 	ldr	r3, [fp, #-56]	; 0xffffffc8
   11be8:	e3530018 	cmp	r3, #24
   11bec:	8a000001 	bhi	11bf8 <__sel4runtime_memset+0x210>
        return dest;
   11bf0:	e51b3030 	ldr	r3, [fp, #-48]	; 0xffffffd0
   11bf4:	ea00005a 	b	11d64 <__sel4runtime_memset+0x37c>
    }
    *(u32 *)(s + 12) = c32;
   11bf8:	e51b3018 	ldr	r3, [fp, #-24]	; 0xffffffe8
   11bfc:	e283300c 	add	r3, r3, #12
   11c00:	e51b2020 	ldr	r2, [fp, #-32]	; 0xffffffe0
   11c04:	e5832000 	str	r2, [r3]
    *(u32 *)(s + 16) = c32;
   11c08:	e51b3018 	ldr	r3, [fp, #-24]	; 0xffffffe8
   11c0c:	e2833010 	add	r3, r3, #16
   11c10:	e51b2020 	ldr	r2, [fp, #-32]	; 0xffffffe0
   11c14:	e5832000 	str	r2, [r3]
    *(u32 *)(s + 20) = c32;
   11c18:	e51b3018 	ldr	r3, [fp, #-24]	; 0xffffffe8
   11c1c:	e2833014 	add	r3, r3, #20
   11c20:	e51b2020 	ldr	r2, [fp, #-32]	; 0xffffffe0
   11c24:	e5832000 	str	r2, [r3]
    *(u32 *)(s + 24) = c32;
   11c28:	e51b3018 	ldr	r3, [fp, #-24]	; 0xffffffe8
   11c2c:	e2833018 	add	r3, r3, #24
   11c30:	e51b2020 	ldr	r2, [fp, #-32]	; 0xffffffe0
   11c34:	e5832000 	str	r2, [r3]
    *(u32 *)(s + n - 28) = c32;
   11c38:	e51b3038 	ldr	r3, [fp, #-56]	; 0xffffffc8
   11c3c:	e243301c 	sub	r3, r3, #28
   11c40:	e51b2018 	ldr	r2, [fp, #-24]	; 0xffffffe8
   11c44:	e0823003 	add	r3, r2, r3
   11c48:	e51b2020 	ldr	r2, [fp, #-32]	; 0xffffffe0
   11c4c:	e5832000 	str	r2, [r3]
    *(u32 *)(s + n - 24) = c32;
   11c50:	e51b3038 	ldr	r3, [fp, #-56]	; 0xffffffc8
   11c54:	e2433018 	sub	r3, r3, #24
   11c58:	e51b2018 	ldr	r2, [fp, #-24]	; 0xffffffe8
   11c5c:	e0823003 	add	r3, r2, r3
   11c60:	e51b2020 	ldr	r2, [fp, #-32]	; 0xffffffe0
   11c64:	e5832000 	str	r2, [r3]
    *(u32 *)(s + n - 20) = c32;
   11c68:	e51b3038 	ldr	r3, [fp, #-56]	; 0xffffffc8
   11c6c:	e2433014 	sub	r3, r3, #20
   11c70:	e51b2018 	ldr	r2, [fp, #-24]	; 0xffffffe8
   11c74:	e0823003 	add	r3, r2, r3
   11c78:	e51b2020 	ldr	r2, [fp, #-32]	; 0xffffffe0
   11c7c:	e5832000 	str	r2, [r3]
    *(u32 *)(s + n - 16) = c32;
   11c80:	e51b3038 	ldr	r3, [fp, #-56]	; 0xffffffc8
   11c84:	e2433010 	sub	r3, r3, #16
   11c88:	e51b2018 	ldr	r2, [fp, #-24]	; 0xffffffe8
   11c8c:	e0823003 	add	r3, r2, r3
   11c90:	e51b2020 	ldr	r2, [fp, #-32]	; 0xffffffe0
   11c94:	e5832000 	str	r2, [r3]

    /* Align to a multiple of 8 so we can fill 64 bits at a time,
     * and avoid writing the same bytes twice as much as is
     * practical without introducing additional branching. */

    k = 24 + ((sel4runtime_uintptr_t)s & 4);
   11c98:	e51b3018 	ldr	r3, [fp, #-24]	; 0xffffffe8
   11c9c:	e2033004 	and	r3, r3, #4
   11ca0:	e2833018 	add	r3, r3, #24
   11ca4:	e50b301c 	str	r3, [fp, #-28]	; 0xffffffe4
    s += k;
   11ca8:	e51b2018 	ldr	r2, [fp, #-24]	; 0xffffffe8
   11cac:	e51b301c 	ldr	r3, [fp, #-28]	; 0xffffffe4
   11cb0:	e0823003 	add	r3, r2, r3
   11cb4:	e50b3018 	str	r3, [fp, #-24]	; 0xffffffe8
    n -= k;
   11cb8:	e51b2038 	ldr	r2, [fp, #-56]	; 0xffffffc8
   11cbc:	e51b301c 	ldr	r3, [fp, #-28]	; 0xffffffe4
   11cc0:	e0423003 	sub	r3, r2, r3
   11cc4:	e50b3038 	str	r3, [fp, #-56]	; 0xffffffc8

    /* If this loop is reached, 28 tail bytes have already been
     * filled, so any remainder when n drops below 32 can be
     * safely ignored. */

    u64 c64 = c32 | ((u64)c32 << 32);
   11cc8:	e51b3020 	ldr	r3, [fp, #-32]	; 0xffffffe0
   11ccc:	e1a00003 	mov	r0, r3
   11cd0:	e3a01000 	mov	r1, #0
   11cd4:	e51b3020 	ldr	r3, [fp, #-32]	; 0xffffffe0
   11cd8:	e1a06003 	mov	r6, r3
   11cdc:	e3a07000 	mov	r7, #0
   11ce0:	e3a02000 	mov	r2, #0
   11ce4:	e3a03000 	mov	r3, #0
   11ce8:	e1a03006 	mov	r3, r6
   11cec:	e3a02000 	mov	r2, #0
   11cf0:	e1804002 	orr	r4, r0, r2
   11cf4:	e1815003 	orr	r5, r1, r3
   11cf8:	e14b42fc 	strd	r4, [fp, #-44]	; 0xffffffd4
    for (; n >= 32; n -= 32, s += 32) {
   11cfc:	ea000014 	b	11d54 <__sel4runtime_memset+0x36c>
        *(u64 *)(s + 0) = c64;
   11d00:	e51b1018 	ldr	r1, [fp, #-24]	; 0xffffffe8
   11d04:	e14b22dc 	ldrd	r2, [fp, #-44]	; 0xffffffd4
   11d08:	e1c120f0 	strd	r2, [r1]
        *(u64 *)(s + 8) = c64;
   11d0c:	e51b3018 	ldr	r3, [fp, #-24]	; 0xffffffe8
   11d10:	e2831008 	add	r1, r3, #8
   11d14:	e14b22dc 	ldrd	r2, [fp, #-44]	; 0xffffffd4
   11d18:	e1c120f0 	strd	r2, [r1]
        *(u64 *)(s + 16) = c64;
   11d1c:	e51b3018 	ldr	r3, [fp, #-24]	; 0xffffffe8
   11d20:	e2831010 	add	r1, r3, #16
   11d24:	e14b22dc 	ldrd	r2, [fp, #-44]	; 0xffffffd4
   11d28:	e1c120f0 	strd	r2, [r1]
        *(u64 *)(s + 24) = c64;
   11d2c:	e51b3018 	ldr	r3, [fp, #-24]	; 0xffffffe8
   11d30:	e2831018 	add	r1, r3, #24
   11d34:	e14b22dc 	ldrd	r2, [fp, #-44]	; 0xffffffd4
   11d38:	e1c120f0 	strd	r2, [r1]
    for (; n >= 32; n -= 32, s += 32) {
   11d3c:	e51b3038 	ldr	r3, [fp, #-56]	; 0xffffffc8
   11d40:	e2433020 	sub	r3, r3, #32
   11d44:	e50b3038 	str	r3, [fp, #-56]	; 0xffffffc8
   11d48:	e51b3018 	ldr	r3, [fp, #-24]	; 0xffffffe8
   11d4c:	e2833020 	add	r3, r3, #32
   11d50:	e50b3018 	str	r3, [fp, #-24]	; 0xffffffe8
   11d54:	e51b3038 	ldr	r3, [fp, #-56]	; 0xffffffc8
   11d58:	e353001f 	cmp	r3, #31
   11d5c:	8affffe7 	bhi	11d00 <__sel4runtime_memset+0x318>
    for (; n; n--, s++) {
        *s = c;
    }
#endif

    return dest;
   11d60:	e51b3030 	ldr	r3, [fp, #-48]	; 0xffffffd0
}
   11d64:	e1a00003 	mov	r0, r3
   11d68:	e24bd010 	sub	sp, fp, #16
   11d6c:	e8bd08f0 	pop	{r4, r5, r6, r7, fp}
   11d70:	e12fff1e 	bx	lr

00011d74 <__sel4runtime_memcpy>:
 */

#include "util.h"

void *__sel4runtime_memcpy(void *restrict dest, const void *restrict src, sel4runtime_size_t n)
{
   11d74:	e52db004 	push	{fp}		; (str fp, [sp, #-4]!)
   11d78:	e28db000 	add	fp, sp, #0
   11d7c:	e24dd024 	sub	sp, sp, #36	; 0x24
   11d80:	e50b0018 	str	r0, [fp, #-24]	; 0xffffffe8
   11d84:	e50b101c 	str	r1, [fp, #-28]	; 0xffffffe4
   11d88:	e50b2020 	str	r2, [fp, #-32]	; 0xffffffe0
    unsigned char *d = dest;
   11d8c:	e51b3018 	ldr	r3, [fp, #-24]	; 0xffffffe8
   11d90:	e50b3008 	str	r3, [fp, #-8]
    const unsigned char *s = src;
   11d94:	e51b301c 	ldr	r3, [fp, #-28]	; 0xffffffe4
   11d98:	e50b300c 	str	r3, [fp, #-12]
#endif

    typedef sel4runtime_uint32_t __attribute__((__may_alias__)) u32;
    sel4runtime_uint32_t w, x;

    for (; (sel4runtime_uintptr_t)s % 4 && n; n--) {
   11d9c:	ea00000a 	b	11dcc <__sel4runtime_memcpy+0x58>
        *d++ = *s++;
   11da0:	e51b200c 	ldr	r2, [fp, #-12]
   11da4:	e2823001 	add	r3, r2, #1
   11da8:	e50b300c 	str	r3, [fp, #-12]
   11dac:	e51b3008 	ldr	r3, [fp, #-8]
   11db0:	e2831001 	add	r1, r3, #1
   11db4:	e50b1008 	str	r1, [fp, #-8]
   11db8:	e5d22000 	ldrb	r2, [r2]
   11dbc:	e5c32000 	strb	r2, [r3]
    for (; (sel4runtime_uintptr_t)s % 4 && n; n--) {
   11dc0:	e51b3020 	ldr	r3, [fp, #-32]	; 0xffffffe0
   11dc4:	e2433001 	sub	r3, r3, #1
   11dc8:	e50b3020 	str	r3, [fp, #-32]	; 0xffffffe0
   11dcc:	e51b300c 	ldr	r3, [fp, #-12]
   11dd0:	e2033003 	and	r3, r3, #3
   11dd4:	e3530000 	cmp	r3, #0
   11dd8:	0a000002 	beq	11de8 <__sel4runtime_memcpy+0x74>
   11ddc:	e51b3020 	ldr	r3, [fp, #-32]	; 0xffffffe0
   11de0:	e3530000 	cmp	r3, #0
   11de4:	1affffed 	bne	11da0 <__sel4runtime_memcpy+0x2c>
    }

    if ((sel4runtime_uintptr_t)d % 4 == 0) {
   11de8:	e51b3008 	ldr	r3, [fp, #-8]
   11dec:	e2033003 	and	r3, r3, #3
   11df0:	e3530000 	cmp	r3, #0
   11df4:	1a000062 	bne	11f84 <__sel4runtime_memcpy+0x210>
        for (; n >= 16; s += 16, d += 16, n -= 16) {
   11df8:	ea00001e 	b	11e78 <__sel4runtime_memcpy+0x104>
            *(u32 *)(d + 0) = *(u32 *)(s + 0);
   11dfc:	e51b300c 	ldr	r3, [fp, #-12]
   11e00:	e5932000 	ldr	r2, [r3]
   11e04:	e51b3008 	ldr	r3, [fp, #-8]
   11e08:	e5832000 	str	r2, [r3]
            *(u32 *)(d + 4) = *(u32 *)(s + 4);
   11e0c:	e51b300c 	ldr	r3, [fp, #-12]
   11e10:	e2832004 	add	r2, r3, #4
   11e14:	e51b3008 	ldr	r3, [fp, #-8]
   11e18:	e2833004 	add	r3, r3, #4
   11e1c:	e5922000 	ldr	r2, [r2]
   11e20:	e5832000 	str	r2, [r3]
            *(u32 *)(d + 8) = *(u32 *)(s + 8);
   11e24:	e51b300c 	ldr	r3, [fp, #-12]
   11e28:	e2832008 	add	r2, r3, #8
   11e2c:	e51b3008 	ldr	r3, [fp, #-8]
   11e30:	e2833008 	add	r3, r3, #8
   11e34:	e5922000 	ldr	r2, [r2]
   11e38:	e5832000 	str	r2, [r3]
            *(u32 *)(d + 12) = *(u32 *)(s + 12);
   11e3c:	e51b300c 	ldr	r3, [fp, #-12]
   11e40:	e283200c 	add	r2, r3, #12
   11e44:	e51b3008 	ldr	r3, [fp, #-8]
   11e48:	e283300c 	add	r3, r3, #12
   11e4c:	e5922000 	ldr	r2, [r2]
   11e50:	e5832000 	str	r2, [r3]
        for (; n >= 16; s += 16, d += 16, n -= 16) {
   11e54:	e51b300c 	ldr	r3, [fp, #-12]
   11e58:	e2833010 	add	r3, r3, #16
   11e5c:	e50b300c 	str	r3, [fp, #-12]
   11e60:	e51b3008 	ldr	r3, [fp, #-8]
   11e64:	e2833010 	add	r3, r3, #16
   11e68:	e50b3008 	str	r3, [fp, #-8]
   11e6c:	e51b3020 	ldr	r3, [fp, #-32]	; 0xffffffe0
   11e70:	e2433010 	sub	r3, r3, #16
   11e74:	e50b3020 	str	r3, [fp, #-32]	; 0xffffffe0
   11e78:	e51b3020 	ldr	r3, [fp, #-32]	; 0xffffffe0
   11e7c:	e353000f 	cmp	r3, #15
   11e80:	8affffdd 	bhi	11dfc <__sel4runtime_memcpy+0x88>
        }
        if (n & 8) {
   11e84:	e51b3020 	ldr	r3, [fp, #-32]	; 0xffffffe0
   11e88:	e2033008 	and	r3, r3, #8
   11e8c:	e3530000 	cmp	r3, #0
   11e90:	0a00000f 	beq	11ed4 <__sel4runtime_memcpy+0x160>
            *(u32 *)(d + 0) = *(u32 *)(s + 0);
   11e94:	e51b300c 	ldr	r3, [fp, #-12]
   11e98:	e5932000 	ldr	r2, [r3]
   11e9c:	e51b3008 	ldr	r3, [fp, #-8]
   11ea0:	e5832000 	str	r2, [r3]
            *(u32 *)(d + 4) = *(u32 *)(s + 4);
   11ea4:	e51b300c 	ldr	r3, [fp, #-12]
   11ea8:	e2832004 	add	r2, r3, #4
   11eac:	e51b3008 	ldr	r3, [fp, #-8]
   11eb0:	e2833004 	add	r3, r3, #4
   11eb4:	e5922000 	ldr	r2, [r2]
   11eb8:	e5832000 	str	r2, [r3]
            d += 8;
   11ebc:	e51b3008 	ldr	r3, [fp, #-8]
   11ec0:	e2833008 	add	r3, r3, #8
   11ec4:	e50b3008 	str	r3, [fp, #-8]
            s += 8;
   11ec8:	e51b300c 	ldr	r3, [fp, #-12]
   11ecc:	e2833008 	add	r3, r3, #8
   11ed0:	e50b300c 	str	r3, [fp, #-12]
        }
        if (n & 4) {
   11ed4:	e51b3020 	ldr	r3, [fp, #-32]	; 0xffffffe0
   11ed8:	e2033004 	and	r3, r3, #4
   11edc:	e3530000 	cmp	r3, #0
   11ee0:	0a000009 	beq	11f0c <__sel4runtime_memcpy+0x198>
            *(u32 *)(d + 0) = *(u32 *)(s + 0);
   11ee4:	e51b300c 	ldr	r3, [fp, #-12]
   11ee8:	e5932000 	ldr	r2, [r3]
   11eec:	e51b3008 	ldr	r3, [fp, #-8]
   11ef0:	e5832000 	str	r2, [r3]
            d += 4;
   11ef4:	e51b3008 	ldr	r3, [fp, #-8]
   11ef8:	e2833004 	add	r3, r3, #4
   11efc:	e50b3008 	str	r3, [fp, #-8]
            s += 4;
   11f00:	e51b300c 	ldr	r3, [fp, #-12]
   11f04:	e2833004 	add	r3, r3, #4
   11f08:	e50b300c 	str	r3, [fp, #-12]
        }
        if (n & 2) {
   11f0c:	e51b3020 	ldr	r3, [fp, #-32]	; 0xffffffe0
   11f10:	e2033002 	and	r3, r3, #2
   11f14:	e3530000 	cmp	r3, #0
   11f18:	0a00000f 	beq	11f5c <__sel4runtime_memcpy+0x1e8>
            *d++ = *s++;
   11f1c:	e51b200c 	ldr	r2, [fp, #-12]
   11f20:	e2823001 	add	r3, r2, #1
   11f24:	e50b300c 	str	r3, [fp, #-12]
   11f28:	e51b3008 	ldr	r3, [fp, #-8]
   11f2c:	e2831001 	add	r1, r3, #1
   11f30:	e50b1008 	str	r1, [fp, #-8]
   11f34:	e5d22000 	ldrb	r2, [r2]
   11f38:	e5c32000 	strb	r2, [r3]
            *d++ = *s++;
   11f3c:	e51b200c 	ldr	r2, [fp, #-12]
   11f40:	e2823001 	add	r3, r2, #1
   11f44:	e50b300c 	str	r3, [fp, #-12]
   11f48:	e51b3008 	ldr	r3, [fp, #-8]
   11f4c:	e2831001 	add	r1, r3, #1
   11f50:	e50b1008 	str	r1, [fp, #-8]
   11f54:	e5d22000 	ldrb	r2, [r2]
   11f58:	e5c32000 	strb	r2, [r3]
        }
        if (n & 1) {
   11f5c:	e51b3020 	ldr	r3, [fp, #-32]	; 0xffffffe0
   11f60:	e2033001 	and	r3, r3, #1
   11f64:	e3530000 	cmp	r3, #0
   11f68:	0a000003 	beq	11f7c <__sel4runtime_memcpy+0x208>
            *d = *s;
   11f6c:	e51b300c 	ldr	r3, [fp, #-12]
   11f70:	e5d32000 	ldrb	r2, [r3]
   11f74:	e51b3008 	ldr	r3, [fp, #-8]
   11f78:	e5c32000 	strb	r2, [r3]
        }
        return dest;
   11f7c:	e51b3018 	ldr	r3, [fp, #-24]	; 0xffffffe8
   11f80:	ea000210 	b	127c8 <__sel4runtime_memcpy+0xa54>
    }

    if (n >= 32) switch ((sel4runtime_uintptr_t)d % 4) {
   11f84:	e51b3020 	ldr	r3, [fp, #-32]	; 0xffffffe0
   11f88:	e353001f 	cmp	r3, #31
   11f8c:	9a000103 	bls	123a0 <__sel4runtime_memcpy+0x62c>
   11f90:	e51b3008 	ldr	r3, [fp, #-8]
   11f94:	e2033003 	and	r3, r3, #3
   11f98:	e3530003 	cmp	r3, #3
   11f9c:	0a0000b4 	beq	12274 <__sel4runtime_memcpy+0x500>
   11fa0:	e3530003 	cmp	r3, #3
   11fa4:	8a0000fe 	bhi	123a4 <__sel4runtime_memcpy+0x630>
   11fa8:	e3530001 	cmp	r3, #1
   11fac:	0a000002 	beq	11fbc <__sel4runtime_memcpy+0x248>
   11fb0:	e3530002 	cmp	r3, #2
   11fb4:	0a00005b 	beq	12128 <__sel4runtime_memcpy+0x3b4>
   11fb8:	ea0000f9 	b	123a4 <__sel4runtime_memcpy+0x630>
        case 1:
            w = *(u32 *)s;
   11fbc:	e51b300c 	ldr	r3, [fp, #-12]
   11fc0:	e5933000 	ldr	r3, [r3]
   11fc4:	e50b3010 	str	r3, [fp, #-16]
            *d++ = *s++;
   11fc8:	e51b200c 	ldr	r2, [fp, #-12]
   11fcc:	e2823001 	add	r3, r2, #1
   11fd0:	e50b300c 	str	r3, [fp, #-12]
   11fd4:	e51b3008 	ldr	r3, [fp, #-8]
   11fd8:	e2831001 	add	r1, r3, #1
   11fdc:	e50b1008 	str	r1, [fp, #-8]
   11fe0:	e5d22000 	ldrb	r2, [r2]
   11fe4:	e5c32000 	strb	r2, [r3]
            *d++ = *s++;
   11fe8:	e51b200c 	ldr	r2, [fp, #-12]
   11fec:	e2823001 	add	r3, r2, #1
   11ff0:	e50b300c 	str	r3, [fp, #-12]
   11ff4:	e51b3008 	ldr	r3, [fp, #-8]
   11ff8:	e2831001 	add	r1, r3, #1
   11ffc:	e50b1008 	str	r1, [fp, #-8]
   12000:	e5d22000 	ldrb	r2, [r2]
   12004:	e5c32000 	strb	r2, [r3]
            *d++ = *s++;
   12008:	e51b200c 	ldr	r2, [fp, #-12]
   1200c:	e2823001 	add	r3, r2, #1
   12010:	e50b300c 	str	r3, [fp, #-12]
   12014:	e51b3008 	ldr	r3, [fp, #-8]
   12018:	e2831001 	add	r1, r3, #1
   1201c:	e50b1008 	str	r1, [fp, #-8]
   12020:	e5d22000 	ldrb	r2, [r2]
   12024:	e5c32000 	strb	r2, [r3]
            n -= 3;
   12028:	e51b3020 	ldr	r3, [fp, #-32]	; 0xffffffe0
   1202c:	e2433003 	sub	r3, r3, #3
   12030:	e50b3020 	str	r3, [fp, #-32]	; 0xffffffe0
            for (; n >= 17; s += 16, d += 16, n -= 16) {
   12034:	ea000037 	b	12118 <__sel4runtime_memcpy+0x3a4>
                x = *(u32 *)(s + 1);
   12038:	e51b300c 	ldr	r3, [fp, #-12]
   1203c:	e2833001 	add	r3, r3, #1
   12040:	e5933000 	ldr	r3, [r3]
   12044:	e50b3014 	str	r3, [fp, #-20]	; 0xffffffec
                *(u32 *)(d + 0) = (w LS 24) | (x RS 8);
   12048:	e51b3010 	ldr	r3, [fp, #-16]
   1204c:	e1a02c23 	lsr	r2, r3, #24
   12050:	e51b3014 	ldr	r3, [fp, #-20]	; 0xffffffec
   12054:	e1a03403 	lsl	r3, r3, #8
   12058:	e1822003 	orr	r2, r2, r3
   1205c:	e51b3008 	ldr	r3, [fp, #-8]
   12060:	e5832000 	str	r2, [r3]
                w = *(u32 *)(s + 5);
   12064:	e51b300c 	ldr	r3, [fp, #-12]
   12068:	e2833005 	add	r3, r3, #5
   1206c:	e5933000 	ldr	r3, [r3]
   12070:	e50b3010 	str	r3, [fp, #-16]
                *(u32 *)(d + 4) = (x LS 24) | (w RS 8);
   12074:	e51b3014 	ldr	r3, [fp, #-20]	; 0xffffffec
   12078:	e1a01c23 	lsr	r1, r3, #24
   1207c:	e51b3010 	ldr	r3, [fp, #-16]
   12080:	e1a02403 	lsl	r2, r3, #8
   12084:	e51b3008 	ldr	r3, [fp, #-8]
   12088:	e2833004 	add	r3, r3, #4
   1208c:	e1812002 	orr	r2, r1, r2
   12090:	e5832000 	str	r2, [r3]
                x = *(u32 *)(s + 9);
   12094:	e51b300c 	ldr	r3, [fp, #-12]
   12098:	e2833009 	add	r3, r3, #9
   1209c:	e5933000 	ldr	r3, [r3]
   120a0:	e50b3014 	str	r3, [fp, #-20]	; 0xffffffec
                *(u32 *)(d + 8) = (w LS 24) | (x RS 8);
   120a4:	e51b3010 	ldr	r3, [fp, #-16]
   120a8:	e1a01c23 	lsr	r1, r3, #24
   120ac:	e51b3014 	ldr	r3, [fp, #-20]	; 0xffffffec
   120b0:	e1a02403 	lsl	r2, r3, #8
   120b4:	e51b3008 	ldr	r3, [fp, #-8]
   120b8:	e2833008 	add	r3, r3, #8
   120bc:	e1812002 	orr	r2, r1, r2
   120c0:	e5832000 	str	r2, [r3]
                w = *(u32 *)(s + 13);
   120c4:	e51b300c 	ldr	r3, [fp, #-12]
   120c8:	e283300d 	add	r3, r3, #13
   120cc:	e5933000 	ldr	r3, [r3]
   120d0:	e50b3010 	str	r3, [fp, #-16]
                *(u32 *)(d + 12) = (x LS 24) | (w RS 8);
   120d4:	e51b3014 	ldr	r3, [fp, #-20]	; 0xffffffec
   120d8:	e1a01c23 	lsr	r1, r3, #24
   120dc:	e51b3010 	ldr	r3, [fp, #-16]
   120e0:	e1a02403 	lsl	r2, r3, #8
   120e4:	e51b3008 	ldr	r3, [fp, #-8]
   120e8:	e283300c 	add	r3, r3, #12
   120ec:	e1812002 	orr	r2, r1, r2
   120f0:	e5832000 	str	r2, [r3]
            for (; n >= 17; s += 16, d += 16, n -= 16) {
   120f4:	e51b300c 	ldr	r3, [fp, #-12]
   120f8:	e2833010 	add	r3, r3, #16
   120fc:	e50b300c 	str	r3, [fp, #-12]
   12100:	e51b3008 	ldr	r3, [fp, #-8]
   12104:	e2833010 	add	r3, r3, #16
   12108:	e50b3008 	str	r3, [fp, #-8]
   1210c:	e51b3020 	ldr	r3, [fp, #-32]	; 0xffffffe0
   12110:	e2433010 	sub	r3, r3, #16
   12114:	e50b3020 	str	r3, [fp, #-32]	; 0xffffffe0
   12118:	e51b3020 	ldr	r3, [fp, #-32]	; 0xffffffe0
   1211c:	e3530010 	cmp	r3, #16
   12120:	8affffc4 	bhi	12038 <__sel4runtime_memcpy+0x2c4>
            }
            break;
   12124:	ea00009e 	b	123a4 <__sel4runtime_memcpy+0x630>
        case 2:
            w = *(u32 *)s;
   12128:	e51b300c 	ldr	r3, [fp, #-12]
   1212c:	e5933000 	ldr	r3, [r3]
   12130:	e50b3010 	str	r3, [fp, #-16]
            *d++ = *s++;
   12134:	e51b200c 	ldr	r2, [fp, #-12]
   12138:	e2823001 	add	r3, r2, #1
   1213c:	e50b300c 	str	r3, [fp, #-12]
   12140:	e51b3008 	ldr	r3, [fp, #-8]
   12144:	e2831001 	add	r1, r3, #1
   12148:	e50b1008 	str	r1, [fp, #-8]
   1214c:	e5d22000 	ldrb	r2, [r2]
   12150:	e5c32000 	strb	r2, [r3]
            *d++ = *s++;
   12154:	e51b200c 	ldr	r2, [fp, #-12]
   12158:	e2823001 	add	r3, r2, #1
   1215c:	e50b300c 	str	r3, [fp, #-12]
   12160:	e51b3008 	ldr	r3, [fp, #-8]
   12164:	e2831001 	add	r1, r3, #1
   12168:	e50b1008 	str	r1, [fp, #-8]
   1216c:	e5d22000 	ldrb	r2, [r2]
   12170:	e5c32000 	strb	r2, [r3]
            n -= 2;
   12174:	e51b3020 	ldr	r3, [fp, #-32]	; 0xffffffe0
   12178:	e2433002 	sub	r3, r3, #2
   1217c:	e50b3020 	str	r3, [fp, #-32]	; 0xffffffe0
            for (; n >= 18; s += 16, d += 16, n -= 16) {
   12180:	ea000037 	b	12264 <__sel4runtime_memcpy+0x4f0>
                x = *(u32 *)(s + 2);
   12184:	e51b300c 	ldr	r3, [fp, #-12]
   12188:	e2833002 	add	r3, r3, #2
   1218c:	e5933000 	ldr	r3, [r3]
   12190:	e50b3014 	str	r3, [fp, #-20]	; 0xffffffec
                *(u32 *)(d + 0) = (w LS 16) | (x RS 16);
   12194:	e51b3010 	ldr	r3, [fp, #-16]
   12198:	e1a02823 	lsr	r2, r3, #16
   1219c:	e51b3014 	ldr	r3, [fp, #-20]	; 0xffffffec
   121a0:	e1a03803 	lsl	r3, r3, #16
   121a4:	e1822003 	orr	r2, r2, r3
   121a8:	e51b3008 	ldr	r3, [fp, #-8]
   121ac:	e5832000 	str	r2, [r3]
                w = *(u32 *)(s + 6);
   121b0:	e51b300c 	ldr	r3, [fp, #-12]
   121b4:	e2833006 	add	r3, r3, #6
   121b8:	e5933000 	ldr	r3, [r3]
   121bc:	e50b3010 	str	r3, [fp, #-16]
                *(u32 *)(d + 4) = (x LS 16) | (w RS 16);
   121c0:	e51b3014 	ldr	r3, [fp, #-20]	; 0xffffffec
   121c4:	e1a01823 	lsr	r1, r3, #16
   121c8:	e51b3010 	ldr	r3, [fp, #-16]
   121cc:	e1a02803 	lsl	r2, r3, #16
   121d0:	e51b3008 	ldr	r3, [fp, #-8]
   121d4:	e2833004 	add	r3, r3, #4
   121d8:	e1812002 	orr	r2, r1, r2
   121dc:	e5832000 	str	r2, [r3]
                x = *(u32 *)(s + 10);
   121e0:	e51b300c 	ldr	r3, [fp, #-12]
   121e4:	e283300a 	add	r3, r3, #10
   121e8:	e5933000 	ldr	r3, [r3]
   121ec:	e50b3014 	str	r3, [fp, #-20]	; 0xffffffec
                *(u32 *)(d + 8) = (w LS 16) | (x RS 16);
   121f0:	e51b3010 	ldr	r3, [fp, #-16]
   121f4:	e1a01823 	lsr	r1, r3, #16
   121f8:	e51b3014 	ldr	r3, [fp, #-20]	; 0xffffffec
   121fc:	e1a02803 	lsl	r2, r3, #16
   12200:	e51b3008 	ldr	r3, [fp, #-8]
   12204:	e2833008 	add	r3, r3, #8
   12208:	e1812002 	orr	r2, r1, r2
   1220c:	e5832000 	str	r2, [r3]
                w = *(u32 *)(s + 14);
   12210:	e51b300c 	ldr	r3, [fp, #-12]
   12214:	e283300e 	add	r3, r3, #14
   12218:	e5933000 	ldr	r3, [r3]
   1221c:	e50b3010 	str	r3, [fp, #-16]
                *(u32 *)(d + 12) = (x LS 16) | (w RS 16);
   12220:	e51b3014 	ldr	r3, [fp, #-20]	; 0xffffffec
   12224:	e1a01823 	lsr	r1, r3, #16
   12228:	e51b3010 	ldr	r3, [fp, #-16]
   1222c:	e1a02803 	lsl	r2, r3, #16
   12230:	e51b3008 	ldr	r3, [fp, #-8]
   12234:	e283300c 	add	r3, r3, #12
   12238:	e1812002 	orr	r2, r1, r2
   1223c:	e5832000 	str	r2, [r3]
            for (; n >= 18; s += 16, d += 16, n -= 16) {
   12240:	e51b300c 	ldr	r3, [fp, #-12]
   12244:	e2833010 	add	r3, r3, #16
   12248:	e50b300c 	str	r3, [fp, #-12]
   1224c:	e51b3008 	ldr	r3, [fp, #-8]
   12250:	e2833010 	add	r3, r3, #16
   12254:	e50b3008 	str	r3, [fp, #-8]
   12258:	e51b3020 	ldr	r3, [fp, #-32]	; 0xffffffe0
   1225c:	e2433010 	sub	r3, r3, #16
   12260:	e50b3020 	str	r3, [fp, #-32]	; 0xffffffe0
   12264:	e51b3020 	ldr	r3, [fp, #-32]	; 0xffffffe0
   12268:	e3530011 	cmp	r3, #17
   1226c:	8affffc4 	bhi	12184 <__sel4runtime_memcpy+0x410>
            }
            break;
   12270:	ea00004b 	b	123a4 <__sel4runtime_memcpy+0x630>
        case 3:
            w = *(u32 *)s;
   12274:	e51b300c 	ldr	r3, [fp, #-12]
   12278:	e5933000 	ldr	r3, [r3]
   1227c:	e50b3010 	str	r3, [fp, #-16]
            *d++ = *s++;
   12280:	e51b200c 	ldr	r2, [fp, #-12]
   12284:	e2823001 	add	r3, r2, #1
   12288:	e50b300c 	str	r3, [fp, #-12]
   1228c:	e51b3008 	ldr	r3, [fp, #-8]
   12290:	e2831001 	add	r1, r3, #1
   12294:	e50b1008 	str	r1, [fp, #-8]
   12298:	e5d22000 	ldrb	r2, [r2]
   1229c:	e5c32000 	strb	r2, [r3]
            n -= 1;
   122a0:	e51b3020 	ldr	r3, [fp, #-32]	; 0xffffffe0
   122a4:	e2433001 	sub	r3, r3, #1
   122a8:	e50b3020 	str	r3, [fp, #-32]	; 0xffffffe0
            for (; n >= 19; s += 16, d += 16, n -= 16) {
   122ac:	ea000037 	b	12390 <__sel4runtime_memcpy+0x61c>
                x = *(u32 *)(s + 3);
   122b0:	e51b300c 	ldr	r3, [fp, #-12]
   122b4:	e2833003 	add	r3, r3, #3
   122b8:	e5933000 	ldr	r3, [r3]
   122bc:	e50b3014 	str	r3, [fp, #-20]	; 0xffffffec
                *(u32 *)(d + 0) = (w LS 8) | (x RS 24);
   122c0:	e51b3010 	ldr	r3, [fp, #-16]
   122c4:	e1a02423 	lsr	r2, r3, #8
   122c8:	e51b3014 	ldr	r3, [fp, #-20]	; 0xffffffec
   122cc:	e1a03c03 	lsl	r3, r3, #24
   122d0:	e1822003 	orr	r2, r2, r3
   122d4:	e51b3008 	ldr	r3, [fp, #-8]
   122d8:	e5832000 	str	r2, [r3]
                w = *(u32 *)(s + 7);
   122dc:	e51b300c 	ldr	r3, [fp, #-12]
   122e0:	e2833007 	add	r3, r3, #7
   122e4:	e5933000 	ldr	r3, [r3]
   122e8:	e50b3010 	str	r3, [fp, #-16]
                *(u32 *)(d + 4) = (x LS 8) | (w RS 24);
   122ec:	e51b3014 	ldr	r3, [fp, #-20]	; 0xffffffec
   122f0:	e1a01423 	lsr	r1, r3, #8
   122f4:	e51b3010 	ldr	r3, [fp, #-16]
   122f8:	e1a02c03 	lsl	r2, r3, #24
   122fc:	e51b3008 	ldr	r3, [fp, #-8]
   12300:	e2833004 	add	r3, r3, #4
   12304:	e1812002 	orr	r2, r1, r2
   12308:	e5832000 	str	r2, [r3]
                x = *(u32 *)(s + 11);
   1230c:	e51b300c 	ldr	r3, [fp, #-12]
   12310:	e283300b 	add	r3, r3, #11
   12314:	e5933000 	ldr	r3, [r3]
   12318:	e50b3014 	str	r3, [fp, #-20]	; 0xffffffec
                *(u32 *)(d + 8) = (w LS 8) | (x RS 24);
   1231c:	e51b3010 	ldr	r3, [fp, #-16]
   12320:	e1a01423 	lsr	r1, r3, #8
   12324:	e51b3014 	ldr	r3, [fp, #-20]	; 0xffffffec
   12328:	e1a02c03 	lsl	r2, r3, #24
   1232c:	e51b3008 	ldr	r3, [fp, #-8]
   12330:	e2833008 	add	r3, r3, #8
   12334:	e1812002 	orr	r2, r1, r2
   12338:	e5832000 	str	r2, [r3]
                w = *(u32 *)(s + 15);
   1233c:	e51b300c 	ldr	r3, [fp, #-12]
   12340:	e283300f 	add	r3, r3, #15
   12344:	e5933000 	ldr	r3, [r3]
   12348:	e50b3010 	str	r3, [fp, #-16]
                *(u32 *)(d + 12) = (x LS 8) | (w RS 24);
   1234c:	e51b3014 	ldr	r3, [fp, #-20]	; 0xffffffec
   12350:	e1a01423 	lsr	r1, r3, #8
   12354:	e51b3010 	ldr	r3, [fp, #-16]
   12358:	e1a02c03 	lsl	r2, r3, #24
   1235c:	e51b3008 	ldr	r3, [fp, #-8]
   12360:	e283300c 	add	r3, r3, #12
   12364:	e1812002 	orr	r2, r1, r2
   12368:	e5832000 	str	r2, [r3]
            for (; n >= 19; s += 16, d += 16, n -= 16) {
   1236c:	e51b300c 	ldr	r3, [fp, #-12]
   12370:	e2833010 	add	r3, r3, #16
   12374:	e50b300c 	str	r3, [fp, #-12]
   12378:	e51b3008 	ldr	r3, [fp, #-8]
   1237c:	e2833010 	add	r3, r3, #16
   12380:	e50b3008 	str	r3, [fp, #-8]
   12384:	e51b3020 	ldr	r3, [fp, #-32]	; 0xffffffe0
   12388:	e2433010 	sub	r3, r3, #16
   1238c:	e50b3020 	str	r3, [fp, #-32]	; 0xffffffe0
   12390:	e51b3020 	ldr	r3, [fp, #-32]	; 0xffffffe0
   12394:	e3530012 	cmp	r3, #18
   12398:	8affffc4 	bhi	122b0 <__sel4runtime_memcpy+0x53c>
            }
            break;
   1239c:	ea000000 	b	123a4 <__sel4runtime_memcpy+0x630>
        }
    if (n & 16) {
   123a0:	e320f000 	nop	{0}
   123a4:	e51b3020 	ldr	r3, [fp, #-32]	; 0xffffffe0
   123a8:	e2033010 	and	r3, r3, #16
   123ac:	e3530000 	cmp	r3, #0
   123b0:	0a00007f 	beq	125b4 <__sel4runtime_memcpy+0x840>
        *d++ = *s++;
   123b4:	e51b200c 	ldr	r2, [fp, #-12]
   123b8:	e2823001 	add	r3, r2, #1
   123bc:	e50b300c 	str	r3, [fp, #-12]
   123c0:	e51b3008 	ldr	r3, [fp, #-8]
   123c4:	e2831001 	add	r1, r3, #1
   123c8:	e50b1008 	str	r1, [fp, #-8]
   123cc:	e5d22000 	ldrb	r2, [r2]
   123d0:	e5c32000 	strb	r2, [r3]
        *d++ = *s++;
   123d4:	e51b200c 	ldr	r2, [fp, #-12]
   123d8:	e2823001 	add	r3, r2, #1
   123dc:	e50b300c 	str	r3, [fp, #-12]
   123e0:	e51b3008 	ldr	r3, [fp, #-8]
   123e4:	e2831001 	add	r1, r3, #1
   123e8:	e50b1008 	str	r1, [fp, #-8]
   123ec:	e5d22000 	ldrb	r2, [r2]
   123f0:	e5c32000 	strb	r2, [r3]
        *d++ = *s++;
   123f4:	e51b200c 	ldr	r2, [fp, #-12]
   123f8:	e2823001 	add	r3, r2, #1
   123fc:	e50b300c 	str	r3, [fp, #-12]
   12400:	e51b3008 	ldr	r3, [fp, #-8]
   12404:	e2831001 	add	r1, r3, #1
   12408:	e50b1008 	str	r1, [fp, #-8]
   1240c:	e5d22000 	ldrb	r2, [r2]
   12410:	e5c32000 	strb	r2, [r3]
        *d++ = *s++;
   12414:	e51b200c 	ldr	r2, [fp, #-12]
   12418:	e2823001 	add	r3, r2, #1
   1241c:	e50b300c 	str	r3, [fp, #-12]
   12420:	e51b3008 	ldr	r3, [fp, #-8]
   12424:	e2831001 	add	r1, r3, #1
   12428:	e50b1008 	str	r1, [fp, #-8]
   1242c:	e5d22000 	ldrb	r2, [r2]
   12430:	e5c32000 	strb	r2, [r3]
        *d++ = *s++;
   12434:	e51b200c 	ldr	r2, [fp, #-12]
   12438:	e2823001 	add	r3, r2, #1
   1243c:	e50b300c 	str	r3, [fp, #-12]
   12440:	e51b3008 	ldr	r3, [fp, #-8]
   12444:	e2831001 	add	r1, r3, #1
   12448:	e50b1008 	str	r1, [fp, #-8]
   1244c:	e5d22000 	ldrb	r2, [r2]
   12450:	e5c32000 	strb	r2, [r3]
        *d++ = *s++;
   12454:	e51b200c 	ldr	r2, [fp, #-12]
   12458:	e2823001 	add	r3, r2, #1
   1245c:	e50b300c 	str	r3, [fp, #-12]
   12460:	e51b3008 	ldr	r3, [fp, #-8]
   12464:	e2831001 	add	r1, r3, #1
   12468:	e50b1008 	str	r1, [fp, #-8]
   1246c:	e5d22000 	ldrb	r2, [r2]
   12470:	e5c32000 	strb	r2, [r3]
        *d++ = *s++;
   12474:	e51b200c 	ldr	r2, [fp, #-12]
   12478:	e2823001 	add	r3, r2, #1
   1247c:	e50b300c 	str	r3, [fp, #-12]
   12480:	e51b3008 	ldr	r3, [fp, #-8]
   12484:	e2831001 	add	r1, r3, #1
   12488:	e50b1008 	str	r1, [fp, #-8]
   1248c:	e5d22000 	ldrb	r2, [r2]
   12490:	e5c32000 	strb	r2, [r3]
        *d++ = *s++;
   12494:	e51b200c 	ldr	r2, [fp, #-12]
   12498:	e2823001 	add	r3, r2, #1
   1249c:	e50b300c 	str	r3, [fp, #-12]
   124a0:	e51b3008 	ldr	r3, [fp, #-8]
   124a4:	e2831001 	add	r1, r3, #1
   124a8:	e50b1008 	str	r1, [fp, #-8]
   124ac:	e5d22000 	ldrb	r2, [r2]
   124b0:	e5c32000 	strb	r2, [r3]
        *d++ = *s++;
   124b4:	e51b200c 	ldr	r2, [fp, #-12]
   124b8:	e2823001 	add	r3, r2, #1
   124bc:	e50b300c 	str	r3, [fp, #-12]
   124c0:	e51b3008 	ldr	r3, [fp, #-8]
   124c4:	e2831001 	add	r1, r3, #1
   124c8:	e50b1008 	str	r1, [fp, #-8]
   124cc:	e5d22000 	ldrb	r2, [r2]
   124d0:	e5c32000 	strb	r2, [r3]
        *d++ = *s++;
   124d4:	e51b200c 	ldr	r2, [fp, #-12]
   124d8:	e2823001 	add	r3, r2, #1
   124dc:	e50b300c 	str	r3, [fp, #-12]
   124e0:	e51b3008 	ldr	r3, [fp, #-8]
   124e4:	e2831001 	add	r1, r3, #1
   124e8:	e50b1008 	str	r1, [fp, #-8]
   124ec:	e5d22000 	ldrb	r2, [r2]
   124f0:	e5c32000 	strb	r2, [r3]
        *d++ = *s++;
   124f4:	e51b200c 	ldr	r2, [fp, #-12]
   124f8:	e2823001 	add	r3, r2, #1
   124fc:	e50b300c 	str	r3, [fp, #-12]
   12500:	e51b3008 	ldr	r3, [fp, #-8]
   12504:	e2831001 	add	r1, r3, #1
   12508:	e50b1008 	str	r1, [fp, #-8]
   1250c:	e5d22000 	ldrb	r2, [r2]
   12510:	e5c32000 	strb	r2, [r3]
        *d++ = *s++;
   12514:	e51b200c 	ldr	r2, [fp, #-12]
   12518:	e2823001 	add	r3, r2, #1
   1251c:	e50b300c 	str	r3, [fp, #-12]
   12520:	e51b3008 	ldr	r3, [fp, #-8]
   12524:	e2831001 	add	r1, r3, #1
   12528:	e50b1008 	str	r1, [fp, #-8]
   1252c:	e5d22000 	ldrb	r2, [r2]
   12530:	e5c32000 	strb	r2, [r3]
        *d++ = *s++;
   12534:	e51b200c 	ldr	r2, [fp, #-12]
   12538:	e2823001 	add	r3, r2, #1
   1253c:	e50b300c 	str	r3, [fp, #-12]
   12540:	e51b3008 	ldr	r3, [fp, #-8]
   12544:	e2831001 	add	r1, r3, #1
   12548:	e50b1008 	str	r1, [fp, #-8]
   1254c:	e5d22000 	ldrb	r2, [r2]
   12550:	e5c32000 	strb	r2, [r3]
        *d++ = *s++;
   12554:	e51b200c 	ldr	r2, [fp, #-12]
   12558:	e2823001 	add	r3, r2, #1
   1255c:	e50b300c 	str	r3, [fp, #-12]
   12560:	e51b3008 	ldr	r3, [fp, #-8]
   12564:	e2831001 	add	r1, r3, #1
   12568:	e50b1008 	str	r1, [fp, #-8]
   1256c:	e5d22000 	ldrb	r2, [r2]
   12570:	e5c32000 	strb	r2, [r3]
        *d++ = *s++;
   12574:	e51b200c 	ldr	r2, [fp, #-12]
   12578:	e2823001 	add	r3, r2, #1
   1257c:	e50b300c 	str	r3, [fp, #-12]
   12580:	e51b3008 	ldr	r3, [fp, #-8]
   12584:	e2831001 	add	r1, r3, #1
   12588:	e50b1008 	str	r1, [fp, #-8]
   1258c:	e5d22000 	ldrb	r2, [r2]
   12590:	e5c32000 	strb	r2, [r3]
        *d++ = *s++;
   12594:	e51b200c 	ldr	r2, [fp, #-12]
   12598:	e2823001 	add	r3, r2, #1
   1259c:	e50b300c 	str	r3, [fp, #-12]
   125a0:	e51b3008 	ldr	r3, [fp, #-8]
   125a4:	e2831001 	add	r1, r3, #1
   125a8:	e50b1008 	str	r1, [fp, #-8]
   125ac:	e5d22000 	ldrb	r2, [r2]
   125b0:	e5c32000 	strb	r2, [r3]
    }
    if (n & 8) {
   125b4:	e51b3020 	ldr	r3, [fp, #-32]	; 0xffffffe0
   125b8:	e2033008 	and	r3, r3, #8
   125bc:	e3530000 	cmp	r3, #0
   125c0:	0a00003f 	beq	126c4 <__sel4runtime_memcpy+0x950>
        *d++ = *s++;
   125c4:	e51b200c 	ldr	r2, [fp, #-12]
   125c8:	e2823001 	add	r3, r2, #1
   125cc:	e50b300c 	str	r3, [fp, #-12]
   125d0:	e51b3008 	ldr	r3, [fp, #-8]
   125d4:	e2831001 	add	r1, r3, #1
   125d8:	e50b1008 	str	r1, [fp, #-8]
   125dc:	e5d22000 	ldrb	r2, [r2]
   125e0:	e5c32000 	strb	r2, [r3]
        *d++ = *s++;
   125e4:	e51b200c 	ldr	r2, [fp, #-12]
   125e8:	e2823001 	add	r3, r2, #1
   125ec:	e50b300c 	str	r3, [fp, #-12]
   125f0:	e51b3008 	ldr	r3, [fp, #-8]
   125f4:	e2831001 	add	r1, r3, #1
   125f8:	e50b1008 	str	r1, [fp, #-8]
   125fc:	e5d22000 	ldrb	r2, [r2]
   12600:	e5c32000 	strb	r2, [r3]
        *d++ = *s++;
   12604:	e51b200c 	ldr	r2, [fp, #-12]
   12608:	e2823001 	add	r3, r2, #1
   1260c:	e50b300c 	str	r3, [fp, #-12]
   12610:	e51b3008 	ldr	r3, [fp, #-8]
   12614:	e2831001 	add	r1, r3, #1
   12618:	e50b1008 	str	r1, [fp, #-8]
   1261c:	e5d22000 	ldrb	r2, [r2]
   12620:	e5c32000 	strb	r2, [r3]
        *d++ = *s++;
   12624:	e51b200c 	ldr	r2, [fp, #-12]
   12628:	e2823001 	add	r3, r2, #1
   1262c:	e50b300c 	str	r3, [fp, #-12]
   12630:	e51b3008 	ldr	r3, [fp, #-8]
   12634:	e2831001 	add	r1, r3, #1
   12638:	e50b1008 	str	r1, [fp, #-8]
   1263c:	e5d22000 	ldrb	r2, [r2]
   12640:	e5c32000 	strb	r2, [r3]
        *d++ = *s++;
   12644:	e51b200c 	ldr	r2, [fp, #-12]
   12648:	e2823001 	add	r3, r2, #1
   1264c:	e50b300c 	str	r3, [fp, #-12]
   12650:	e51b3008 	ldr	r3, [fp, #-8]
   12654:	e2831001 	add	r1, r3, #1
   12658:	e50b1008 	str	r1, [fp, #-8]
   1265c:	e5d22000 	ldrb	r2, [r2]
   12660:	e5c32000 	strb	r2, [r3]
        *d++ = *s++;
   12664:	e51b200c 	ldr	r2, [fp, #-12]
   12668:	e2823001 	add	r3, r2, #1
   1266c:	e50b300c 	str	r3, [fp, #-12]
   12670:	e51b3008 	ldr	r3, [fp, #-8]
   12674:	e2831001 	add	r1, r3, #1
   12678:	e50b1008 	str	r1, [fp, #-8]
   1267c:	e5d22000 	ldrb	r2, [r2]
   12680:	e5c32000 	strb	r2, [r3]
        *d++ = *s++;
   12684:	e51b200c 	ldr	r2, [fp, #-12]
   12688:	e2823001 	add	r3, r2, #1
   1268c:	e50b300c 	str	r3, [fp, #-12]
   12690:	e51b3008 	ldr	r3, [fp, #-8]
   12694:	e2831001 	add	r1, r3, #1
   12698:	e50b1008 	str	r1, [fp, #-8]
   1269c:	e5d22000 	ldrb	r2, [r2]
   126a0:	e5c32000 	strb	r2, [r3]
        *d++ = *s++;
   126a4:	e51b200c 	ldr	r2, [fp, #-12]
   126a8:	e2823001 	add	r3, r2, #1
   126ac:	e50b300c 	str	r3, [fp, #-12]
   126b0:	e51b3008 	ldr	r3, [fp, #-8]
   126b4:	e2831001 	add	r1, r3, #1
   126b8:	e50b1008 	str	r1, [fp, #-8]
   126bc:	e5d22000 	ldrb	r2, [r2]
   126c0:	e5c32000 	strb	r2, [r3]
    }
    if (n & 4) {
   126c4:	e51b3020 	ldr	r3, [fp, #-32]	; 0xffffffe0
   126c8:	e2033004 	and	r3, r3, #4
   126cc:	e3530000 	cmp	r3, #0
   126d0:	0a00001f 	beq	12754 <__sel4runtime_memcpy+0x9e0>
        *d++ = *s++;
   126d4:	e51b200c 	ldr	r2, [fp, #-12]
   126d8:	e2823001 	add	r3, r2, #1
   126dc:	e50b300c 	str	r3, [fp, #-12]
   126e0:	e51b3008 	ldr	r3, [fp, #-8]
   126e4:	e2831001 	add	r1, r3, #1
   126e8:	e50b1008 	str	r1, [fp, #-8]
   126ec:	e5d22000 	ldrb	r2, [r2]
   126f0:	e5c32000 	strb	r2, [r3]
        *d++ = *s++;
   126f4:	e51b200c 	ldr	r2, [fp, #-12]
   126f8:	e2823001 	add	r3, r2, #1
   126fc:	e50b300c 	str	r3, [fp, #-12]
   12700:	e51b3008 	ldr	r3, [fp, #-8]
   12704:	e2831001 	add	r1, r3, #1
   12708:	e50b1008 	str	r1, [fp, #-8]
   1270c:	e5d22000 	ldrb	r2, [r2]
   12710:	e5c32000 	strb	r2, [r3]
        *d++ = *s++;
   12714:	e51b200c 	ldr	r2, [fp, #-12]
   12718:	e2823001 	add	r3, r2, #1
   1271c:	e50b300c 	str	r3, [fp, #-12]
   12720:	e51b3008 	ldr	r3, [fp, #-8]
   12724:	e2831001 	add	r1, r3, #1
   12728:	e50b1008 	str	r1, [fp, #-8]
   1272c:	e5d22000 	ldrb	r2, [r2]
   12730:	e5c32000 	strb	r2, [r3]
        *d++ = *s++;
   12734:	e51b200c 	ldr	r2, [fp, #-12]
   12738:	e2823001 	add	r3, r2, #1
   1273c:	e50b300c 	str	r3, [fp, #-12]
   12740:	e51b3008 	ldr	r3, [fp, #-8]
   12744:	e2831001 	add	r1, r3, #1
   12748:	e50b1008 	str	r1, [fp, #-8]
   1274c:	e5d22000 	ldrb	r2, [r2]
   12750:	e5c32000 	strb	r2, [r3]
    }
    if (n & 2) {
   12754:	e51b3020 	ldr	r3, [fp, #-32]	; 0xffffffe0
   12758:	e2033002 	and	r3, r3, #2
   1275c:	e3530000 	cmp	r3, #0
   12760:	0a00000f 	beq	127a4 <__sel4runtime_memcpy+0xa30>
        *d++ = *s++;
   12764:	e51b200c 	ldr	r2, [fp, #-12]
   12768:	e2823001 	add	r3, r2, #1
   1276c:	e50b300c 	str	r3, [fp, #-12]
   12770:	e51b3008 	ldr	r3, [fp, #-8]
   12774:	e2831001 	add	r1, r3, #1
   12778:	e50b1008 	str	r1, [fp, #-8]
   1277c:	e5d22000 	ldrb	r2, [r2]
   12780:	e5c32000 	strb	r2, [r3]
        *d++ = *s++;
   12784:	e51b200c 	ldr	r2, [fp, #-12]
   12788:	e2823001 	add	r3, r2, #1
   1278c:	e50b300c 	str	r3, [fp, #-12]
   12790:	e51b3008 	ldr	r3, [fp, #-8]
   12794:	e2831001 	add	r1, r3, #1
   12798:	e50b1008 	str	r1, [fp, #-8]
   1279c:	e5d22000 	ldrb	r2, [r2]
   127a0:	e5c32000 	strb	r2, [r3]
    }
    if (n & 1) {
   127a4:	e51b3020 	ldr	r3, [fp, #-32]	; 0xffffffe0
   127a8:	e2033001 	and	r3, r3, #1
   127ac:	e3530000 	cmp	r3, #0
   127b0:	0a000003 	beq	127c4 <__sel4runtime_memcpy+0xa50>
        *d = *s;
   127b4:	e51b300c 	ldr	r3, [fp, #-12]
   127b8:	e5d32000 	ldrb	r2, [r3]
   127bc:	e51b3008 	ldr	r3, [fp, #-8]
   127c0:	e5c32000 	strb	r2, [r3]
    }
    return dest;
   127c4:	e51b3018 	ldr	r3, [fp, #-24]	; 0xffffffe8

    for (; n; n--) {
        *d++ = *s++;
    }
    return dest;
}
   127c8:	e1a00003 	mov	r0, r3
   127cc:	e28bd000 	add	sp, fp, #0
   127d0:	e49db004 	pop	{fp}		; (ldr fp, [sp], #4)
   127d4:	e12fff1e 	bx	lr

000127d8 <__sel4runtime_vsyscall>:
 * SPDX-License-Identifier: BSD-2-Clause
 */

/* If no vsyscall implementation is provided, this dummy one is used. */
long __sel4runtime_vsyscall(long sysnum, ...)
{
   127d8:	e92d000f 	push	{r0, r1, r2, r3}
   127dc:	e52db004 	push	{fp}		; (str fp, [sp, #-4]!)
   127e0:	e28db000 	add	fp, sp, #0
    return -1;
   127e4:	e3e03000 	mvn	r3, #0
}
   127e8:	e1a00003 	mov	r0, r3
   127ec:	e28bd000 	add	sp, fp, #0
   127f0:	e49db004 	pop	{fp}		; (ldr fp, [sp], #4)
   127f4:	e28dd010 	add	sp, sp, #16
   127f8:	e12fff1e 	bx	lr

000127fc <__aeabi_read_tp>:
 */
.syntax unified
.global __aeabi_read_tp
.type __aeabi_read_tp,%function
__aeabi_read_tp:
	push {r1,r2,r3,lr}
   127fc:	e92d400e 	push	{r1, r2, r3, lr}
	bl __aeabi_read_tp_c
   12800:	eb000011 	bl	1284c <__aeabi_read_tp_c>
	pop {r1,r2,r3,lr}
   12804:	e8bd400e 	pop	{r1, r2, r3, lr}
	bx lr
   12808:	e12fff1e 	bx	lr

0001280c <sel4runtime_read_tpidr_el0>:
{
   1280c:	e52db004 	push	{fp}		; (str fp, [sp, #-4]!)
   12810:	e28db000 	add	fp, sp, #0
   12814:	e24dd00c 	sub	sp, sp, #12
    __asm__ __volatile__("mrc p15,0,%0,c13,c0,2" : "=r"(reg));
   12818:	ee1d3f50 	mrc	15, 0, r3, cr13, cr0, {2}
   1281c:	e50b3008 	str	r3, [fp, #-8]
    return reg;
   12820:	e51b3008 	ldr	r3, [fp, #-8]
}
   12824:	e1a00003 	mov	r0, r3
   12828:	e28bd000 	add	sp, fp, #0
   1282c:	e49db004 	pop	{fp}		; (ldr fp, [sp], #4)
   12830:	e12fff1e 	bx	lr

00012834 <sel4runtime_get_tls_base>:
{
   12834:	e92d4800 	push	{fp, lr}
   12838:	e28db004 	add	fp, sp, #4
    return sel4runtime_read_tpidr_el0();
   1283c:	ebfffff2 	bl	1280c <sel4runtime_read_tpidr_el0>
   12840:	e1a03000 	mov	r3, r0
}
   12844:	e1a00003 	mov	r0, r3
   12848:	e8bd8800 	pop	{fp, pc}

0001284c <__aeabi_read_tp_c>:
#include <sel4/sel4.h>
#include <sel4runtime/thread_arch.h>

__attribute__((__visibility__("hidden")))
void *__aeabi_read_tp_c(void)
{
   1284c:	e92d4800 	push	{fp, lr}
   12850:	e28db004 	add	fp, sp, #4
    return (void *)sel4runtime_get_tls_base();
   12854:	ebfffff6 	bl	12834 <sel4runtime_get_tls_base>
   12858:	e1a03000 	mov	r3, r0
}
   1285c:	e1a00003 	mov	r0, r3
   12860:	e8bd8800 	pop	{fp, pc}

00012864 <__sel4runtime_start_main>:
    unsigned long argc,
    char const *const *argv,
    char const *const *envp,
    auxv_t const auxv[]
)
{
   12864:	e92d4800 	push	{fp, lr}
   12868:	e28db004 	add	fp, sp, #4
   1286c:	e24dd010 	sub	sp, sp, #16
   12870:	e50b0008 	str	r0, [fp, #-8]
   12874:	e50b100c 	str	r1, [fp, #-12]
   12878:	e50b2010 	str	r2, [fp, #-16]
   1287c:	e50b3014 	str	r3, [fp, #-20]	; 0xffffffec
    __sel4runtime_load_env(argc, argv, envp, auxv);
   12880:	e51b000c 	ldr	r0, [fp, #-12]
   12884:	e59b3004 	ldr	r3, [fp, #4]
   12888:	e51b2014 	ldr	r2, [fp, #-20]	; 0xffffffec
   1288c:	e51b1010 	ldr	r1, [fp, #-16]
   12890:	ebfff9d3 	bl	10fe4 <__sel4runtime_load_env>

    sel4runtime_exit(main(argc, argv, envp));
   12894:	e51b3008 	ldr	r3, [fp, #-8]
   12898:	e51b2014 	ldr	r2, [fp, #-20]	; 0xffffffec
   1289c:	e51b1010 	ldr	r1, [fp, #-16]
   128a0:	e51b000c 	ldr	r0, [fp, #-12]
   128a4:	e12fff33 	blx	r3
   128a8:	e1a03000 	mov	r3, r0
   128ac:	e1a00003 	mov	r0, r3
   128b0:	ebfff984 	bl	10ec8 <sel4runtime_exit>
}
   128b4:	e320f000 	nop	{0}
   128b8:	e24bd004 	sub	sp, fp, #4
   128bc:	e8bd8800 	pop	{fp, pc}

000128c0 <__assert_fail>:
   128c0:	e92d4007 	push	{r0, r1, r2, lr}
   128c4:	e58d2004 	str	r2, [sp, #4]
   128c8:	e1a02000 	mov	r2, r0
   128cc:	e59f001c 	ldr	r0, [pc, #28]	; 128f0 <__assert_fail+0x30>
   128d0:	e58d3000 	str	r3, [sp]
   128d4:	e1a03001 	mov	r3, r1
   128d8:	e59f1014 	ldr	r1, [pc, #20]	; 128f4 <__assert_fail+0x34>
   128dc:	e5900000 	ldr	r0, [r0]
   128e0:	eb00004e 	bl	12a20 <fprintf>
   128e4:	e3a00000 	mov	r0, #0
   128e8:	eb000002 	bl	128f8 <fflush>
   128ec:	eb00085e 	bl	14a6c <abort>
   128f0:	00016440 	andeq	r6, r1, r0, asr #8
   128f4:	0001641b 	andeq	r6, r1, fp, lsl r4

000128f8 <fflush>:
   128f8:	e92d4073 	push	{r0, r1, r4, r5, r6, lr}
   128fc:	e2504000 	subs	r4, r0, #0
   12900:	1a000017 	bne	12964 <fflush+0x6c>
   12904:	e59f3110 	ldr	r3, [pc, #272]	; 12a1c <fflush+0x124>
   12908:	e5930000 	ldr	r0, [r3]
   1290c:	e3500000 	cmp	r0, #0
   12910:	0a000001 	beq	1291c <fflush+0x24>
   12914:	e5930000 	ldr	r0, [r3]
   12918:	ebfffff6 	bl	128f8 <fflush>
   1291c:	e1a06000 	mov	r6, r0
   12920:	eb000048 	bl	12a48 <__ofl_lock>
   12924:	e5904000 	ldr	r4, [r0]
   12928:	e3540000 	cmp	r4, #0
   1292c:	1a000003 	bne	12940 <fflush+0x48>
   12930:	eb00004b 	bl	12a64 <__ofl_unlock>
   12934:	e1a00006 	mov	r0, r6
   12938:	e28dd008 	add	sp, sp, #8
   1293c:	e8bd8070 	pop	{r4, r5, r6, pc}
   12940:	e5942014 	ldr	r2, [r4, #20]
   12944:	e594301c 	ldr	r3, [r4, #28]
   12948:	e1520003 	cmp	r2, r3
   1294c:	9a000002 	bls	1295c <fflush+0x64>
   12950:	e1a00004 	mov	r0, r4
   12954:	ebffffe7 	bl	128f8 <fflush>
   12958:	e1866000 	orr	r6, r6, r0
   1295c:	e5944038 	ldr	r4, [r4, #56]	; 0x38
   12960:	eafffff0 	b	12928 <fflush+0x30>
   12964:	e594304c 	ldr	r3, [r4, #76]	; 0x4c
   12968:	e3530000 	cmp	r3, #0
   1296c:	b3a06000 	movlt	r6, #0
   12970:	ba000001 	blt	1297c <fflush+0x84>
   12974:	eb00088c 	bl	14bac <__lockfile>
   12978:	e1a06000 	mov	r6, r0
   1297c:	e5942014 	ldr	r2, [r4, #20]
   12980:	e594301c 	ldr	r3, [r4, #28]
   12984:	e1520003 	cmp	r2, r3
   12988:	9a00000d 	bls	129c4 <fflush+0xcc>
   1298c:	e3a02000 	mov	r2, #0
   12990:	e5943024 	ldr	r3, [r4, #36]	; 0x24
   12994:	e1a01002 	mov	r1, r2
   12998:	e1a00004 	mov	r0, r4
   1299c:	e12fff33 	blx	r3
   129a0:	e5943014 	ldr	r3, [r4, #20]
   129a4:	e3530000 	cmp	r3, #0
   129a8:	1a000005 	bne	129c4 <fflush+0xcc>
   129ac:	e3560000 	cmp	r6, #0
   129b0:	0a000001 	beq	129bc <fflush+0xc4>
   129b4:	e1a00004 	mov	r0, r4
   129b8:	eb000896 	bl	14c18 <__unlockfile>
   129bc:	e3e06000 	mvn	r6, #0
   129c0:	eaffffdb 	b	12934 <fflush+0x3c>
   129c4:	e994000c 	ldmib	r4, {r2, r3}
   129c8:	e1520003 	cmp	r2, r3
   129cc:	2a000006 	bcs	129ec <fflush+0xf4>
   129d0:	e0422003 	sub	r2, r2, r3
   129d4:	e1a00004 	mov	r0, r4
   129d8:	e3a03001 	mov	r3, #1
   129dc:	e58d3000 	str	r3, [sp]
   129e0:	e1a03fc2 	asr	r3, r2, #31
   129e4:	e5941028 	ldr	r1, [r4, #40]	; 0x28
   129e8:	e12fff31 	blx	r1
   129ec:	e3a05000 	mov	r5, #0
   129f0:	e1560005 	cmp	r6, r5
   129f4:	e5845010 	str	r5, [r4, #16]
   129f8:	e584501c 	str	r5, [r4, #28]
   129fc:	e5845014 	str	r5, [r4, #20]
   12a00:	e5845008 	str	r5, [r4, #8]
   12a04:	e5845004 	str	r5, [r4, #4]
   12a08:	0affffc9 	beq	12934 <fflush+0x3c>
   12a0c:	e1a00004 	mov	r0, r4
   12a10:	e1a06005 	mov	r6, r5
   12a14:	eb00087f 	bl	14c18 <__unlockfile>
   12a18:	eaffffc5 	b	12934 <fflush+0x3c>
   12a1c:	00028050 	andeq	r8, r2, r0, asr r0

00012a20 <fprintf>:
   12a20:	e92d000e 	push	{r1, r2, r3}
   12a24:	e92d4003 	push	{r0, r1, lr}
   12a28:	e28d2010 	add	r2, sp, #16
   12a2c:	e59d100c 	ldr	r1, [sp, #12]
   12a30:	e58d2004 	str	r2, [sp, #4]
   12a34:	eb0006e3 	bl	145c8 <vfprintf>
   12a38:	e28dd008 	add	sp, sp, #8
   12a3c:	e49de004 	pop	{lr}		; (ldr lr, [sp], #4)
   12a40:	e28dd00c 	add	sp, sp, #12
   12a44:	e12fff1e 	bx	lr

00012a48 <__ofl_lock>:
   12a48:	e59f000c 	ldr	r0, [pc, #12]	; 12a5c <__ofl_lock+0x14>
   12a4c:	e92d4010 	push	{r4, lr}
   12a50:	eb000779 	bl	1483c <__lock>
   12a54:	e59f0004 	ldr	r0, [pc, #4]	; 12a60 <__ofl_lock+0x18>
   12a58:	e8bd8010 	pop	{r4, pc}
   12a5c:	00028058 	andeq	r8, r2, r8, asr r0
   12a60:	00028054 	andeq	r8, r2, r4, asr r0

00012a64 <__ofl_unlock>:
   12a64:	e59f0000 	ldr	r0, [pc]	; 12a6c <__ofl_unlock+0x8>
   12a68:	ea00078a 	b	14898 <__unlock>
   12a6c:	00028058 	andeq	r8, r2, r8, asr r0

00012a70 <fmt_u>:
   12a70:	e92d4370 	push	{r4, r5, r6, r8, r9, lr}
   12a74:	e1a04000 	mov	r4, r0
   12a78:	e1a05001 	mov	r5, r1
   12a7c:	e1a06002 	mov	r6, r2
   12a80:	e3e08000 	mvn	r8, #0
   12a84:	e3a09000 	mov	r9, #0
   12a88:	e1550009 	cmp	r5, r9
   12a8c:	01540008 	cmpeq	r4, r8
   12a90:	8a000005 	bhi	12aac <fmt_u+0x3c>
   12a94:	e59f2068 	ldr	r2, [pc, #104]	; 12b04 <fmt_u+0x94>
   12a98:	e3a0100a 	mov	r1, #10
   12a9c:	e3540000 	cmp	r4, #0
   12aa0:	1a000010 	bne	12ae8 <fmt_u+0x78>
   12aa4:	e1a00006 	mov	r0, r6
   12aa8:	e8bd8370 	pop	{r4, r5, r6, r8, r9, pc}
   12aac:	e1a00004 	mov	r0, r4
   12ab0:	e1a01005 	mov	r1, r5
   12ab4:	e3a0200a 	mov	r2, #10
   12ab8:	e3a03000 	mov	r3, #0
   12abc:	eb000d36 	bl	15f9c <__aeabi_uldivmod>
   12ac0:	e1a00004 	mov	r0, r4
   12ac4:	e1a01005 	mov	r1, r5
   12ac8:	e3a03000 	mov	r3, #0
   12acc:	e2822030 	add	r2, r2, #48	; 0x30
   12ad0:	e5662001 	strb	r2, [r6, #-1]!
   12ad4:	e3a0200a 	mov	r2, #10
   12ad8:	eb000d2f 	bl	15f9c <__aeabi_uldivmod>
   12adc:	e1a04000 	mov	r4, r0
   12ae0:	e1a05001 	mov	r5, r1
   12ae4:	eaffffe7 	b	12a88 <fmt_u+0x18>
   12ae8:	e0898294 	umull	r8, r9, r4, r2
   12aec:	e1a031a9 	lsr	r3, r9, #3
   12af0:	e0644391 	mls	r4, r1, r3, r4
   12af4:	e2844030 	add	r4, r4, #48	; 0x30
   12af8:	e5664001 	strb	r4, [r6, #-1]!
   12afc:	e1a04003 	mov	r4, r3
   12b00:	eaffffe5 	b	12a9c <fmt_u+0x2c>
   12b04:	cccccccd 	stclgt	12, cr12, [ip], {205}	; 0xcd

00012b08 <getint>:
   12b08:	e92d4030 	push	{r4, r5, lr}
   12b0c:	e1a01000 	mov	r1, r0
   12b10:	e59fe048 	ldr	lr, [pc, #72]	; 12b60 <getint+0x58>
   12b14:	e3a00000 	mov	r0, #0
   12b18:	e3e04009 	mvn	r4, #9
   12b1c:	e3a0500a 	mov	r5, #10
   12b20:	e5912000 	ldr	r2, [r1]
   12b24:	e5d23000 	ldrb	r3, [r2]
   12b28:	e2433030 	sub	r3, r3, #48	; 0x30
   12b2c:	e3530009 	cmp	r3, #9
   12b30:	88bd8030 	pophi	{r4, r5, pc}
   12b34:	e150000e 	cmp	r0, lr
   12b38:	8a000004 	bhi	12b50 <getint+0x48>
   12b3c:	e00c0094 	mul	ip, r4, r0
   12b40:	e24cc106 	sub	ip, ip, #-2147483647	; 0x80000001
   12b44:	e153000c 	cmp	r3, ip
   12b48:	d0203095 	mlale	r0, r5, r0, r3
   12b4c:	da000000 	ble	12b54 <getint+0x4c>
   12b50:	e3e00000 	mvn	r0, #0
   12b54:	e2822001 	add	r2, r2, #1
   12b58:	e5812000 	str	r2, [r1]
   12b5c:	eaffffef 	b	12b20 <getint+0x18>
   12b60:	0ccccccc 	stcleq	12, cr12, [ip], {204}	; 0xcc

00012b64 <out>:
   12b64:	e1a03000 	mov	r3, r0
   12b68:	e1a00001 	mov	r0, r1
   12b6c:	e1a01002 	mov	r1, r2
   12b70:	e5932000 	ldr	r2, [r3]
   12b74:	e3120020 	tst	r2, #32
   12b78:	112fff1e 	bxne	lr
   12b7c:	e1a02003 	mov	r2, r3
   12b80:	ea00089d 	b	14dfc <__fwritex>

00012b84 <pop_arg>:
   12b84:	e3510014 	cmp	r1, #20
   12b88:	812fff1e 	bxhi	lr
   12b8c:	e2411009 	sub	r1, r1, #9
   12b90:	e3510009 	cmp	r1, #9
   12b94:	979ff101 	ldrls	pc, [pc, r1, lsl #2]
   12b98:	ea000041 	b	12ca4 <pop_arg+0x120>
   12b9c:	00012bc4 	andeq	r2, r1, r4, asr #23
   12ba0:	00012bdc 	ldrdeq	r2, [r1], -ip
   12ba4:	00012bf4 	strdeq	r2, [r1], -r4
   12ba8:	00012c14 	andeq	r2, r1, r4, lsl ip
   12bac:	00012c34 	andeq	r2, r1, r4, lsr ip
   12bb0:	00012c48 	andeq	r2, r1, r8, asr #24
   12bb4:	00012c60 	andeq	r2, r1, r0, ror #24
   12bb8:	00012c74 	andeq	r2, r1, r4, ror ip
   12bbc:	00012c88 	andeq	r2, r1, r8, lsl #25
   12bc0:	00012c88 	andeq	r2, r1, r8, lsl #25
   12bc4:	e5923000 	ldr	r3, [r2]
   12bc8:	e2831004 	add	r1, r3, #4
   12bcc:	e5821000 	str	r1, [r2]
   12bd0:	e5933000 	ldr	r3, [r3]
   12bd4:	e5803000 	str	r3, [r0]
   12bd8:	e12fff1e 	bx	lr
   12bdc:	e5923000 	ldr	r3, [r2]
   12be0:	e2831004 	add	r1, r3, #4
   12be4:	e5821000 	str	r1, [r2]
   12be8:	e5932000 	ldr	r2, [r3]
   12bec:	e1a03fc2 	asr	r3, r2, #31
   12bf0:	ea00000d 	b	12c2c <pop_arg+0xa8>
   12bf4:	e5923000 	ldr	r3, [r2]
   12bf8:	e2831004 	add	r1, r3, #4
   12bfc:	e5821000 	str	r1, [r2]
   12c00:	e5933000 	ldr	r3, [r3]
   12c04:	e5803000 	str	r3, [r0]
   12c08:	e3a03000 	mov	r3, #0
   12c0c:	e5803004 	str	r3, [r0, #4]
   12c10:	e12fff1e 	bx	lr
   12c14:	e5923000 	ldr	r3, [r2]
   12c18:	e2833007 	add	r3, r3, #7
   12c1c:	e3c33007 	bic	r3, r3, #7
   12c20:	e2831008 	add	r1, r3, #8
   12c24:	e5821000 	str	r1, [r2]
   12c28:	e1c320d0 	ldrd	r2, [r3]
   12c2c:	e1c020f0 	strd	r2, [r0]
   12c30:	e12fff1e 	bx	lr
   12c34:	e5923000 	ldr	r3, [r2]
   12c38:	e2831004 	add	r1, r3, #4
   12c3c:	e5821000 	str	r1, [r2]
   12c40:	e1d320f0 	ldrsh	r2, [r3]
   12c44:	eaffffe8 	b	12bec <pop_arg+0x68>
   12c48:	e5923000 	ldr	r3, [r2]
   12c4c:	e2831004 	add	r1, r3, #4
   12c50:	e5821000 	str	r1, [r2]
   12c54:	e1d320b0 	ldrh	r2, [r3]
   12c58:	e3a03000 	mov	r3, #0
   12c5c:	eafffff2 	b	12c2c <pop_arg+0xa8>
   12c60:	e5923000 	ldr	r3, [r2]
   12c64:	e2831004 	add	r1, r3, #4
   12c68:	e5821000 	str	r1, [r2]
   12c6c:	e1d320d0 	ldrsb	r2, [r3]
   12c70:	eaffffdd 	b	12bec <pop_arg+0x68>
   12c74:	e5923000 	ldr	r3, [r2]
   12c78:	e2831004 	add	r1, r3, #4
   12c7c:	e5821000 	str	r1, [r2]
   12c80:	e5d32000 	ldrb	r2, [r3]
   12c84:	eafffff3 	b	12c58 <pop_arg+0xd4>
   12c88:	e5923000 	ldr	r3, [r2]
   12c8c:	e2833007 	add	r3, r3, #7
   12c90:	e3c33007 	bic	r3, r3, #7
   12c94:	e2831008 	add	r1, r3, #8
   12c98:	e5821000 	str	r1, [r2]
   12c9c:	e1c320d0 	ldrd	r2, [r3]
   12ca0:	e1c020f0 	strd	r2, [r0]
   12ca4:	e12fff1e 	bx	lr

00012ca8 <pad>:
   12ca8:	e92d4070 	push	{r4, r5, r6, lr}
   12cac:	e24ddc01 	sub	sp, sp, #256	; 0x100
   12cb0:	e1a05000 	mov	r5, r0
   12cb4:	e59d0110 	ldr	r0, [sp, #272]	; 0x110
   12cb8:	e3100a12 	tst	r0, #73728	; 0x12000
   12cbc:	13a00001 	movne	r0, #1
   12cc0:	03a00000 	moveq	r0, #0
   12cc4:	e1530002 	cmp	r3, r2
   12cc8:	a3800001 	orrge	r0, r0, #1
   12ccc:	e3500000 	cmp	r0, #0
   12cd0:	1a00000e 	bne	12d10 <pad+0x68>
   12cd4:	e0424003 	sub	r4, r2, r3
   12cd8:	e1a0000d 	mov	r0, sp
   12cdc:	e3540c01 	cmp	r4, #256	; 0x100
   12ce0:	e1a06004 	mov	r6, r4
   12ce4:	31a02004 	movcc	r2, r4
   12ce8:	23a02c01 	movcs	r2, #256	; 0x100
   12cec:	eb000686 	bl	1470c <memset>
   12cf0:	e35400ff 	cmp	r4, #255	; 0xff
   12cf4:	ca000007 	bgt	12d18 <pad+0x70>
   12cf8:	e1a03426 	lsr	r3, r6, #8
   12cfc:	e3e020ff 	mvn	r2, #255	; 0xff
   12d00:	e1a0100d 	mov	r1, sp
   12d04:	e1a00005 	mov	r0, r5
   12d08:	e0226392 	mla	r2, r2, r3, r6
   12d0c:	ebffff94 	bl	12b64 <out>
   12d10:	e28ddc01 	add	sp, sp, #256	; 0x100
   12d14:	e8bd8070 	pop	{r4, r5, r6, pc}
   12d18:	e3a02c01 	mov	r2, #256	; 0x100
   12d1c:	e1a0100d 	mov	r1, sp
   12d20:	e1a00005 	mov	r0, r5
   12d24:	e2444c01 	sub	r4, r4, #256	; 0x100
   12d28:	ebffff8d 	bl	12b64 <out>
   12d2c:	eaffffef 	b	12cf0 <pad+0x48>

00012d30 <printf_core>:
   12d30:	e92d4ff0 	push	{r4, r5, r6, r7, r8, r9, sl, fp, lr}
   12d34:	e24ddfb3 	sub	sp, sp, #716	; 0x2cc
   12d38:	e1a09000 	mov	r9, r0
   12d3c:	e3a08000 	mov	r8, #0
   12d40:	e58d202c 	str	r2, [sp, #44]	; 0x2c
   12d44:	e58d303c 	str	r3, [sp, #60]	; 0x3c
   12d48:	e58d1064 	str	r1, [sp, #100]	; 0x64
   12d4c:	e58d8018 	str	r8, [sp, #24]
   12d50:	e58d8020 	str	r8, [sp, #32]
   12d54:	e59d4064 	ldr	r4, [sp, #100]	; 0x64
   12d58:	e59d3018 	ldr	r3, [sp, #24]
   12d5c:	e0833008 	add	r3, r3, r8
   12d60:	e58d3018 	str	r3, [sp, #24]
   12d64:	e5d43000 	ldrb	r3, [r4]
   12d68:	e3530000 	cmp	r3, #0
   12d6c:	1a000014 	bne	12dc4 <printf_core+0x94>
   12d70:	e3590000 	cmp	r9, #0
   12d74:	1a0000e9 	bne	13120 <printf_core+0x3f0>
   12d78:	e59d3020 	ldr	r3, [sp, #32]
   12d7c:	e3530000 	cmp	r3, #0
   12d80:	0a0000e4 	beq	13118 <printf_core+0x3e8>
   12d84:	e59d32f0 	ldr	r3, [sp, #752]	; 0x2f0
   12d88:	e59d2020 	ldr	r2, [sp, #32]
   12d8c:	e7931102 	ldr	r1, [r3, r2, lsl #2]
   12d90:	e3510000 	cmp	r1, #0
   12d94:	1a0005ff 	bne	14598 <printf_core+0x1868>
   12d98:	e0833102 	add	r3, r3, r2, lsl #2
   12d9c:	e59d22f0 	ldr	r2, [sp, #752]	; 0x2f0
   12da0:	e2821028 	add	r1, r2, #40	; 0x28
   12da4:	e1510003 	cmp	r1, r3
   12da8:	0a000604 	beq	145c0 <printf_core+0x1890>
   12dac:	e4932004 	ldr	r2, [r3], #4
   12db0:	e3520000 	cmp	r2, #0
   12db4:	0afffffa 	beq	12da4 <printf_core+0x74>
   12db8:	ea00009a 	b	13028 <printf_core+0x2f8>
   12dbc:	e2833001 	add	r3, r3, #1
   12dc0:	e58d3064 	str	r3, [sp, #100]	; 0x64
   12dc4:	e59d3064 	ldr	r3, [sp, #100]	; 0x64
   12dc8:	e5d32000 	ldrb	r2, [r3]
   12dcc:	e3520000 	cmp	r2, #0
   12dd0:	13520025 	cmpne	r2, #37	; 0x25
   12dd4:	1afffff8 	bne	12dbc <printf_core+0x8c>
   12dd8:	e59d2064 	ldr	r2, [sp, #100]	; 0x64
   12ddc:	e5d21000 	ldrb	r1, [r2]
   12de0:	e3510025 	cmp	r1, #37	; 0x25
   12de4:	1a000002 	bne	12df4 <printf_core+0xc4>
   12de8:	e5d21001 	ldrb	r1, [r2, #1]
   12dec:	e3510025 	cmp	r1, #37	; 0x25
   12df0:	0a00007f 	beq	12ff4 <printf_core+0x2c4>
   12df4:	e0438004 	sub	r8, r3, r4
   12df8:	e59d3018 	ldr	r3, [sp, #24]
   12dfc:	e263347f 	rsb	r3, r3, #2130706432	; 0x7f000000
   12e00:	e28338ff 	add	r3, r3, #16711680	; 0xff0000
   12e04:	e2833cff 	add	r3, r3, #65280	; 0xff00
   12e08:	e28330ff 	add	r3, r3, #255	; 0xff
   12e0c:	e58d3044 	str	r3, [sp, #68]	; 0x44
   12e10:	e1580003 	cmp	r8, r3
   12e14:	ca00022b 	bgt	136c8 <printf_core+0x998>
   12e18:	e3590000 	cmp	r9, #0
   12e1c:	0a000003 	beq	12e30 <printf_core+0x100>
   12e20:	e1a02008 	mov	r2, r8
   12e24:	e1a01004 	mov	r1, r4
   12e28:	e1a00009 	mov	r0, r9
   12e2c:	ebffff4c 	bl	12b64 <out>
   12e30:	e3580000 	cmp	r8, #0
   12e34:	1affffc6 	bne	12d54 <printf_core+0x24>
   12e38:	e59d3064 	ldr	r3, [sp, #100]	; 0x64
   12e3c:	e5d37001 	ldrb	r7, [r3, #1]
   12e40:	e2477030 	sub	r7, r7, #48	; 0x30
   12e44:	e3570009 	cmp	r7, #9
   12e48:	8a000005 	bhi	12e64 <printf_core+0x134>
   12e4c:	e5d32002 	ldrb	r2, [r3, #2]
   12e50:	e3520024 	cmp	r2, #36	; 0x24
   12e54:	02833003 	addeq	r3, r3, #3
   12e58:	03a02001 	moveq	r2, #1
   12e5c:	058d2020 	streq	r2, [sp, #32]
   12e60:	0a000001 	beq	12e6c <printf_core+0x13c>
   12e64:	e2833001 	add	r3, r3, #1
   12e68:	e3e07000 	mvn	r7, #0
   12e6c:	e59fcf94 	ldr	ip, [pc, #3988]	; 13e08 <printf_core+0x10d8>
   12e70:	e3a0e001 	mov	lr, #1
   12e74:	e58d3064 	str	r3, [sp, #100]	; 0x64
   12e78:	e3a03000 	mov	r3, #0
   12e7c:	e58d3008 	str	r3, [sp, #8]
   12e80:	e59d3064 	ldr	r3, [sp, #100]	; 0x64
   12e84:	e5d31000 	ldrb	r1, [r3]
   12e88:	e2412020 	sub	r2, r1, #32
   12e8c:	e352001f 	cmp	r2, #31
   12e90:	8a000002 	bhi	12ea0 <printf_core+0x170>
   12e94:	e1a0023c 	lsr	r0, ip, r2
   12e98:	e3100001 	tst	r0, #1
   12e9c:	1a000058 	bne	13004 <printf_core+0x2d4>
   12ea0:	e351002a 	cmp	r1, #42	; 0x2a
   12ea4:	1a000071 	bne	13070 <printf_core+0x340>
   12ea8:	e5d32001 	ldrb	r2, [r3, #1]
   12eac:	e2421030 	sub	r1, r2, #48	; 0x30
   12eb0:	e3510009 	cmp	r1, #9
   12eb4:	8a000058 	bhi	1301c <printf_core+0x2ec>
   12eb8:	e5d31002 	ldrb	r1, [r3, #2]
   12ebc:	e3510024 	cmp	r1, #36	; 0x24
   12ec0:	1a000055 	bne	1301c <printf_core+0x2ec>
   12ec4:	e59d02f0 	ldr	r0, [sp, #752]	; 0x2f0
   12ec8:	e24221c3 	sub	r2, r2, #-1073741776	; 0xc0000030
   12ecc:	e3a0100a 	mov	r1, #10
   12ed0:	e2833003 	add	r3, r3, #3
   12ed4:	e7801102 	str	r1, [r0, r2, lsl #2]
   12ed8:	e5532002 	ldrb	r2, [r3, #-2]
   12edc:	e59d103c 	ldr	r1, [sp, #60]	; 0x3c
   12ee0:	e2822202 	add	r2, r2, #536870912	; 0x20000000
   12ee4:	e58d3064 	str	r3, [sp, #100]	; 0x64
   12ee8:	e2422030 	sub	r2, r2, #48	; 0x30
   12eec:	e3a03001 	mov	r3, #1
   12ef0:	e58d3020 	str	r3, [sp, #32]
   12ef4:	e7912182 	ldr	r2, [r1, r2, lsl #3]
   12ef8:	e58d200c 	str	r2, [sp, #12]
   12efc:	e59d300c 	ldr	r3, [sp, #12]
   12f00:	e3530000 	cmp	r3, #0
   12f04:	aa000005 	bge	12f20 <printf_core+0x1f0>
   12f08:	e59d3008 	ldr	r3, [sp, #8]
   12f0c:	e3833a02 	orr	r3, r3, #8192	; 0x2000
   12f10:	e58d3008 	str	r3, [sp, #8]
   12f14:	e59d300c 	ldr	r3, [sp, #12]
   12f18:	e2633000 	rsb	r3, r3, #0
   12f1c:	e58d300c 	str	r3, [sp, #12]
   12f20:	e59d3064 	ldr	r3, [sp, #100]	; 0x64
   12f24:	e5d32000 	ldrb	r2, [r3]
   12f28:	e352002e 	cmp	r2, #46	; 0x2e
   12f2c:	1a000069 	bne	130d8 <printf_core+0x3a8>
   12f30:	e5d32001 	ldrb	r2, [r3, #1]
   12f34:	e352002a 	cmp	r2, #42	; 0x2a
   12f38:	1a00005f 	bne	130bc <printf_core+0x38c>
   12f3c:	e5d32002 	ldrb	r2, [r3, #2]
   12f40:	e2421030 	sub	r1, r2, #48	; 0x30
   12f44:	e3510009 	cmp	r1, #9
   12f48:	8a00004e 	bhi	13088 <printf_core+0x358>
   12f4c:	e5d31003 	ldrb	r1, [r3, #3]
   12f50:	e3510024 	cmp	r1, #36	; 0x24
   12f54:	1a00004b 	bne	13088 <printf_core+0x358>
   12f58:	e59d02f0 	ldr	r0, [sp, #752]	; 0x2f0
   12f5c:	e24221c3 	sub	r2, r2, #-1073741776	; 0xc0000030
   12f60:	e3a0100a 	mov	r1, #10
   12f64:	e2833004 	add	r3, r3, #4
   12f68:	e7801102 	str	r1, [r0, r2, lsl #2]
   12f6c:	e5532002 	ldrb	r2, [r3, #-2]
   12f70:	e59d103c 	ldr	r1, [sp, #60]	; 0x3c
   12f74:	e2822202 	add	r2, r2, #536870912	; 0x20000000
   12f78:	e2422030 	sub	r2, r2, #48	; 0x30
   12f7c:	e791b182 	ldr	fp, [r1, r2, lsl #3]
   12f80:	e1e0500b 	mvn	r5, fp
   12f84:	e58d3064 	str	r3, [sp, #100]	; 0x64
   12f88:	e1a05fa5 	lsr	r5, r5, #31
   12f8c:	e59f2e78 	ldr	r2, [pc, #3704]	; 13e0c <printf_core+0x10dc>
   12f90:	e3a06000 	mov	r6, #0
   12f94:	e3a0003a 	mov	r0, #58	; 0x3a
   12f98:	e59d3064 	ldr	r3, [sp, #100]	; 0x64
   12f9c:	e5d31000 	ldrb	r1, [r3]
   12fa0:	e2411041 	sub	r1, r1, #65	; 0x41
   12fa4:	e3510039 	cmp	r1, #57	; 0x39
   12fa8:	8a00001e 	bhi	13028 <printf_core+0x2f8>
   12fac:	e2831001 	add	r1, r3, #1
   12fb0:	e58d1064 	str	r1, [sp, #100]	; 0x64
   12fb4:	e5d31000 	ldrb	r1, [r3]
   12fb8:	e0232690 	mla	r3, r0, r6, r2
   12fbc:	e0833001 	add	r3, r3, r1
   12fc0:	e5531041 	ldrb	r1, [r3, #-65]	; 0xffffffbf
   12fc4:	e2413001 	sub	r3, r1, #1
   12fc8:	e3530007 	cmp	r3, #7
   12fcc:	9a000044 	bls	130e4 <printf_core+0x3b4>
   12fd0:	e3510000 	cmp	r1, #0
   12fd4:	0a000013 	beq	13028 <printf_core+0x2f8>
   12fd8:	e3510013 	cmp	r1, #19
   12fdc:	1a000042 	bne	130ec <printf_core+0x3bc>
   12fe0:	e3570000 	cmp	r7, #0
   12fe4:	aa00000f 	bge	13028 <printf_core+0x2f8>
   12fe8:	e3590000 	cmp	r9, #0
   12fec:	1a000051 	bne	13138 <printf_core+0x408>
   12ff0:	eaffff57 	b	12d54 <printf_core+0x24>
   12ff4:	e2822002 	add	r2, r2, #2
   12ff8:	e2833001 	add	r3, r3, #1
   12ffc:	e58d2064 	str	r2, [sp, #100]	; 0x64
   13000:	eaffff74 	b	12dd8 <printf_core+0xa8>
   13004:	e59d1008 	ldr	r1, [sp, #8]
   13008:	e2833001 	add	r3, r3, #1
   1300c:	e58d3064 	str	r3, [sp, #100]	; 0x64
   13010:	e181221e 	orr	r2, r1, lr, lsl r2
   13014:	e58d2008 	str	r2, [sp, #8]
   13018:	eaffff98 	b	12e80 <printf_core+0x150>
   1301c:	e59d2020 	ldr	r2, [sp, #32]
   13020:	e3520000 	cmp	r2, #0
   13024:	0a000005 	beq	13040 <printf_core+0x310>
   13028:	e59f3de0 	ldr	r3, [pc, #3552]	; 13e10 <printf_core+0x10e0>
   1302c:	e3a02016 	mov	r2, #22
   13030:	ebfffdf1 	bl	127fc <__aeabi_read_tp>
   13034:	e7832000 	str	r2, [r3, r0]
   13038:	e3e03000 	mvn	r3, #0
   1303c:	ea000036 	b	1311c <printf_core+0x3ec>
   13040:	e3590000 	cmp	r9, #0
   13044:	e2833001 	add	r3, r3, #1
   13048:	058d900c 	streq	r9, [sp, #12]
   1304c:	159d202c 	ldrne	r2, [sp, #44]	; 0x2c
   13050:	159d002c 	ldrne	r0, [sp, #44]	; 0x2c
   13054:	15922000 	ldrne	r2, [r2]
   13058:	12821004 	addne	r1, r2, #4
   1305c:	15801000 	strne	r1, [r0]
   13060:	15922000 	ldrne	r2, [r2]
   13064:	e58d3064 	str	r3, [sp, #100]	; 0x64
   13068:	158d200c 	strne	r2, [sp, #12]
   1306c:	eaffffa2 	b	12efc <printf_core+0x1cc>
   13070:	e28d0064 	add	r0, sp, #100	; 0x64
   13074:	ebfffea3 	bl	12b08 <getint>
   13078:	e2503000 	subs	r3, r0, #0
   1307c:	e58d300c 	str	r3, [sp, #12]
   13080:	aaffffa6 	bge	12f20 <printf_core+0x1f0>
   13084:	ea00018f 	b	136c8 <printf_core+0x998>
   13088:	e59d2020 	ldr	r2, [sp, #32]
   1308c:	e3520000 	cmp	r2, #0
   13090:	1affffe4 	bne	13028 <printf_core+0x2f8>
   13094:	e3590000 	cmp	r9, #0
   13098:	e2833002 	add	r3, r3, #2
   1309c:	159d202c 	ldrne	r2, [sp, #44]	; 0x2c
   130a0:	01a0b009 	moveq	fp, r9
   130a4:	159d002c 	ldrne	r0, [sp, #44]	; 0x2c
   130a8:	15922000 	ldrne	r2, [r2]
   130ac:	12821004 	addne	r1, r2, #4
   130b0:	15801000 	strne	r1, [r0]
   130b4:	1592b000 	ldrne	fp, [r2]
   130b8:	eaffffb0 	b	12f80 <printf_core+0x250>
   130bc:	e28d0064 	add	r0, sp, #100	; 0x64
   130c0:	e2833001 	add	r3, r3, #1
   130c4:	e58d3064 	str	r3, [sp, #100]	; 0x64
   130c8:	ebfffe8e 	bl	12b08 <getint>
   130cc:	e3a05001 	mov	r5, #1
   130d0:	e1a0b000 	mov	fp, r0
   130d4:	eaffffac 	b	12f8c <printf_core+0x25c>
   130d8:	e3a05000 	mov	r5, #0
   130dc:	e3e0b000 	mvn	fp, #0
   130e0:	eaffffa9 	b	12f8c <printf_core+0x25c>
   130e4:	e1a06001 	mov	r6, r1
   130e8:	eaffffaa 	b	12f98 <printf_core+0x268>
   130ec:	e3570000 	cmp	r7, #0
   130f0:	ba000006 	blt	13110 <printf_core+0x3e0>
   130f4:	e59d32f0 	ldr	r3, [sp, #752]	; 0x2f0
   130f8:	e7831107 	str	r1, [r3, r7, lsl #2]
   130fc:	e1a07187 	lsl	r7, r7, #3
   13100:	e59d303c 	ldr	r3, [sp, #60]	; 0x3c
   13104:	e18320d7 	ldrd	r2, [r3, r7]
   13108:	e1cd27f0 	strd	r2, [sp, #112]	; 0x70
   1310c:	eaffffb5 	b	12fe8 <printf_core+0x2b8>
   13110:	e3590000 	cmp	r9, #0
   13114:	1a000004 	bne	1312c <printf_core+0x3fc>
   13118:	e3a03000 	mov	r3, #0
   1311c:	e58d3018 	str	r3, [sp, #24]
   13120:	e59d0018 	ldr	r0, [sp, #24]
   13124:	e28ddfb3 	add	sp, sp, #716	; 0x2cc
   13128:	e8bd8ff0 	pop	{r4, r5, r6, r7, r8, r9, sl, fp, pc}
   1312c:	e59d202c 	ldr	r2, [sp, #44]	; 0x2c
   13130:	e28d0070 	add	r0, sp, #112	; 0x70
   13134:	ebfffe92 	bl	12b84 <pop_arg>
   13138:	e59d3064 	ldr	r3, [sp, #100]	; 0x64
   1313c:	e3560000 	cmp	r6, #0
   13140:	e5533001 	ldrb	r3, [r3, #-1]
   13144:	e58d3010 	str	r3, [sp, #16]
   13148:	0a000004 	beq	13160 <printf_core+0x430>
   1314c:	e203300f 	and	r3, r3, #15
   13150:	e3530003 	cmp	r3, #3
   13154:	059d3010 	ldreq	r3, [sp, #16]
   13158:	03c33020 	biceq	r3, r3, #32
   1315c:	058d3010 	streq	r3, [sp, #16]
   13160:	e59d3008 	ldr	r3, [sp, #8]
   13164:	e3130a02 	tst	r3, #8192	; 0x2000
   13168:	13c33801 	bicne	r3, r3, #65536	; 0x10000
   1316c:	158d3008 	strne	r3, [sp, #8]
   13170:	e59d3010 	ldr	r3, [sp, #16]
   13174:	e2433041 	sub	r3, r3, #65	; 0x41
   13178:	e3530037 	cmp	r3, #55	; 0x37
   1317c:	979ff103 	ldrls	pc, [pc, r3, lsl #2]
   13180:	ea000501 	b	1458c <printf_core+0x185c>
   13184:	00013714 	andeq	r3, r1, r4, lsl r7
   13188:	0001458c 	andeq	r4, r1, ip, lsl #11
   1318c:	000135fc 	strdeq	r3, [r1], -ip
   13190:	0001458c 	andeq	r4, r1, ip, lsl #11
   13194:	00013714 	andeq	r3, r1, r4, lsl r7
   13198:	00013714 	andeq	r3, r1, r4, lsl r7
   1319c:	00013714 	andeq	r3, r1, r4, lsl r7
   131a0:	0001458c 	andeq	r4, r1, ip, lsl #11
   131a4:	0001458c 	andeq	r4, r1, ip, lsl #11
   131a8:	0001458c 	andeq	r4, r1, ip, lsl #11
   131ac:	0001458c 	andeq	r4, r1, ip, lsl #11
   131b0:	0001458c 	andeq	r4, r1, ip, lsl #11
   131b4:	0001458c 	andeq	r4, r1, ip, lsl #11
   131b8:	0001458c 	andeq	r4, r1, ip, lsl #11
   131bc:	0001458c 	andeq	r4, r1, ip, lsl #11
   131c0:	0001458c 	andeq	r4, r1, ip, lsl #11
   131c4:	0001458c 	andeq	r4, r1, ip, lsl #11
   131c8:	0001458c 	andeq	r4, r1, ip, lsl #11
   131cc:	00013618 	andeq	r3, r1, r8, lsl r6
   131d0:	0001458c 	andeq	r4, r1, ip, lsl #11
   131d4:	0001458c 	andeq	r4, r1, ip, lsl #11
   131d8:	0001458c 	andeq	r4, r1, ip, lsl #11
   131dc:	0001458c 	andeq	r4, r1, ip, lsl #11
   131e0:	000132f0 	strdeq	r3, [r1], -r0
   131e4:	0001458c 	andeq	r4, r1, ip, lsl #11
   131e8:	0001458c 	andeq	r4, r1, ip, lsl #11
   131ec:	0001458c 	andeq	r4, r1, ip, lsl #11
   131f0:	0001458c 	andeq	r4, r1, ip, lsl #11
   131f4:	0001458c 	andeq	r4, r1, ip, lsl #11
   131f8:	0001458c 	andeq	r4, r1, ip, lsl #11
   131fc:	0001458c 	andeq	r4, r1, ip, lsl #11
   13200:	0001458c 	andeq	r4, r1, ip, lsl #11
   13204:	00013714 	andeq	r3, r1, r4, lsl r7
   13208:	0001458c 	andeq	r4, r1, ip, lsl #11
   1320c:	00013568 	andeq	r3, r1, r8, ror #10
   13210:	00013500 	andeq	r3, r1, r0, lsl #10
   13214:	00013714 	andeq	r3, r1, r4, lsl r7
   13218:	00013714 	andeq	r3, r1, r4, lsl r7
   1321c:	00013714 	andeq	r3, r1, r4, lsl r7
   13220:	0001458c 	andeq	r4, r1, ip, lsl #11
   13224:	00013500 	andeq	r3, r1, r0, lsl #10
   13228:	0001458c 	andeq	r4, r1, ip, lsl #11
   1322c:	0001458c 	andeq	r4, r1, ip, lsl #11
   13230:	0001458c 	andeq	r4, r1, ip, lsl #11
   13234:	00013590 	muleq	r1, r0, r5
   13238:	00013264 	andeq	r3, r1, r4, ror #4
   1323c:	00013498 	muleq	r1, r8, r4
   13240:	000132d4 	ldrdeq	r3, [r1], -r4
   13244:	0001458c 	andeq	r4, r1, ip, lsl #11
   13248:	0001458c 	andeq	r4, r1, ip, lsl #11
   1324c:	000135e8 	andeq	r3, r1, r8, ror #11
   13250:	0001458c 	andeq	r4, r1, ip, lsl #11
   13254:	00013560 	andeq	r3, r1, r0, ror #10
   13258:	0001458c 	andeq	r4, r1, ip, lsl #11
   1325c:	0001458c 	andeq	r4, r1, ip, lsl #11
   13260:	000132f0 	strdeq	r3, [r1], -r0
   13264:	e3560007 	cmp	r6, #7
   13268:	979ff106 	ldrls	pc, [pc, r6, lsl #2]
   1326c:	ea000112 	b	136bc <printf_core+0x98c>
   13270:	000132b0 			; <UNDEFINED> instruction: 0x000132b0
   13274:	000132b0 			; <UNDEFINED> instruction: 0x000132b0
   13278:	000132c0 	andeq	r3, r1, r0, asr #5
   1327c:	00013290 	muleq	r1, r0, r2
   13280:	000132a0 	andeq	r3, r1, r0, lsr #5
   13284:	000136bc 			; <UNDEFINED> instruction: 0x000136bc
   13288:	000132b0 			; <UNDEFINED> instruction: 0x000132b0
   1328c:	000132c0 	andeq	r3, r1, r0, asr #5
   13290:	e59d3070 	ldr	r3, [sp, #112]	; 0x70
   13294:	e59d2018 	ldr	r2, [sp, #24]
   13298:	e1c320b0 	strh	r2, [r3]
   1329c:	eafffeac 	b	12d54 <printf_core+0x24>
   132a0:	e59d3070 	ldr	r3, [sp, #112]	; 0x70
   132a4:	e59d2018 	ldr	r2, [sp, #24]
   132a8:	e5c32000 	strb	r2, [r3]
   132ac:	eafffea8 	b	12d54 <printf_core+0x24>
   132b0:	e59d3070 	ldr	r3, [sp, #112]	; 0x70
   132b4:	e59d2018 	ldr	r2, [sp, #24]
   132b8:	e5832000 	str	r2, [r3]
   132bc:	eafffea4 	b	12d54 <printf_core+0x24>
   132c0:	e59d2018 	ldr	r2, [sp, #24]
   132c4:	e59d1070 	ldr	r1, [sp, #112]	; 0x70
   132c8:	e1a03fc2 	asr	r3, r2, #31
   132cc:	e1c120f0 	strd	r2, [r1]
   132d0:	eafffe9f 	b	12d54 <printf_core+0x24>
   132d4:	e35b0008 	cmp	fp, #8
   132d8:	e59d3008 	ldr	r3, [sp, #8]
   132dc:	33a0b008 	movcc	fp, #8
   132e0:	e3833008 	orr	r3, r3, #8
   132e4:	e58d3008 	str	r3, [sp, #8]
   132e8:	e3a03078 	mov	r3, #120	; 0x78
   132ec:	e58d3010 	str	r3, [sp, #16]
   132f0:	e1cd07d0 	ldrd	r0, [sp, #112]	; 0x70
   132f4:	e28d40d0 	add	r4, sp, #208	; 0xd0
   132f8:	e59d3010 	ldr	r3, [sp, #16]
   132fc:	e59f6b10 	ldr	r6, [pc, #2832]	; 13e14 <printf_core+0x10e4>
   13300:	e203e020 	and	lr, r3, #32
   13304:	e1a02000 	mov	r2, r0
   13308:	e1a03001 	mov	r3, r1
   1330c:	e192c003 	orrs	ip, r2, r3
   13310:	1a000056 	bne	13470 <printf_core+0x740>
   13314:	e1903001 	orrs	r3, r0, r1
   13318:	e59f6af8 	ldr	r6, [pc, #2808]	; 13e18 <printf_core+0x10e8>
   1331c:	03a08000 	moveq	r8, #0
   13320:	0a000004 	beq	13338 <printf_core+0x608>
   13324:	e59d3008 	ldr	r3, [sp, #8]
   13328:	e2138008 	ands	r8, r3, #8
   1332c:	159d3010 	ldrne	r3, [sp, #16]
   13330:	13a08002 	movne	r8, #2
   13334:	10866243 	addne	r6, r6, r3, asr #4
   13338:	e0153fab 	ands	r3, r5, fp, lsr #31
   1333c:	1a0000e1 	bne	136c8 <printf_core+0x998>
   13340:	e35b0000 	cmp	fp, #0
   13344:	e28d70d0 	add	r7, sp, #208	; 0xd0
   13348:	a59d3008 	ldrge	r3, [sp, #8]
   1334c:	a3c33801 	bicge	r3, r3, #65536	; 0x10000
   13350:	a58d3008 	strge	r3, [sp, #8]
   13354:	e1cd27d0 	ldrd	r2, [sp, #112]	; 0x70
   13358:	e1923003 	orrs	r3, r2, r3
   1335c:	03a02001 	moveq	r2, #1
   13360:	13a02000 	movne	r2, #0
   13364:	e35b0000 	cmp	fp, #0
   13368:	01a03002 	moveq	r3, r2
   1336c:	13a03000 	movne	r3, #0
   13370:	e3530000 	cmp	r3, #0
   13374:	11a04007 	movne	r4, r7
   13378:	13a0b000 	movne	fp, #0
   1337c:	11a07004 	movne	r7, r4
   13380:	1a000003 	bne	13394 <printf_core+0x664>
   13384:	e0473004 	sub	r3, r7, r4
   13388:	e0833002 	add	r3, r3, r2
   1338c:	e15b0003 	cmp	fp, r3
   13390:	b1a0b003 	movlt	fp, r3
   13394:	e0477004 	sub	r7, r7, r4
   13398:	e3e03102 	mvn	r3, #-2147483648	; 0x80000000
   1339c:	e157000b 	cmp	r7, fp
   133a0:	e0433008 	sub	r3, r3, r8
   133a4:	a1a0b007 	movge	fp, r7
   133a8:	e153000b 	cmp	r3, fp
   133ac:	ba0000c5 	blt	136c8 <printf_core+0x998>
   133b0:	e59d300c 	ldr	r3, [sp, #12]
   133b4:	e088500b 	add	r5, r8, fp
   133b8:	e1550003 	cmp	r5, r3
   133bc:	b1a0a003 	movlt	sl, r3
   133c0:	e59d3044 	ldr	r3, [sp, #68]	; 0x44
   133c4:	a1a0a005 	movge	sl, r5
   133c8:	e153000a 	cmp	r3, sl
   133cc:	ba0000bd 	blt	136c8 <printf_core+0x998>
   133d0:	e59d3008 	ldr	r3, [sp, #8]
   133d4:	e1a0200a 	mov	r2, sl
   133d8:	e3a01020 	mov	r1, #32
   133dc:	e1a00009 	mov	r0, r9
   133e0:	e58d3000 	str	r3, [sp]
   133e4:	e1a03005 	mov	r3, r5
   133e8:	ebfffe2e 	bl	12ca8 <pad>
   133ec:	e1a02008 	mov	r2, r8
   133f0:	e1a01006 	mov	r1, r6
   133f4:	e1a00009 	mov	r0, r9
   133f8:	ebfffdd9 	bl	12b64 <out>
   133fc:	e59d3008 	ldr	r3, [sp, #8]
   13400:	e1a0200a 	mov	r2, sl
   13404:	e3a01030 	mov	r1, #48	; 0x30
   13408:	e2233801 	eor	r3, r3, #65536	; 0x10000
   1340c:	e1a00009 	mov	r0, r9
   13410:	e58d3000 	str	r3, [sp]
   13414:	e1a03005 	mov	r3, r5
   13418:	ebfffe22 	bl	12ca8 <pad>
   1341c:	e3a03000 	mov	r3, #0
   13420:	e1a0200b 	mov	r2, fp
   13424:	e3a01030 	mov	r1, #48	; 0x30
   13428:	e1a00009 	mov	r0, r9
   1342c:	e58d3000 	str	r3, [sp]
   13430:	e1a03007 	mov	r3, r7
   13434:	e1a0800a 	mov	r8, sl
   13438:	ebfffe1a 	bl	12ca8 <pad>
   1343c:	e1a02007 	mov	r2, r7
   13440:	e1a01004 	mov	r1, r4
   13444:	e1a00009 	mov	r0, r9
   13448:	ebfffdc5 	bl	12b64 <out>
   1344c:	e59d3008 	ldr	r3, [sp, #8]
   13450:	e1a0200a 	mov	r2, sl
   13454:	e3a01020 	mov	r1, #32
   13458:	e2233a02 	eor	r3, r3, #8192	; 0x2000
   1345c:	e1a00009 	mov	r0, r9
   13460:	e58d3000 	str	r3, [sp]
   13464:	e1a03005 	mov	r3, r5
   13468:	ebfffe0e 	bl	12ca8 <pad>
   1346c:	eafffe38 	b	12d54 <printf_core+0x24>
   13470:	e202c00f 	and	ip, r2, #15
   13474:	e1a07223 	lsr	r7, r3, #4
   13478:	e7d6c00c 	ldrb	ip, [r6, ip]
   1347c:	e18cc00e 	orr	ip, ip, lr
   13480:	e564c001 	strb	ip, [r4, #-1]!
   13484:	e1a0c222 	lsr	ip, r2, #4
   13488:	e18cce03 	orr	ip, ip, r3, lsl #28
   1348c:	e1a03007 	mov	r3, r7
   13490:	e1a0200c 	mov	r2, ip
   13494:	eaffff9c 	b	1330c <printf_core+0x5dc>
   13498:	e1cd27d0 	ldrd	r2, [sp, #112]	; 0x70
   1349c:	e28d40d0 	add	r4, sp, #208	; 0xd0
   134a0:	e1921003 	orrs	r1, r2, r3
   134a4:	1a00000c 	bne	134dc <printf_core+0x7ac>
   134a8:	e59d3008 	ldr	r3, [sp, #8]
   134ac:	e2138008 	ands	r8, r3, #8
   134b0:	059f6960 	ldreq	r6, [pc, #2400]	; 13e18 <printf_core+0x10e8>
   134b4:	0affff9f 	beq	13338 <printf_core+0x608>
   134b8:	e59f6958 	ldr	r6, [pc, #2392]	; 13e18 <printf_core+0x10e8>
   134bc:	e28d30d0 	add	r3, sp, #208	; 0xd0
   134c0:	e0433004 	sub	r3, r3, r4
   134c4:	e153000b 	cmp	r3, fp
   134c8:	e2863005 	add	r3, r6, #5
   134cc:	a3a08001 	movge	r8, #1
   134d0:	b3a08000 	movlt	r8, #0
   134d4:	a1a06003 	movge	r6, r3
   134d8:	eaffff96 	b	13338 <printf_core+0x608>
   134dc:	e2021007 	and	r1, r2, #7
   134e0:	e1a001a3 	lsr	r0, r3, #3
   134e4:	e2811030 	add	r1, r1, #48	; 0x30
   134e8:	e5641001 	strb	r1, [r4, #-1]!
   134ec:	e1a011a2 	lsr	r1, r2, #3
   134f0:	e1811e83 	orr	r1, r1, r3, lsl #29
   134f4:	e1a03000 	mov	r3, r0
   134f8:	e1a02001 	mov	r2, r1
   134fc:	eaffffe7 	b	134a0 <printf_core+0x770>
   13500:	e1cd27d0 	ldrd	r2, [sp, #112]	; 0x70
   13504:	e3520000 	cmp	r2, #0
   13508:	e2d31000 	sbcs	r1, r3, #0
   1350c:	aa000005 	bge	13528 <printf_core+0x7f8>
   13510:	e2722000 	rsbs	r2, r2, #0
   13514:	e3a08001 	mov	r8, #1
   13518:	e2e33000 	rsc	r3, r3, #0
   1351c:	e1cd27f0 	strd	r2, [sp, #112]	; 0x70
   13520:	e59f68f0 	ldr	r6, [pc, #2288]	; 13e18 <printf_core+0x10e8>
   13524:	ea000008 	b	1354c <printf_core+0x81c>
   13528:	e59d3008 	ldr	r3, [sp, #8]
   1352c:	e3130b02 	tst	r3, #2048	; 0x800
   13530:	159f68e4 	ldrne	r6, [pc, #2276]	; 13e1c <printf_core+0x10ec>
   13534:	13a08001 	movne	r8, #1
   13538:	1a000003 	bne	1354c <printf_core+0x81c>
   1353c:	e59f68dc 	ldr	r6, [pc, #2268]	; 13e20 <printf_core+0x10f0>
   13540:	e2138001 	ands	r8, r3, #1
   13544:	e2463002 	sub	r3, r6, #2
   13548:	01a06003 	moveq	r6, r3
   1354c:	e1cd07d0 	ldrd	r0, [sp, #112]	; 0x70
   13550:	e28d20d0 	add	r2, sp, #208	; 0xd0
   13554:	ebfffd45 	bl	12a70 <fmt_u>
   13558:	e1a04000 	mov	r4, r0
   1355c:	eaffff75 	b	13338 <printf_core+0x608>
   13560:	e3a08000 	mov	r8, #0
   13564:	eaffffed 	b	13520 <printf_core+0x7f0>
   13568:	e59d3070 	ldr	r3, [sp, #112]	; 0x70
   1356c:	e28d70d0 	add	r7, sp, #208	; 0xd0
   13570:	e59f68a0 	ldr	r6, [pc, #2208]	; 13e18 <printf_core+0x10e8>
   13574:	e28d40cf 	add	r4, sp, #207	; 0xcf
   13578:	e3a0b001 	mov	fp, #1
   1357c:	e5cd30cf 	strb	r3, [sp, #207]	; 0xcf
   13580:	e59d3008 	ldr	r3, [sp, #8]
   13584:	e3c33801 	bic	r3, r3, #65536	; 0x10000
   13588:	e58d3008 	str	r3, [sp, #8]
   1358c:	eaffff80 	b	13394 <printf_core+0x664>
   13590:	e59f3878 	ldr	r3, [pc, #2168]	; 13e10 <printf_core+0x10e0>
   13594:	ebfffc98 	bl	127fc <__aeabi_read_tp>
   13598:	e7930000 	ldr	r0, [r3, r0]
   1359c:	eb00052f 	bl	14a60 <strerror>
   135a0:	e1a04000 	mov	r4, r0
   135a4:	e35b0000 	cmp	fp, #0
   135a8:	e1a00004 	mov	r0, r4
   135ac:	a1a0100b 	movge	r1, fp
   135b0:	b3e01102 	mvnlt	r1, #-2147483648	; 0x80000000
   135b4:	eb000496 	bl	14814 <strnlen>
   135b8:	e35b0000 	cmp	fp, #0
   135bc:	e0847000 	add	r7, r4, r0
   135c0:	aa000002 	bge	135d0 <printf_core+0x8a0>
   135c4:	e7d43000 	ldrb	r3, [r4, r0]
   135c8:	e3530000 	cmp	r3, #0
   135cc:	1a00003d 	bne	136c8 <printf_core+0x998>
   135d0:	e59d3008 	ldr	r3, [sp, #8]
   135d4:	e1a0b000 	mov	fp, r0
   135d8:	e59f6838 	ldr	r6, [pc, #2104]	; 13e18 <printf_core+0x10e8>
   135dc:	e3c33801 	bic	r3, r3, #65536	; 0x10000
   135e0:	e58d3008 	str	r3, [sp, #8]
   135e4:	eaffff6a 	b	13394 <printf_core+0x664>
   135e8:	e59d4070 	ldr	r4, [sp, #112]	; 0x70
   135ec:	e59f3830 	ldr	r3, [pc, #2096]	; 13e24 <printf_core+0x10f4>
   135f0:	e3540000 	cmp	r4, #0
   135f4:	01a04003 	moveq	r4, r3
   135f8:	eaffffe9 	b	135a4 <printf_core+0x874>
   135fc:	e59d3070 	ldr	r3, [sp, #112]	; 0x70
   13600:	e3e0b000 	mvn	fp, #0
   13604:	e58d307c 	str	r3, [sp, #124]	; 0x7c
   13608:	e3a03000 	mov	r3, #0
   1360c:	e58d3080 	str	r3, [sp, #128]	; 0x80
   13610:	e28d307c 	add	r3, sp, #124	; 0x7c
   13614:	e58d3070 	str	r3, [sp, #112]	; 0x70
   13618:	e59d5070 	ldr	r5, [sp, #112]	; 0x70
   1361c:	e3a04000 	mov	r4, #0
   13620:	e2455004 	sub	r5, r5, #4
   13624:	e15b0004 	cmp	fp, r4
   13628:	9a000009 	bls	13654 <printf_core+0x924>
   1362c:	e5b51004 	ldr	r1, [r5, #4]!
   13630:	e3510000 	cmp	r1, #0
   13634:	0a000006 	beq	13654 <printf_core+0x924>
   13638:	e28d0068 	add	r0, sp, #104	; 0x68
   1363c:	eb000517 	bl	14aa0 <wctomb>
   13640:	e3500000 	cmp	r0, #0
   13644:	bafffe7b 	blt	13038 <printf_core+0x308>
   13648:	e04b3004 	sub	r3, fp, r4
   1364c:	e1530000 	cmp	r3, r0
   13650:	2a000020 	bcs	136d8 <printf_core+0x9a8>
   13654:	e3540000 	cmp	r4, #0
   13658:	ba00001a 	blt	136c8 <printf_core+0x998>
   1365c:	e59d3008 	ldr	r3, [sp, #8]
   13660:	e3a01020 	mov	r1, #32
   13664:	e59d200c 	ldr	r2, [sp, #12]
   13668:	e1a00009 	mov	r0, r9
   1366c:	e3a06000 	mov	r6, #0
   13670:	e58d3000 	str	r3, [sp]
   13674:	e1a03004 	mov	r3, r4
   13678:	ebfffd8a 	bl	12ca8 <pad>
   1367c:	e59d5070 	ldr	r5, [sp, #112]	; 0x70
   13680:	e2455004 	sub	r5, r5, #4
   13684:	e1540006 	cmp	r4, r6
   13688:	8a000014 	bhi	136e0 <printf_core+0x9b0>
   1368c:	e59d3008 	ldr	r3, [sp, #8]
   13690:	e3a01020 	mov	r1, #32
   13694:	e59d200c 	ldr	r2, [sp, #12]
   13698:	e1a00009 	mov	r0, r9
   1369c:	e2233a02 	eor	r3, r3, #8192	; 0x2000
   136a0:	e58d3000 	str	r3, [sp]
   136a4:	e1a03004 	mov	r3, r4
   136a8:	ebfffd7e 	bl	12ca8 <pad>
   136ac:	e59d300c 	ldr	r3, [sp, #12]
   136b0:	e1540003 	cmp	r4, r3
   136b4:	a1a08004 	movge	r8, r4
   136b8:	b1a08003 	movlt	r8, r3
   136bc:	e59d3044 	ldr	r3, [sp, #68]	; 0x44
   136c0:	e1530008 	cmp	r3, r8
   136c4:	aafffda2 	bge	12d54 <printf_core+0x24>
   136c8:	e59f3740 	ldr	r3, [pc, #1856]	; 13e10 <printf_core+0x10e0>
   136cc:	e3a0204b 	mov	r2, #75	; 0x4b
   136d0:	ebfffc49 	bl	127fc <__aeabi_read_tp>
   136d4:	eafffe56 	b	13034 <printf_core+0x304>
   136d8:	e0844000 	add	r4, r4, r0
   136dc:	eaffffd0 	b	13624 <printf_core+0x8f4>
   136e0:	e5b51004 	ldr	r1, [r5, #4]!
   136e4:	e3510000 	cmp	r1, #0
   136e8:	0affffe7 	beq	1368c <printf_core+0x95c>
   136ec:	e28d0068 	add	r0, sp, #104	; 0x68
   136f0:	eb0004ea 	bl	14aa0 <wctomb>
   136f4:	e0866000 	add	r6, r6, r0
   136f8:	e1a02000 	mov	r2, r0
   136fc:	e1560004 	cmp	r6, r4
   13700:	8affffe1 	bhi	1368c <printf_core+0x95c>
   13704:	e28d1068 	add	r1, sp, #104	; 0x68
   13708:	e1a00009 	mov	r0, r9
   1370c:	ebfffd14 	bl	12b64 <out>
   13710:	eaffffdb 	b	13684 <printf_core+0x954>
   13714:	e0153fab 	ands	r3, r5, fp, lsr #31
   13718:	e58d3040 	str	r3, [sp, #64]	; 0x40
   1371c:	1affffe9 	bne	136c8 <printf_core+0x998>
   13720:	e59dc074 	ldr	ip, [sp, #116]	; 0x74
   13724:	e58d306c 	str	r3, [sp, #108]	; 0x6c
   13728:	e59de070 	ldr	lr, [sp, #112]	; 0x70
   1372c:	e1b03fac 	lsrs	r3, ip, #31
   13730:	e58d3024 	str	r3, [sp, #36]	; 0x24
   13734:	128cc102 	addne	ip, ip, #-2147483648	; 0x80000000
   13738:	159f36e8 	ldrne	r3, [pc, #1768]	; 13e28 <printf_core+0x10f8>
   1373c:	1a000046 	bne	1385c <printf_core+0xb2c>
   13740:	e59d3008 	ldr	r3, [sp, #8]
   13744:	e3130b02 	tst	r3, #2048	; 0x800
   13748:	1a000040 	bne	13850 <printf_core+0xb20>
   1374c:	e59f26d8 	ldr	r2, [pc, #1752]	; 13e2c <printf_core+0x10fc>
   13750:	e2033001 	and	r3, r3, #1
   13754:	e3530000 	cmp	r3, #0
   13758:	e2421005 	sub	r1, r2, #5
   1375c:	11a03002 	movne	r3, r2
   13760:	01a03001 	moveq	r3, r1
   13764:	e58d3028 	str	r3, [sp, #40]	; 0x28
   13768:	e59d3024 	ldr	r3, [sp, #36]	; 0x24
   1376c:	13a03001 	movne	r3, #1
   13770:	e58d3024 	str	r3, [sp, #36]	; 0x24
   13774:	e3cc3102 	bic	r3, ip, #-2147483648	; 0x80000000
   13778:	e58de050 	str	lr, [sp, #80]	; 0x50
   1377c:	e58d3054 	str	r3, [sp, #84]	; 0x54
   13780:	e3e02000 	mvn	r2, #0
   13784:	e1cd05d0 	ldrd	r0, [sp, #80]	; 0x50
   13788:	e59f36a0 	ldr	r3, [pc, #1696]	; 13e30 <printf_core+0x1100>
   1378c:	e1510003 	cmp	r1, r3
   13790:	01500002 	cmpeq	r0, r2
   13794:	9a000032 	bls	13864 <printf_core+0xb34>
   13798:	e59d3010 	ldr	r3, [sp, #16]
   1379c:	e1a0200e 	mov	r2, lr
   137a0:	e59f468c 	ldr	r4, [pc, #1676]	; 13e34 <printf_core+0x1104>
   137a4:	e1a0000e 	mov	r0, lr
   137a8:	e2135020 	ands	r5, r3, #32
   137ac:	e59f3684 	ldr	r3, [pc, #1668]	; 13e38 <printf_core+0x1108>
   137b0:	e1a0100c 	mov	r1, ip
   137b4:	01a04003 	moveq	r4, r3
   137b8:	e1a0300c 	mov	r3, ip
   137bc:	eb0009b1 	bl	15e88 <__aeabi_dcmpeq>
   137c0:	e3500000 	cmp	r0, #0
   137c4:	1a000003 	bne	137d8 <printf_core+0xaa8>
   137c8:	e59f366c 	ldr	r3, [pc, #1644]	; 13e3c <printf_core+0x110c>
   137cc:	e3550000 	cmp	r5, #0
   137d0:	e59f4668 	ldr	r4, [pc, #1640]	; 13e40 <printf_core+0x1110>
   137d4:	01a04003 	moveq	r4, r3
   137d8:	e59d3024 	ldr	r3, [sp, #36]	; 0x24
   137dc:	e3a01020 	mov	r1, #32
   137e0:	e59d200c 	ldr	r2, [sp, #12]
   137e4:	e1a00009 	mov	r0, r9
   137e8:	e2838003 	add	r8, r3, #3
   137ec:	e59d3008 	ldr	r3, [sp, #8]
   137f0:	e3c33801 	bic	r3, r3, #65536	; 0x10000
   137f4:	e58d3000 	str	r3, [sp]
   137f8:	e1a03008 	mov	r3, r8
   137fc:	ebfffd29 	bl	12ca8 <pad>
   13800:	e59d2024 	ldr	r2, [sp, #36]	; 0x24
   13804:	e59d1028 	ldr	r1, [sp, #40]	; 0x28
   13808:	e1a00009 	mov	r0, r9
   1380c:	ebfffcd4 	bl	12b64 <out>
   13810:	e3a02003 	mov	r2, #3
   13814:	e1a01004 	mov	r1, r4
   13818:	e1a00009 	mov	r0, r9
   1381c:	ebfffcd0 	bl	12b64 <out>
   13820:	e59d3008 	ldr	r3, [sp, #8]
   13824:	e59d200c 	ldr	r2, [sp, #12]
   13828:	e3a01020 	mov	r1, #32
   1382c:	e2233a02 	eor	r3, r3, #8192	; 0x2000
   13830:	e1a00009 	mov	r0, r9
   13834:	e58d3000 	str	r3, [sp]
   13838:	e1a03008 	mov	r3, r8
   1383c:	ebfffd19 	bl	12ca8 <pad>
   13840:	e59d300c 	ldr	r3, [sp, #12]
   13844:	e1530008 	cmp	r3, r8
   13848:	a1a08003 	movge	r8, r3
   1384c:	eaffff9a 	b	136bc <printf_core+0x98c>
   13850:	e3a03001 	mov	r3, #1
   13854:	e58d3024 	str	r3, [sp, #36]	; 0x24
   13858:	e59f35e4 	ldr	r3, [pc, #1508]	; 13e44 <printf_core+0x1114>
   1385c:	e58d3028 	str	r3, [sp, #40]	; 0x28
   13860:	eaffffc3 	b	13774 <printf_core+0xa44>
   13864:	e1a0000e 	mov	r0, lr
   13868:	e1a0100c 	mov	r1, ip
   1386c:	e28d206c 	add	r2, sp, #108	; 0x6c
   13870:	eb000489 	bl	14a9c <frexpl>
   13874:	e1a02000 	mov	r2, r0
   13878:	e1a03001 	mov	r3, r1
   1387c:	eb000862 	bl	15a0c <__adddf3>
   13880:	e3a03000 	mov	r3, #0
   13884:	e3a02000 	mov	r2, #0
   13888:	e1a0a000 	mov	sl, r0
   1388c:	e1a04001 	mov	r4, r1
   13890:	eb00097c 	bl	15e88 <__aeabi_dcmpeq>
   13894:	e3500000 	cmp	r0, #0
   13898:	059d306c 	ldreq	r3, [sp, #108]	; 0x6c
   1389c:	02433001 	subeq	r3, r3, #1
   138a0:	058d306c 	streq	r3, [sp, #108]	; 0x6c
   138a4:	e59d3010 	ldr	r3, [sp, #16]
   138a8:	e3833020 	orr	r3, r3, #32
   138ac:	e58d3038 	str	r3, [sp, #56]	; 0x38
   138b0:	e3530061 	cmp	r3, #97	; 0x61
   138b4:	1a0000ac 	bne	13b6c <printf_core+0xe3c>
   138b8:	e59d3010 	ldr	r3, [sp, #16]
   138bc:	e3130020 	tst	r3, #32
   138c0:	159d3028 	ldrne	r3, [sp, #40]	; 0x28
   138c4:	12833009 	addne	r3, r3, #9
   138c8:	158d3028 	strne	r3, [sp, #40]	; 0x28
   138cc:	e35b000b 	cmp	fp, #11
   138d0:	e59d3024 	ldr	r3, [sp, #36]	; 0x24
   138d4:	e2833002 	add	r3, r3, #2
   138d8:	e58d3014 	str	r3, [sp, #20]
   138dc:	8a000014 	bhi	13934 <printf_core+0xc04>
   138e0:	e59f7560 	ldr	r7, [pc, #1376]	; 13e48 <printf_core+0x1118>
   138e4:	e26b500c 	rsb	r5, fp, #12
   138e8:	e3a06000 	mov	r6, #0
   138ec:	e2555001 	subs	r5, r5, #1
   138f0:	2a00008b 	bcs	13b24 <printf_core+0xdf4>
   138f4:	e59d3028 	ldr	r3, [sp, #40]	; 0x28
   138f8:	e1a02006 	mov	r2, r6
   138fc:	e1a0000a 	mov	r0, sl
   13900:	e5d33000 	ldrb	r3, [r3]
   13904:	e353002d 	cmp	r3, #45	; 0x2d
   13908:	e1a03007 	mov	r3, r7
   1390c:	1a00008c 	bne	13b44 <printf_core+0xe14>
   13910:	e2841102 	add	r1, r4, #-2147483648	; 0x80000000
   13914:	eb00083b 	bl	15a08 <__aeabi_dsub>
   13918:	e1a02000 	mov	r2, r0
   1391c:	e1a03001 	mov	r3, r1
   13920:	e1a00006 	mov	r0, r6
   13924:	e1a01007 	mov	r1, r7
   13928:	eb000837 	bl	15a0c <__adddf3>
   1392c:	e2814102 	add	r4, r1, #-2147483648	; 0x80000000
   13930:	e1a0a000 	mov	sl, r0
   13934:	e59d006c 	ldr	r0, [sp, #108]	; 0x6c
   13938:	e28d5090 	add	r5, sp, #144	; 0x90
   1393c:	e28d6090 	add	r6, sp, #144	; 0x90
   13940:	e3500000 	cmp	r0, #0
   13944:	e1a02005 	mov	r2, r5
   13948:	b2600000 	rsblt	r0, r0, #0
   1394c:	e1a01fc0 	asr	r1, r0, #31
   13950:	ebfffc46 	bl	12a70 <fmt_u>
   13954:	e1500005 	cmp	r0, r5
   13958:	028d008f 	addeq	r0, sp, #143	; 0x8f
   1395c:	03a03030 	moveq	r3, #48	; 0x30
   13960:	05cd308f 	strbeq	r3, [sp, #143]	; 0x8f
   13964:	e59d306c 	ldr	r3, [sp, #108]	; 0x6c
   13968:	e2407002 	sub	r7, r0, #2
   1396c:	e3530000 	cmp	r3, #0
   13970:	b3a0302d 	movlt	r3, #45	; 0x2d
   13974:	a3a0302b 	movge	r3, #43	; 0x2b
   13978:	e5403001 	strb	r3, [r0, #-1]
   1397c:	e59d3010 	ldr	r3, [sp, #16]
   13980:	e283300f 	add	r3, r3, #15
   13984:	e5403002 	strb	r3, [r0, #-2]
   13988:	e59d3010 	ldr	r3, [sp, #16]
   1398c:	e2033020 	and	r3, r3, #32
   13990:	e58d3010 	str	r3, [sp, #16]
   13994:	e59d3008 	ldr	r3, [sp, #8]
   13998:	e2038008 	and	r8, r3, #8
   1399c:	e1a01004 	mov	r1, r4
   139a0:	e1a0000a 	mov	r0, sl
   139a4:	eb000950 	bl	15eec <__aeabi_d2iz>
   139a8:	e59f3464 	ldr	r3, [pc, #1124]	; 13e14 <printf_core+0x10e4>
   139ac:	e59d2010 	ldr	r2, [sp, #16]
   139b0:	e1a05006 	mov	r5, r6
   139b4:	e7d33000 	ldrb	r3, [r3, r0]
   139b8:	e1833002 	orr	r3, r3, r2
   139bc:	e4c53001 	strb	r3, [r5], #1
   139c0:	eb0008c5 	bl	15cdc <__aeabi_i2d>
   139c4:	e1a02000 	mov	r2, r0
   139c8:	e1a03001 	mov	r3, r1
   139cc:	e1a0000a 	mov	r0, sl
   139d0:	e1a01004 	mov	r1, r4
   139d4:	eb00080b 	bl	15a08 <__aeabi_dsub>
   139d8:	e59f346c 	ldr	r3, [pc, #1132]	; 13e4c <printf_core+0x111c>
   139dc:	e3a02000 	mov	r2, #0
   139e0:	eb0006e8 	bl	15588 <__aeabi_dmul>
   139e4:	e28d3090 	add	r3, sp, #144	; 0x90
   139e8:	e0453003 	sub	r3, r5, r3
   139ec:	e3530001 	cmp	r3, #1
   139f0:	e1a0a000 	mov	sl, r0
   139f4:	e1a04001 	mov	r4, r1
   139f8:	1a00000e 	bne	13a38 <printf_core+0xd08>
   139fc:	e3a03000 	mov	r3, #0
   13a00:	e3a02000 	mov	r2, #0
   13a04:	eb00091f 	bl	15e88 <__aeabi_dcmpeq>
   13a08:	e35b0000 	cmp	fp, #0
   13a0c:	d3a03000 	movle	r3, #0
   13a10:	c3a03001 	movgt	r3, #1
   13a14:	e3500000 	cmp	r0, #0
   13a18:	03a03001 	moveq	r3, #1
   13a1c:	e3530000 	cmp	r3, #0
   13a20:	1a000001 	bne	13a2c <printf_core+0xcfc>
   13a24:	e3580000 	cmp	r8, #0
   13a28:	0a000009 	beq	13a54 <printf_core+0xd24>
   13a2c:	e2865002 	add	r5, r6, #2
   13a30:	e3a0302e 	mov	r3, #46	; 0x2e
   13a34:	e5c63001 	strb	r3, [r6, #1]
   13a38:	e3a02000 	mov	r2, #0
   13a3c:	e3a03000 	mov	r3, #0
   13a40:	e1a0000a 	mov	r0, sl
   13a44:	e1a01004 	mov	r1, r4
   13a48:	eb00090e 	bl	15e88 <__aeabi_dcmpeq>
   13a4c:	e3500000 	cmp	r0, #0
   13a50:	0a000043 	beq	13b64 <printf_core+0xe34>
   13a54:	e28d2090 	add	r2, sp, #144	; 0x90
   13a58:	e59d1014 	ldr	r1, [sp, #20]
   13a5c:	e0424007 	sub	r4, r2, r7
   13a60:	e3e0310a 	mvn	r3, #-2147483646	; 0x80000002
   13a64:	e0433004 	sub	r3, r3, r4
   13a68:	e0433001 	sub	r3, r3, r1
   13a6c:	e15b0003 	cmp	fp, r3
   13a70:	caffff14 	bgt	136c8 <printf_core+0x998>
   13a74:	e35b0000 	cmp	fp, #0
   13a78:	e0455002 	sub	r5, r5, r2
   13a7c:	0a000004 	beq	13a94 <printf_core+0xd64>
   13a80:	e2453001 	sub	r3, r5, #1
   13a84:	e15b0003 	cmp	fp, r3
   13a88:	a28b6002 	addge	r6, fp, #2
   13a8c:	a0866004 	addge	r6, r6, r4
   13a90:	aa000000 	bge	13a98 <printf_core+0xd68>
   13a94:	e0846005 	add	r6, r4, r5
   13a98:	e59d3014 	ldr	r3, [sp, #20]
   13a9c:	e3a01020 	mov	r1, #32
   13aa0:	e59d200c 	ldr	r2, [sp, #12]
   13aa4:	e1a00009 	mov	r0, r9
   13aa8:	e0838006 	add	r8, r3, r6
   13aac:	e59d3008 	ldr	r3, [sp, #8]
   13ab0:	e58d3000 	str	r3, [sp]
   13ab4:	e1a03008 	mov	r3, r8
   13ab8:	ebfffc7a 	bl	12ca8 <pad>
   13abc:	e59d2014 	ldr	r2, [sp, #20]
   13ac0:	e59d1028 	ldr	r1, [sp, #40]	; 0x28
   13ac4:	e1a00009 	mov	r0, r9
   13ac8:	ebfffc25 	bl	12b64 <out>
   13acc:	e59d3008 	ldr	r3, [sp, #8]
   13ad0:	e59d200c 	ldr	r2, [sp, #12]
   13ad4:	e3a01030 	mov	r1, #48	; 0x30
   13ad8:	e2233801 	eor	r3, r3, #65536	; 0x10000
   13adc:	e1a00009 	mov	r0, r9
   13ae0:	e58d3000 	str	r3, [sp]
   13ae4:	e1a03008 	mov	r3, r8
   13ae8:	ebfffc6e 	bl	12ca8 <pad>
   13aec:	e28d1090 	add	r1, sp, #144	; 0x90
   13af0:	e1a02005 	mov	r2, r5
   13af4:	e1a00009 	mov	r0, r9
   13af8:	ebfffc19 	bl	12b64 <out>
   13afc:	e0462004 	sub	r2, r6, r4
   13b00:	e0422005 	sub	r2, r2, r5
   13b04:	e3a03000 	mov	r3, #0
   13b08:	e3a01030 	mov	r1, #48	; 0x30
   13b0c:	e1a00009 	mov	r0, r9
   13b10:	e58d3000 	str	r3, [sp]
   13b14:	ebfffc63 	bl	12ca8 <pad>
   13b18:	e1a02004 	mov	r2, r4
   13b1c:	e1a01007 	mov	r1, r7
   13b20:	eaffff3c 	b	13818 <printf_core+0xae8>
   13b24:	e1a00006 	mov	r0, r6
   13b28:	e1a01007 	mov	r1, r7
   13b2c:	e59f3318 	ldr	r3, [pc, #792]	; 13e4c <printf_core+0x111c>
   13b30:	e3a02000 	mov	r2, #0
   13b34:	eb000693 	bl	15588 <__aeabi_dmul>
   13b38:	e1a06000 	mov	r6, r0
   13b3c:	e1a07001 	mov	r7, r1
   13b40:	eaffff69 	b	138ec <printf_core+0xbbc>
   13b44:	e1a01004 	mov	r1, r4
   13b48:	eb0007af 	bl	15a0c <__adddf3>
   13b4c:	e1a02006 	mov	r2, r6
   13b50:	e1a03007 	mov	r3, r7
   13b54:	eb0007ab 	bl	15a08 <__aeabi_dsub>
   13b58:	e1a0a000 	mov	sl, r0
   13b5c:	e1a04001 	mov	r4, r1
   13b60:	eaffff73 	b	13934 <printf_core+0xc04>
   13b64:	e1a06005 	mov	r6, r5
   13b68:	eaffff8b 	b	1399c <printf_core+0xc6c>
   13b6c:	e35b0000 	cmp	fp, #0
   13b70:	e3a02000 	mov	r2, #0
   13b74:	e3a03000 	mov	r3, #0
   13b78:	e1a0000a 	mov	r0, sl
   13b7c:	e1a01004 	mov	r1, r4
   13b80:	b3a0b006 	movlt	fp, #6
   13b84:	eb0008bf 	bl	15e88 <__aeabi_dcmpeq>
   13b88:	e3500000 	cmp	r0, #0
   13b8c:	1a000009 	bne	13bb8 <printf_core+0xe88>
   13b90:	e59f32b8 	ldr	r3, [pc, #696]	; 13e50 <printf_core+0x1120>
   13b94:	e1a0000a 	mov	r0, sl
   13b98:	e1a01004 	mov	r1, r4
   13b9c:	e3a02000 	mov	r2, #0
   13ba0:	eb000678 	bl	15588 <__aeabi_dmul>
   13ba4:	e59d306c 	ldr	r3, [sp, #108]	; 0x6c
   13ba8:	e243301c 	sub	r3, r3, #28
   13bac:	e58d306c 	str	r3, [sp, #108]	; 0x6c
   13bb0:	e1a0a000 	mov	sl, r0
   13bb4:	e1a04001 	mov	r4, r1
   13bb8:	e59d506c 	ldr	r5, [sp, #108]	; 0x6c
   13bbc:	e3a06000 	mov	r6, #0
   13bc0:	e59f728c 	ldr	r7, [pc, #652]	; 13e54 <printf_core+0x1124>
   13bc4:	e3550000 	cmp	r5, #0
   13bc8:	b28d30d0 	addlt	r3, sp, #208	; 0xd0
   13bcc:	a28d3e1f 	addge	r3, sp, #496	; 0x1f0
   13bd0:	e58d301c 	str	r3, [sp, #28]
   13bd4:	e59d301c 	ldr	r3, [sp, #28]
   13bd8:	e58d3014 	str	r3, [sp, #20]
   13bdc:	e1a01004 	mov	r1, r4
   13be0:	e1a0000a 	mov	r0, sl
   13be4:	eb0008d7 	bl	15f48 <__aeabi_d2uiz>
   13be8:	e59d3014 	ldr	r3, [sp, #20]
   13bec:	e4830004 	str	r0, [r3], #4
   13bf0:	e58d3014 	str	r3, [sp, #20]
   13bf4:	eb00082f 	bl	15cb8 <__aeabi_ui2d>
   13bf8:	e1a02000 	mov	r2, r0
   13bfc:	e1a03001 	mov	r3, r1
   13c00:	e1a0000a 	mov	r0, sl
   13c04:	e1a01004 	mov	r1, r4
   13c08:	eb00077e 	bl	15a08 <__aeabi_dsub>
   13c0c:	e1a02006 	mov	r2, r6
   13c10:	e1a03007 	mov	r3, r7
   13c14:	eb00065b 	bl	15588 <__aeabi_dmul>
   13c18:	e3a02000 	mov	r2, #0
   13c1c:	e3a03000 	mov	r3, #0
   13c20:	e1a0a000 	mov	sl, r0
   13c24:	e1a04001 	mov	r4, r1
   13c28:	eb000896 	bl	15e88 <__aeabi_dcmpeq>
   13c2c:	e3500000 	cmp	r0, #0
   13c30:	0affffe9 	beq	13bdc <printf_core+0xeac>
   13c34:	e59d401c 	ldr	r4, [sp, #28]
   13c38:	e3a03000 	mov	r3, #0
   13c3c:	e3550000 	cmp	r5, #0
   13c40:	ca000058 	bgt	13da8 <printf_core+0x1078>
   13c44:	e59fa20c 	ldr	sl, [pc, #524]	; 13e58 <printf_core+0x1128>
   13c48:	e28b2019 	add	r2, fp, #25
   13c4c:	e3530000 	cmp	r3, #0
   13c50:	e59f7204 	ldr	r7, [pc, #516]	; 13e5c <printf_core+0x112c>
   13c54:	158d506c 	strne	r5, [sp, #108]	; 0x6c
   13c58:	e3a06001 	mov	r6, #1
   13c5c:	e0832a92 	umull	r2, r3, r2, sl
   13c60:	e1a000a3 	lsr	r0, r3, #1
   13c64:	e2800001 	add	r0, r0, #1
   13c68:	e1a03100 	lsl	r3, r0, #2
   13c6c:	e58d3048 	str	r3, [sp, #72]	; 0x48
   13c70:	e59d306c 	ldr	r3, [sp, #108]	; 0x6c
   13c74:	e3530000 	cmp	r3, #0
   13c78:	ba00008e 	blt	13eb8 <printf_core+0x1188>
   13c7c:	e59d2040 	ldr	r2, [sp, #64]	; 0x40
   13c80:	e3520000 	cmp	r2, #0
   13c84:	158d306c 	strne	r3, [sp, #108]	; 0x6c
   13c88:	e59d3014 	ldr	r3, [sp, #20]
   13c8c:	e1530004 	cmp	r3, r4
   13c90:	93a05000 	movls	r5, #0
   13c94:	9a000008 	bls	13cbc <printf_core+0xf8c>
   13c98:	e59d301c 	ldr	r3, [sp, #28]
   13c9c:	e5942000 	ldr	r2, [r4]
   13ca0:	e0435004 	sub	r5, r3, r4
   13ca4:	e3a0300a 	mov	r3, #10
   13ca8:	e1a01003 	mov	r1, r3
   13cac:	e1a05145 	asr	r5, r5, #2
   13cb0:	e0855185 	add	r5, r5, r5, lsl #3
   13cb4:	e1520003 	cmp	r2, r3
   13cb8:	2a0000a6 	bcs	13f58 <printf_core+0x1228>
   13cbc:	e59d3038 	ldr	r3, [sp, #56]	; 0x38
   13cc0:	e59d2038 	ldr	r2, [sp, #56]	; 0x38
   13cc4:	e2533066 	subs	r3, r3, #102	; 0x66
   13cc8:	e59d101c 	ldr	r1, [sp, #28]
   13ccc:	e2422067 	sub	r2, r2, #103	; 0x67
   13cd0:	13a03001 	movne	r3, #1
   13cd4:	e16f2f12 	clz	r2, r2
   13cd8:	e063b395 	mls	r3, r5, r3, fp
   13cdc:	e35b0000 	cmp	fp, #0
   13ce0:	e1a022a2 	lsr	r2, r2, #5
   13ce4:	03a02000 	moveq	r2, #0
   13ce8:	e0433002 	sub	r3, r3, r2
   13cec:	e59d2014 	ldr	r2, [sp, #20]
   13cf0:	e0422001 	sub	r2, r2, r1
   13cf4:	e1a02142 	asr	r2, r2, #2
   13cf8:	e2422001 	sub	r2, r2, #1
   13cfc:	e0822182 	add	r2, r2, r2, lsl #3
   13d00:	e1530002 	cmp	r3, r2
   13d04:	aa0000d8 	bge	1406c <printf_core+0x133c>
   13d08:	e2833b09 	add	r3, r3, #9216	; 0x2400
   13d0c:	e0c10a93 	smull	r0, r1, r3, sl
   13d10:	e1a02fc3 	asr	r2, r3, #31
   13d14:	e3a0a00a 	mov	sl, #10
   13d18:	e06220c1 	rsb	r2, r2, r1, asr #1
   13d1c:	e59d101c 	ldr	r1, [sp, #28]
   13d20:	e2426fff 	sub	r6, r2, #1020	; 0x3fc
   13d24:	e246610f 	sub	r6, r6, #-1073741821	; 0xc0000003
   13d28:	e0822182 	add	r2, r2, r2, lsl #3
   13d2c:	e0433002 	sub	r3, r3, r2
   13d30:	e1a0200a 	mov	r2, sl
   13d34:	e0816106 	add	r6, r1, r6, lsl #2
   13d38:	e2833001 	add	r3, r3, #1
   13d3c:	e3530009 	cmp	r3, #9
   13d40:	1a000087 	bne	13f64 <printf_core+0x1234>
   13d44:	e5963000 	ldr	r3, [r6]
   13d48:	e1a0100a 	mov	r1, sl
   13d4c:	e1a00003 	mov	r0, r3
   13d50:	e58d3048 	str	r3, [sp, #72]	; 0x48
   13d54:	eb000721 	bl	159e0 <__aeabi_uidivmod>
   13d58:	e3510000 	cmp	r1, #0
   13d5c:	1a000003 	bne	13d70 <printf_core+0x1040>
   13d60:	e59d2014 	ldr	r2, [sp, #20]
   13d64:	e2863004 	add	r3, r6, #4
   13d68:	e1520003 	cmp	r2, r3
   13d6c:	0a0000b9 	beq	14058 <printf_core+0x1328>
   13d70:	e3100001 	tst	r0, #1
   13d74:	1a00007d 	bne	13f70 <printf_core+0x1240>
   13d78:	e59f70dc 	ldr	r7, [pc, #220]	; 13e5c <printf_core+0x112c>
   13d7c:	e1540006 	cmp	r4, r6
   13d80:	e04a7007 	sub	r7, sl, r7
   13d84:	e16f7f17 	clz	r7, r7
   13d88:	e1a072a7 	lsr	r7, r7, #5
   13d8c:	23a07000 	movcs	r7, #0
   13d90:	e3570000 	cmp	r7, #0
   13d94:	15167004 	ldrne	r7, [r6, #-4]
   13d98:	12073001 	andne	r3, r7, #1
   13d9c:	1a000074 	bne	13f74 <printf_core+0x1244>
   13da0:	e58d7040 	str	r7, [sp, #64]	; 0x40
   13da4:	ea000073 	b	13f78 <printf_core+0x1248>
   13da8:	e355001d 	cmp	r5, #29
   13dac:	e59d3014 	ldr	r3, [sp, #20]
   13db0:	e3a00000 	mov	r0, #0
   13db4:	b1a06005 	movlt	r6, r5
   13db8:	a3a0601d 	movge	r6, #29
   13dbc:	e246a020 	sub	sl, r6, #32
   13dc0:	e2437004 	sub	r7, r3, #4
   13dc4:	e2663020 	rsb	r3, r6, #32
   13dc8:	e58d305c 	str	r3, [sp, #92]	; 0x5c
   13dcc:	e1570004 	cmp	r7, r4
   13dd0:	2a000022 	bcs	13e60 <printf_core+0x1130>
   13dd4:	e3500000 	cmp	r0, #0
   13dd8:	e59d3014 	ldr	r3, [sp, #20]
   13ddc:	15040004 	strne	r0, [r4, #-4]
   13de0:	12444004 	subne	r4, r4, #4
   13de4:	e1530004 	cmp	r3, r4
   13de8:	e58d3014 	str	r3, [sp, #20]
   13dec:	9a000002 	bls	13dfc <printf_core+0x10cc>
   13df0:	e5332004 	ldr	r2, [r3, #-4]!
   13df4:	e3520000 	cmp	r2, #0
   13df8:	0afffff9 	beq	13de4 <printf_core+0x10b4>
   13dfc:	e0455006 	sub	r5, r5, r6
   13e00:	e3a03001 	mov	r3, #1
   13e04:	eaffff8c 	b	13c3c <printf_core+0xf0c>
   13e08:	00012889 	andeq	r2, r1, r9, lsl #17
   13e0c:	0001647a 	andeq	r6, r1, sl, ror r4
   13e10:	0000000c 	andeq	r0, r0, ip
   13e14:	0001664a 	andeq	r6, r1, sl, asr #12
   13e18:	00016444 	andeq	r6, r1, r4, asr #8
   13e1c:	00016445 	andeq	r6, r1, r5, asr #8
   13e20:	00016446 	andeq	r6, r1, r6, asr #8
   13e24:	0001644e 	andeq	r6, r1, lr, asr #8
   13e28:	00016455 	andeq	r6, r1, r5, asr r4
   13e2c:	0001645b 	andeq	r6, r1, fp, asr r4
   13e30:	7fefffff 	svcvc	0x00efffff
   13e34:	00016468 	andeq	r6, r1, r8, ror #8
   13e38:	0001646c 	andeq	r6, r1, ip, ror #8
   13e3c:	00016474 	andeq	r6, r1, r4, ror r4
   13e40:	00016470 	andeq	r6, r1, r0, ror r4
   13e44:	00016458 	andeq	r6, r1, r8, asr r4
   13e48:	40200000 	eormi	r0, r0, r0
   13e4c:	40300000 	eorsmi	r0, r0, r0
   13e50:	41b00000 	movsmi	r0, r0
   13e54:	41cdcd65 	bicmi	ip, sp, r5, ror #26
   13e58:	38e38e39 	stmiacc	r3!, {r0, r3, r4, r5, r9, sl, fp, pc}^
   13e5c:	3b9aca00 	blcc	fe6c6664 <__bss_end__+0xfe69e5b4>
   13e60:	e5973000 	ldr	r3, [r7]
   13e64:	e3a02000 	mov	r2, #0
   13e68:	e59d105c 	ldr	r1, [sp, #92]	; 0x5c
   13e6c:	e1822a13 	orr	r2, r2, r3, lsl sl
   13e70:	e1822133 	orr	r2, r2, r3, lsr r1
   13e74:	e1a03613 	lsl	r3, r3, r6
   13e78:	e58d2034 	str	r2, [sp, #52]	; 0x34
   13e7c:	e58d3030 	str	r3, [sp, #48]	; 0x30
   13e80:	e1cd23d0 	ldrd	r2, [sp, #48]	; 0x30
   13e84:	e0922000 	adds	r2, r2, r0
   13e88:	e2a33000 	adc	r3, r3, #0
   13e8c:	e1cd24f8 	strd	r2, [sp, #72]	; 0x48
   13e90:	e1cd04d8 	ldrd	r0, [sp, #72]	; 0x48
   13e94:	e28f3fa1 	add	r3, pc, #644	; 0x284
   13e98:	e1c320d0 	ldrd	r2, [r3]
   13e9c:	eb00083e 	bl	15f9c <__aeabi_uldivmod>
   13ea0:	e1cd04d8 	ldrd	r0, [sp, #72]	; 0x48
   13ea4:	e4072004 	str	r2, [r7], #-4
   13ea8:	e28f3e27 	add	r3, pc, #624	; 0x270
   13eac:	e1c320d0 	ldrd	r2, [r3]
   13eb0:	eb000839 	bl	15f9c <__aeabi_uldivmod>
   13eb4:	eaffffc4 	b	13dcc <printf_core+0x109c>
   13eb8:	e3730009 	cmn	r3, #9
   13ebc:	e1a0c004 	mov	ip, r4
   13ec0:	a2631000 	rsbge	r1, r3, #0
   13ec4:	b3a01009 	movlt	r1, #9
   13ec8:	e1a05116 	lsl	r5, r6, r1
   13ecc:	e2455001 	sub	r5, r5, #1
   13ed0:	e1a02157 	asr	r2, r7, r1
   13ed4:	e58d2040 	str	r2, [sp, #64]	; 0x40
   13ed8:	e3a02000 	mov	r2, #0
   13edc:	e59de014 	ldr	lr, [sp, #20]
   13ee0:	e15c000e 	cmp	ip, lr
   13ee4:	3a000014 	bcc	13f3c <printf_core+0x120c>
   13ee8:	e594c000 	ldr	ip, [r4]
   13eec:	e0833001 	add	r3, r3, r1
   13ef0:	e35c0000 	cmp	ip, #0
   13ef4:	02844004 	addeq	r4, r4, #4
   13ef8:	e3520000 	cmp	r2, #0
   13efc:	159dc014 	ldrne	ip, [sp, #20]
   13f00:	148c2004 	strne	r2, [ip], #4
   13f04:	158dc014 	strne	ip, [sp, #20]
   13f08:	e59dc038 	ldr	ip, [sp, #56]	; 0x38
   13f0c:	e59d201c 	ldr	r2, [sp, #28]
   13f10:	e35c0066 	cmp	ip, #102	; 0x66
   13f14:	e59dc014 	ldr	ip, [sp, #20]
   13f18:	11a02004 	movne	r2, r4
   13f1c:	e04cc002 	sub	ip, ip, r2
   13f20:	e150014c 	cmp	r0, ip, asr #2
   13f24:	b59dc048 	ldrlt	ip, [sp, #72]	; 0x48
   13f28:	b082200c 	addlt	r2, r2, ip
   13f2c:	b58d2014 	strlt	r2, [sp, #20]
   13f30:	e3a02001 	mov	r2, #1
   13f34:	e58d2040 	str	r2, [sp, #64]	; 0x40
   13f38:	eaffff4d 	b	13c74 <printf_core+0xf44>
   13f3c:	e59ce000 	ldr	lr, [ip]
   13f40:	e082213e 	add	r2, r2, lr, lsr r1
   13f44:	e48c2004 	str	r2, [ip], #4
   13f48:	e00e2005 	and	r2, lr, r5
   13f4c:	e59de040 	ldr	lr, [sp, #64]	; 0x40
   13f50:	e002029e 	mul	r2, lr, r2
   13f54:	eaffffe0 	b	13edc <printf_core+0x11ac>
   13f58:	e0030391 	mul	r3, r1, r3
   13f5c:	e2855001 	add	r5, r5, #1
   13f60:	eaffff53 	b	13cb4 <printf_core+0xf84>
   13f64:	e00a0a92 	mul	sl, r2, sl
   13f68:	e2833001 	add	r3, r3, #1
   13f6c:	eaffff72 	b	13d3c <printf_core+0x100c>
   13f70:	e3a03001 	mov	r3, #1
   13f74:	e58d3040 	str	r3, [sp, #64]	; 0x40
   13f78:	e15100ca 	cmp	r1, sl, asr #1
   13f7c:	e59f71a4 	ldr	r7, [pc, #420]	; 14128 <printf_core+0x13f8>
   13f80:	359f31a4 	ldrcc	r3, [pc, #420]	; 1412c <printf_core+0x13fc>
   13f84:	33a02000 	movcc	r2, #0
   13f88:	3a00000a 	bcc	13fb8 <printf_core+0x1288>
   13f8c:	159f319c 	ldrne	r3, [pc, #412]	; 14130 <printf_core+0x1400>
   13f90:	13a02000 	movne	r2, #0
   13f94:	1a000007 	bne	13fb8 <printf_core+0x1288>
   13f98:	e59de014 	ldr	lr, [sp, #20]
   13f9c:	e2863004 	add	r3, r6, #4
   13fa0:	e59fc18c 	ldr	ip, [pc, #396]	; 14134 <printf_core+0x1404>
   13fa4:	e3a02000 	mov	r2, #0
   13fa8:	e59f0180 	ldr	r0, [pc, #384]	; 14130 <printf_core+0x1400>
   13fac:	e15e0003 	cmp	lr, r3
   13fb0:	01a0300c 	moveq	r3, ip
   13fb4:	11a03000 	movne	r3, r0
   13fb8:	e59d0024 	ldr	r0, [sp, #36]	; 0x24
   13fbc:	e3500000 	cmp	r0, #0
   13fc0:	0a000004 	beq	13fd8 <printf_core+0x12a8>
   13fc4:	e59d0028 	ldr	r0, [sp, #40]	; 0x28
   13fc8:	e5d00000 	ldrb	r0, [r0]
   13fcc:	e350002d 	cmp	r0, #45	; 0x2d
   13fd0:	02877102 	addeq	r7, r7, #-2147483648	; 0x80000000
   13fd4:	02833102 	addeq	r3, r3, #-2147483648	; 0x80000000
   13fd8:	e59d0048 	ldr	r0, [sp, #72]	; 0x48
   13fdc:	e0401001 	sub	r1, r0, r1
   13fe0:	e59d0040 	ldr	r0, [sp, #64]	; 0x40
   13fe4:	e58d1048 	str	r1, [sp, #72]	; 0x48
   13fe8:	e1a01007 	mov	r1, r7
   13fec:	eb000686 	bl	15a0c <__adddf3>
   13ff0:	e1a03001 	mov	r3, r1
   13ff4:	e1a02000 	mov	r2, r0
   13ff8:	e1a01007 	mov	r1, r7
   13ffc:	e59d0040 	ldr	r0, [sp, #64]	; 0x40
   14000:	eb0007a0 	bl	15e88 <__aeabi_dcmpeq>
   14004:	e59d3048 	ldr	r3, [sp, #72]	; 0x48
   14008:	e3500000 	cmp	r0, #0
   1400c:	15863000 	strne	r3, [r6]
   14010:	1a000010 	bne	14058 <printf_core+0x1328>
   14014:	e59f111c 	ldr	r1, [pc, #284]	; 14138 <printf_core+0x1408>
   14018:	e1a02006 	mov	r2, r6
   1401c:	e08a3003 	add	r3, sl, r3
   14020:	e5863000 	str	r3, [r6]
   14024:	e1a06002 	mov	r6, r2
   14028:	e4123004 	ldr	r3, [r2], #-4
   1402c:	e1530001 	cmp	r3, r1
   14030:	8a00002e 	bhi	140f0 <printf_core+0x13c0>
   14034:	e59d301c 	ldr	r3, [sp, #28]
   14038:	e5942000 	ldr	r2, [r4]
   1403c:	e0435004 	sub	r5, r3, r4
   14040:	e3a0300a 	mov	r3, #10
   14044:	e1a01003 	mov	r1, r3
   14048:	e1a05145 	asr	r5, r5, #2
   1404c:	e0855185 	add	r5, r5, r5, lsl #3
   14050:	e1520003 	cmp	r2, r3
   14054:	2a00002d 	bcs	14110 <printf_core+0x13e0>
   14058:	e59d3014 	ldr	r3, [sp, #20]
   1405c:	e2866004 	add	r6, r6, #4
   14060:	e1530006 	cmp	r3, r6
   14064:	21a03006 	movcs	r3, r6
   14068:	e58d3014 	str	r3, [sp, #20]
   1406c:	e59d3014 	ldr	r3, [sp, #20]
   14070:	e1530004 	cmp	r3, r4
   14074:	e58d3014 	str	r3, [sp, #20]
   14078:	9a000002 	bls	14088 <printf_core+0x1358>
   1407c:	e5332004 	ldr	r2, [r3, #-4]!
   14080:	e3520000 	cmp	r2, #0
   14084:	0afffff9 	beq	14070 <printf_core+0x1340>
   14088:	e59d3038 	ldr	r3, [sp, #56]	; 0x38
   1408c:	e3530067 	cmp	r3, #103	; 0x67
   14090:	1a000041 	bne	1419c <printf_core+0x146c>
   14094:	e59d3010 	ldr	r3, [sp, #16]
   14098:	e35b0000 	cmp	fp, #0
   1409c:	03a0b001 	moveq	fp, #1
   140a0:	e3750004 	cmn	r5, #4
   140a4:	a15b0005 	cmpge	fp, r5
   140a8:	c2433001 	subgt	r3, r3, #1
   140ac:	c58d3010 	strgt	r3, [sp, #16]
   140b0:	c2853001 	addgt	r3, r5, #1
   140b4:	d2433002 	suble	r3, r3, #2
   140b8:	c04bb003 	subgt	fp, fp, r3
   140bc:	d58d3010 	strle	r3, [sp, #16]
   140c0:	e59d3008 	ldr	r3, [sp, #8]
   140c4:	d24bb001 	suble	fp, fp, #1
   140c8:	e2136008 	ands	r6, r3, #8
   140cc:	1a000032 	bne	1419c <printf_core+0x146c>
   140d0:	e59d3014 	ldr	r3, [sp, #20]
   140d4:	e1530004 	cmp	r3, r4
   140d8:	9a000002 	bls	140e8 <printf_core+0x13b8>
   140dc:	e513a004 	ldr	sl, [r3, #-4]
   140e0:	e35a0000 	cmp	sl, #0
   140e4:	1a000096 	bne	14344 <printf_core+0x1614>
   140e8:	e3a06009 	mov	r6, #9
   140ec:	ea00001c 	b	14164 <printf_core+0x1434>
   140f0:	e1540002 	cmp	r4, r2
   140f4:	e5820004 	str	r0, [r2, #4]
   140f8:	85040004 	strhi	r0, [r4, #-4]
   140fc:	82444004 	subhi	r4, r4, #4
   14100:	e5923000 	ldr	r3, [r2]
   14104:	e2833001 	add	r3, r3, #1
   14108:	e5823000 	str	r3, [r2]
   1410c:	eaffffc4 	b	14024 <printf_core+0x12f4>
   14110:	e0030391 	mul	r3, r1, r3
   14114:	e2855001 	add	r5, r5, #1
   14118:	eaffffcc 	b	14050 <printf_core+0x1320>
   1411c:	e320f000 	nop	{0}
   14120:	3b9aca00 	blcc	fe6c6928 <__bss_end__+0xfe69e878>
   14124:	00000000 	andeq	r0, r0, r0
   14128:	43400000 	movtmi	r0, #0
   1412c:	3fe00000 	svccc	0x00e00000
   14130:	3ff80000 	svccc	0x00f80000
   14134:	3ff00000 	svccc	0x00f00000	; IMB
   14138:	3b9ac9ff 	blcc	fe6c693c <__bss_end__+0xfe69e88c>
   1413c:	00016478 	andeq	r6, r1, r8, ror r4
   14140:	00016444 	andeq	r6, r1, r4, asr #8
   14144:	e0070793 	mul	r7, r3, r7
   14148:	e2866001 	add	r6, r6, #1
   1414c:	e1a01007 	mov	r1, r7
   14150:	e1a0000a 	mov	r0, sl
   14154:	eb000621 	bl	159e0 <__aeabi_uidivmod>
   14158:	e3a0300a 	mov	r3, #10
   1415c:	e3510000 	cmp	r1, #0
   14160:	0afffff7 	beq	14144 <printf_core+0x1414>
   14164:	e59d201c 	ldr	r2, [sp, #28]
   14168:	e59d3014 	ldr	r3, [sp, #20]
   1416c:	e0433002 	sub	r3, r3, r2
   14170:	e59d2010 	ldr	r2, [sp, #16]
   14174:	e1a03143 	asr	r3, r3, #2
   14178:	e3822020 	orr	r2, r2, #32
   1417c:	e2433001 	sub	r3, r3, #1
   14180:	e3520066 	cmp	r2, #102	; 0x66
   14184:	e0833183 	add	r3, r3, r3, lsl #3
   14188:	10853003 	addne	r3, r5, r3
   1418c:	e0436006 	sub	r6, r3, r6
   14190:	e1c66fc6 	bic	r6, r6, r6, asr #31
   14194:	e15b0006 	cmp	fp, r6
   14198:	a1a0b006 	movge	fp, r6
   1419c:	e37b010e 	cmn	fp, #-2147483645	; 0x80000003
   141a0:	cafffd48 	bgt	136c8 <printf_core+0x998>
   141a4:	e59d3008 	ldr	r3, [sp, #8]
   141a8:	e3e07102 	mvn	r7, #-2147483648	; 0x80000000
   141ac:	e2033008 	and	r3, r3, #8
   141b0:	e58d3038 	str	r3, [sp, #56]	; 0x38
   141b4:	e19b3003 	orrs	r3, fp, r3
   141b8:	e58d3040 	str	r3, [sp, #64]	; 0x40
   141bc:	e28b3001 	add	r3, fp, #1
   141c0:	13a02001 	movne	r2, #1
   141c4:	03a02000 	moveq	r2, #0
   141c8:	e082a003 	add	sl, r2, r3
   141cc:	e59d3010 	ldr	r3, [sp, #16]
   141d0:	e047700a 	sub	r7, r7, sl
   141d4:	e3836020 	orr	r6, r3, #32
   141d8:	e3560066 	cmp	r6, #102	; 0x66
   141dc:	1a00005a 	bne	1434c <printf_core+0x161c>
   141e0:	e1550007 	cmp	r5, r7
   141e4:	cafffd37 	bgt	136c8 <printf_core+0x998>
   141e8:	e3550000 	cmp	r5, #0
   141ec:	c08aa005 	addgt	sl, sl, r5
   141f0:	e59d3024 	ldr	r3, [sp, #36]	; 0x24
   141f4:	e3530000 	cmp	r3, #0
   141f8:	03e03102 	mvneq	r3, #-2147483648	; 0x80000000
   141fc:	13e03106 	mvnne	r3, #-2147483647	; 0x80000001
   14200:	e153000a 	cmp	r3, sl
   14204:	bafffd2f 	blt	136c8 <printf_core+0x998>
   14208:	e59d3024 	ldr	r3, [sp, #36]	; 0x24
   1420c:	e3a01020 	mov	r1, #32
   14210:	e59d200c 	ldr	r2, [sp, #12]
   14214:	e1a00009 	mov	r0, r9
   14218:	e083a00a 	add	sl, r3, sl
   1421c:	e59d3008 	ldr	r3, [sp, #8]
   14220:	e58d3000 	str	r3, [sp]
   14224:	e1a0300a 	mov	r3, sl
   14228:	ebfffa9e 	bl	12ca8 <pad>
   1422c:	e59d2024 	ldr	r2, [sp, #36]	; 0x24
   14230:	e59d1028 	ldr	r1, [sp, #40]	; 0x28
   14234:	e1a00009 	mov	r0, r9
   14238:	ebfffa49 	bl	12b64 <out>
   1423c:	e59d3008 	ldr	r3, [sp, #8]
   14240:	e59d200c 	ldr	r2, [sp, #12]
   14244:	e3a01030 	mov	r1, #48	; 0x30
   14248:	e2233801 	eor	r3, r3, #65536	; 0x10000
   1424c:	e1a00009 	mov	r0, r9
   14250:	e58d3000 	str	r3, [sp]
   14254:	e1a0300a 	mov	r3, sl
   14258:	ebfffa92 	bl	12ca8 <pad>
   1425c:	e3560066 	cmp	r6, #102	; 0x66
   14260:	1a000081 	bne	1446c <printf_core+0x173c>
   14264:	e59d301c 	ldr	r3, [sp, #28]
   14268:	e28d6090 	add	r6, sp, #144	; 0x90
   1426c:	e2867009 	add	r7, r6, #9
   14270:	e1530004 	cmp	r3, r4
   14274:	31a04003 	movcc	r4, r3
   14278:	e1a05004 	mov	r5, r4
   1427c:	e59d301c 	ldr	r3, [sp, #28]
   14280:	e1530005 	cmp	r3, r5
   14284:	2a00004b 	bcs	143b8 <printf_core+0x1688>
   14288:	e2832004 	add	r2, r3, #4
   1428c:	e2441003 	sub	r1, r4, #3
   14290:	e2833001 	add	r3, r3, #1
   14294:	e0422004 	sub	r2, r2, r4
   14298:	e1530001 	cmp	r3, r1
   1429c:	e59d3040 	ldr	r3, [sp, #64]	; 0x40
   142a0:	e3c22003 	bic	r2, r2, #3
   142a4:	33a02000 	movcc	r2, #0
   142a8:	e3530000 	cmp	r3, #0
   142ac:	e0844002 	add	r4, r4, r2
   142b0:	0a00000f 	beq	142f4 <printf_core+0x15c4>
   142b4:	e51f1180 	ldr	r1, [pc, #-384]	; 1413c <printf_core+0x140c>
   142b8:	e3a02001 	mov	r2, #1
   142bc:	e1a00009 	mov	r0, r9
   142c0:	e28d6090 	add	r6, sp, #144	; 0x90
   142c4:	ebfffa26 	bl	12b64 <out>
   142c8:	e2865009 	add	r5, r6, #9
   142cc:	e1a0800b 	mov	r8, fp
   142d0:	e59d3014 	ldr	r3, [sp, #20]
   142d4:	e1a01004 	mov	r1, r4
   142d8:	e1530004 	cmp	r3, r4
   142dc:	93a03000 	movls	r3, #0
   142e0:	83a03001 	movhi	r3, #1
   142e4:	e3580000 	cmp	r8, #0
   142e8:	d3a03000 	movle	r3, #0
   142ec:	e3530000 	cmp	r3, #0
   142f0:	1a000048 	bne	14418 <printf_core+0x16e8>
   142f4:	e3a03000 	mov	r3, #0
   142f8:	e3a01030 	mov	r1, #48	; 0x30
   142fc:	e58d3000 	str	r3, [sp]
   14300:	e1a00009 	mov	r0, r9
   14304:	e3a03009 	mov	r3, #9
   14308:	e0882003 	add	r2, r8, r3
   1430c:	ebfffa65 	bl	12ca8 <pad>
   14310:	e59d3008 	ldr	r3, [sp, #8]
   14314:	e3a01020 	mov	r1, #32
   14318:	e59d200c 	ldr	r2, [sp, #12]
   1431c:	e1a00009 	mov	r0, r9
   14320:	e2233a02 	eor	r3, r3, #8192	; 0x2000
   14324:	e58d3000 	str	r3, [sp]
   14328:	e1a0300a 	mov	r3, sl
   1432c:	ebfffa5d 	bl	12ca8 <pad>
   14330:	e59d300c 	ldr	r3, [sp, #12]
   14334:	e153000a 	cmp	r3, sl
   14338:	a1a08003 	movge	r8, r3
   1433c:	b1a0800a 	movlt	r8, sl
   14340:	eafffcdd 	b	136bc <printf_core+0x98c>
   14344:	e3a0700a 	mov	r7, #10
   14348:	eaffff7f 	b	1414c <printf_core+0x141c>
   1434c:	e0250fc5 	eor	r0, r5, r5, asr #31
   14350:	e28d2090 	add	r2, sp, #144	; 0x90
   14354:	e0400fc5 	sub	r0, r0, r5, asr #31
   14358:	e1a01fc0 	asr	r1, r0, #31
   1435c:	ebfff9c3 	bl	12a70 <fmt_u>
   14360:	e28d2090 	add	r2, sp, #144	; 0x90
   14364:	e3a01030 	mov	r1, #48	; 0x30
   14368:	e0423000 	sub	r3, r2, r0
   1436c:	e3530001 	cmp	r3, #1
   14370:	da00000e 	ble	143b0 <printf_core+0x1680>
   14374:	e3550000 	cmp	r5, #0
   14378:	b3a0302d 	movlt	r3, #45	; 0x2d
   1437c:	a3a0302b 	movge	r3, #43	; 0x2b
   14380:	e5403001 	strb	r3, [r0, #-1]
   14384:	e2403002 	sub	r3, r0, #2
   14388:	e58d3058 	str	r3, [sp, #88]	; 0x58
   1438c:	e59d3010 	ldr	r3, [sp, #16]
   14390:	e59d2058 	ldr	r2, [sp, #88]	; 0x58
   14394:	e5403002 	strb	r3, [r0, #-2]
   14398:	e28d3090 	add	r3, sp, #144	; 0x90
   1439c:	e0433002 	sub	r3, r3, r2
   143a0:	e1530007 	cmp	r3, r7
   143a4:	cafffcc7 	bgt	136c8 <printf_core+0x998>
   143a8:	e08aa003 	add	sl, sl, r3
   143ac:	eaffff8f 	b	141f0 <printf_core+0x14c0>
   143b0:	e5601001 	strb	r1, [r0, #-1]!
   143b4:	eaffffeb 	b	14368 <printf_core+0x1638>
   143b8:	e1a02007 	mov	r2, r7
   143bc:	e3a01000 	mov	r1, #0
   143c0:	e5950000 	ldr	r0, [r5]
   143c4:	ebfff9a9 	bl	12a70 <fmt_u>
   143c8:	e1540005 	cmp	r4, r5
   143cc:	13a02030 	movne	r2, #48	; 0x30
   143d0:	e1a01000 	mov	r1, r0
   143d4:	11a03000 	movne	r3, r0
   143d8:	1a000005 	bne	143f4 <printf_core+0x16c4>
   143dc:	e1500007 	cmp	r0, r7
   143e0:	028d1098 	addeq	r1, sp, #152	; 0x98
   143e4:	03a03030 	moveq	r3, #48	; 0x30
   143e8:	05cd3098 	strbeq	r3, [sp, #152]	; 0x98
   143ec:	ea000004 	b	14404 <printf_core+0x16d4>
   143f0:	e5632001 	strb	r2, [r3, #-1]!
   143f4:	e1530006 	cmp	r3, r6
   143f8:	8afffffc 	bhi	143f0 <printf_core+0x16c0>
   143fc:	e1510006 	cmp	r1, r6
   14400:	21a01006 	movcs	r1, r6
   14404:	e0472001 	sub	r2, r7, r1
   14408:	e1a00009 	mov	r0, r9
   1440c:	ebfff9d4 	bl	12b64 <out>
   14410:	e2855004 	add	r5, r5, #4
   14414:	eaffff98 	b	1427c <printf_core+0x154c>
   14418:	e5910000 	ldr	r0, [r1]
   1441c:	e1a02005 	mov	r2, r5
   14420:	e3a01000 	mov	r1, #0
   14424:	e2844004 	add	r4, r4, #4
   14428:	ebfff990 	bl	12a70 <fmt_u>
   1442c:	e3a02030 	mov	r2, #48	; 0x30
   14430:	e1a03000 	mov	r3, r0
   14434:	e1530006 	cmp	r3, r6
   14438:	8a000009 	bhi	14464 <printf_core+0x1734>
   1443c:	e3580009 	cmp	r8, #9
   14440:	b1a02008 	movlt	r2, r8
   14444:	a3a02009 	movge	r2, #9
   14448:	e1500006 	cmp	r0, r6
   1444c:	e2488009 	sub	r8, r8, #9
   14450:	31a01000 	movcc	r1, r0
   14454:	21a01006 	movcs	r1, r6
   14458:	e1a00009 	mov	r0, r9
   1445c:	ebfff9c0 	bl	12b64 <out>
   14460:	eaffff9a 	b	142d0 <printf_core+0x15a0>
   14464:	e5632001 	strb	r2, [r3, #-1]!
   14468:	eafffff1 	b	14434 <printf_core+0x1704>
   1446c:	e59d3014 	ldr	r3, [sp, #20]
   14470:	e28d6090 	add	r6, sp, #144	; 0x90
   14474:	e2867009 	add	r7, r6, #9
   14478:	e1a05004 	mov	r5, r4
   1447c:	e1530004 	cmp	r3, r4
   14480:	92843004 	addls	r3, r4, #4
   14484:	958d3014 	strls	r3, [sp, #20]
   14488:	e59d3014 	ldr	r3, [sp, #20]
   1448c:	e1550003 	cmp	r5, r3
   14490:	23a03000 	movcs	r3, #0
   14494:	33a03001 	movcc	r3, #1
   14498:	e35b0000 	cmp	fp, #0
   1449c:	b3a03000 	movlt	r3, #0
   144a0:	e3530000 	cmp	r3, #0
   144a4:	1a00000c 	bne	144dc <printf_core+0x17ac>
   144a8:	e1a00009 	mov	r0, r9
   144ac:	e58d3000 	str	r3, [sp]
   144b0:	e3a01030 	mov	r1, #48	; 0x30
   144b4:	e3a03012 	mov	r3, #18
   144b8:	e08b2003 	add	r2, fp, r3
   144bc:	ebfff9f9 	bl	12ca8 <pad>
   144c0:	e59d3058 	ldr	r3, [sp, #88]	; 0x58
   144c4:	e28d2090 	add	r2, sp, #144	; 0x90
   144c8:	e1a00009 	mov	r0, r9
   144cc:	e0422003 	sub	r2, r2, r3
   144d0:	e1a01003 	mov	r1, r3
   144d4:	ebfff9a2 	bl	12b64 <out>
   144d8:	eaffff8c 	b	14310 <printf_core+0x15e0>
   144dc:	e1a02007 	mov	r2, r7
   144e0:	e3a01000 	mov	r1, #0
   144e4:	e5950000 	ldr	r0, [r5]
   144e8:	ebfff960 	bl	12a70 <fmt_u>
   144ec:	e1500007 	cmp	r0, r7
   144f0:	e1a01000 	mov	r1, r0
   144f4:	028d1098 	addeq	r1, sp, #152	; 0x98
   144f8:	03a03030 	moveq	r3, #48	; 0x30
   144fc:	05cd3098 	strbeq	r3, [sp, #152]	; 0x98
   14500:	e1540005 	cmp	r4, r5
   14504:	11a03001 	movne	r3, r1
   14508:	13a02030 	movne	r2, #48	; 0x30
   1450c:	1a00000f 	bne	14550 <printf_core+0x1820>
   14510:	e3a02001 	mov	r2, #1
   14514:	e1a00009 	mov	r0, r9
   14518:	e2813001 	add	r3, r1, #1
   1451c:	e58d3010 	str	r3, [sp, #16]
   14520:	ebfff98f 	bl	12b64 <out>
   14524:	e59d3038 	ldr	r3, [sp, #56]	; 0x38
   14528:	e19b3003 	orrs	r3, fp, r3
   1452c:	e59d3010 	ldr	r3, [sp, #16]
   14530:	0a00000b 	beq	14564 <printf_core+0x1834>
   14534:	e51f1400 	ldr	r1, [pc, #-1024]	; 1413c <printf_core+0x140c>
   14538:	e3a02001 	mov	r2, #1
   1453c:	e1a00009 	mov	r0, r9
   14540:	ebfff987 	bl	12b64 <out>
   14544:	e59d3010 	ldr	r3, [sp, #16]
   14548:	ea000005 	b	14564 <printf_core+0x1834>
   1454c:	e5632001 	strb	r2, [r3, #-1]!
   14550:	e1530006 	cmp	r3, r6
   14554:	8afffffc 	bhi	1454c <printf_core+0x181c>
   14558:	e1510006 	cmp	r1, r6
   1455c:	31a03001 	movcc	r3, r1
   14560:	21a03006 	movcs	r3, r6
   14564:	e0478003 	sub	r8, r7, r3
   14568:	e1a01003 	mov	r1, r3
   1456c:	e15b0008 	cmp	fp, r8
   14570:	e1a00009 	mov	r0, r9
   14574:	e2855004 	add	r5, r5, #4
   14578:	b1a0200b 	movlt	r2, fp
   1457c:	a1a02008 	movge	r2, r8
   14580:	ebfff977 	bl	12b64 <out>
   14584:	e04bb008 	sub	fp, fp, r8
   14588:	eaffffbe 	b	14488 <printf_core+0x1758>
   1458c:	e51f6454 	ldr	r6, [pc, #-1108]	; 14140 <printf_core+0x1410>
   14590:	e28d70d0 	add	r7, sp, #208	; 0xd0
   14594:	eafffb7e 	b	13394 <printf_core+0x664>
   14598:	e59d0020 	ldr	r0, [sp, #32]
   1459c:	e59d303c 	ldr	r3, [sp, #60]	; 0x3c
   145a0:	e59d202c 	ldr	r2, [sp, #44]	; 0x2c
   145a4:	e0830180 	add	r0, r3, r0, lsl #3
   145a8:	ebfff975 	bl	12b84 <pop_arg>
   145ac:	e59d3020 	ldr	r3, [sp, #32]
   145b0:	e2833001 	add	r3, r3, #1
   145b4:	e58d3020 	str	r3, [sp, #32]
   145b8:	e353000a 	cmp	r3, #10
   145bc:	1afff9f0 	bne	12d84 <printf_core+0x54>
   145c0:	e3a03001 	mov	r3, #1
   145c4:	eafffad4 	b	1311c <printf_core+0x3ec>

000145c8 <vfprintf>:
   145c8:	e92d43f0 	push	{r4, r5, r6, r7, r8, r9, lr}
   145cc:	e24dd0dc 	sub	sp, sp, #220	; 0xdc
   145d0:	e28d9010 	add	r9, sp, #16
   145d4:	e1a05001 	mov	r5, r1
   145d8:	e1a06002 	mov	r6, r2
   145dc:	e3a01000 	mov	r1, #0
   145e0:	e3a02028 	mov	r2, #40	; 0x28
   145e4:	e1a04000 	mov	r4, r0
   145e8:	e1a00009 	mov	r0, r9
   145ec:	eb000046 	bl	1470c <memset>
   145f0:	e1a01005 	mov	r1, r5
   145f4:	e28d3038 	add	r3, sp, #56	; 0x38
   145f8:	e28d200c 	add	r2, sp, #12
   145fc:	e3a00000 	mov	r0, #0
   14600:	e58d9000 	str	r9, [sp]
   14604:	e58d600c 	str	r6, [sp, #12]
   14608:	ebfff9c8 	bl	12d30 <printf_core>
   1460c:	e3500000 	cmp	r0, #0
   14610:	b3e05000 	mvnlt	r5, #0
   14614:	ba000039 	blt	14700 <vfprintf+0x138>
   14618:	e594304c 	ldr	r3, [r4, #76]	; 0x4c
   1461c:	e3530000 	cmp	r3, #0
   14620:	b3a06000 	movlt	r6, #0
   14624:	ba000002 	blt	14634 <vfprintf+0x6c>
   14628:	e1a00004 	mov	r0, r4
   1462c:	eb00015e 	bl	14bac <__lockfile>
   14630:	e1a06000 	mov	r6, r0
   14634:	e5943000 	ldr	r3, [r4]
   14638:	e1d424da 	ldrsb	r2, [r4, #74]	; 0x4a
   1463c:	e2037020 	and	r7, r3, #32
   14640:	e3520000 	cmp	r2, #0
   14644:	d3c33020 	bicle	r3, r3, #32
   14648:	d5843000 	strle	r3, [r4]
   1464c:	e5943030 	ldr	r3, [r4, #48]	; 0x30
   14650:	e3530000 	cmp	r3, #0
   14654:	13a08000 	movne	r8, #0
   14658:	1a000008 	bne	14680 <vfprintf+0xb8>
   1465c:	e28d3088 	add	r3, sp, #136	; 0x88
   14660:	e594802c 	ldr	r8, [r4, #44]	; 0x2c
   14664:	e584301c 	str	r3, [r4, #28]
   14668:	e584302c 	str	r3, [r4, #44]	; 0x2c
   1466c:	e5843014 	str	r3, [r4, #20]
   14670:	e3a03050 	mov	r3, #80	; 0x50
   14674:	e5843030 	str	r3, [r4, #48]	; 0x30
   14678:	e28d30d8 	add	r3, sp, #216	; 0xd8
   1467c:	e5843010 	str	r3, [r4, #16]
   14680:	e1a01005 	mov	r1, r5
   14684:	e28d3038 	add	r3, sp, #56	; 0x38
   14688:	e28d200c 	add	r2, sp, #12
   1468c:	e1a00004 	mov	r0, r4
   14690:	e58d9000 	str	r9, [sp]
   14694:	ebfff9a5 	bl	12d30 <printf_core>
   14698:	e3580000 	cmp	r8, #0
   1469c:	e1a05000 	mov	r5, r0
   146a0:	0a00000d 	beq	146dc <vfprintf+0x114>
   146a4:	e3a02000 	mov	r2, #0
   146a8:	e5943024 	ldr	r3, [r4, #36]	; 0x24
   146ac:	e1a01002 	mov	r1, r2
   146b0:	e1a00004 	mov	r0, r4
   146b4:	e12fff33 	blx	r3
   146b8:	e5943014 	ldr	r3, [r4, #20]
   146bc:	e584802c 	str	r8, [r4, #44]	; 0x2c
   146c0:	e3530000 	cmp	r3, #0
   146c4:	e3a03000 	mov	r3, #0
   146c8:	e5843030 	str	r3, [r4, #48]	; 0x30
   146cc:	03e05000 	mvneq	r5, #0
   146d0:	e5843010 	str	r3, [r4, #16]
   146d4:	e584301c 	str	r3, [r4, #28]
   146d8:	e5843014 	str	r3, [r4, #20]
   146dc:	e5943000 	ldr	r3, [r4]
   146e0:	e3130020 	tst	r3, #32
   146e4:	e1877003 	orr	r7, r7, r3
   146e8:	e5847000 	str	r7, [r4]
   146ec:	13e05000 	mvnne	r5, #0
   146f0:	e3560000 	cmp	r6, #0
   146f4:	0a000001 	beq	14700 <vfprintf+0x138>
   146f8:	e1a00004 	mov	r0, r4
   146fc:	eb000145 	bl	14c18 <__unlockfile>
   14700:	e1a00005 	mov	r0, r5
   14704:	e28dd0dc 	add	sp, sp, #220	; 0xdc
   14708:	e8bd83f0 	pop	{r4, r5, r6, r7, r8, r9, pc}

0001470c <memset>:
   1470c:	e3520000 	cmp	r2, #0
   14710:	012fff1e 	bxeq	lr
   14714:	e0803002 	add	r3, r0, r2
   14718:	e3520002 	cmp	r2, #2
   1471c:	e6ef1071 	uxtb	r1, r1
   14720:	e5431001 	strb	r1, [r3, #-1]
   14724:	e5c01000 	strb	r1, [r0]
   14728:	912fff1e 	bxls	lr
   1472c:	e3520006 	cmp	r2, #6
   14730:	e5431002 	strb	r1, [r3, #-2]
   14734:	e5c01001 	strb	r1, [r0, #1]
   14738:	e5431003 	strb	r1, [r3, #-3]
   1473c:	e5c01002 	strb	r1, [r0, #2]
   14740:	912fff1e 	bxls	lr
   14744:	e3520008 	cmp	r2, #8
   14748:	e5431004 	strb	r1, [r3, #-4]
   1474c:	e5c01003 	strb	r1, [r0, #3]
   14750:	912fff1e 	bxls	lr
   14754:	e260c000 	rsb	ip, r0, #0
   14758:	e0811401 	add	r1, r1, r1, lsl #8
   1475c:	e20cc003 	and	ip, ip, #3
   14760:	e042200c 	sub	r2, r2, ip
   14764:	e080300c 	add	r3, r0, ip
   14768:	e3c22003 	bic	r2, r2, #3
   1476c:	e0811801 	add	r1, r1, r1, lsl #16
   14770:	e3520008 	cmp	r2, #8
   14774:	e780100c 	str	r1, [r0, ip]
   14778:	e083c002 	add	ip, r3, r2
   1477c:	e50c1004 	str	r1, [ip, #-4]
   14780:	912fff1e 	bxls	lr
   14784:	e3520018 	cmp	r2, #24
   14788:	e5831004 	str	r1, [r3, #4]
   1478c:	e5831008 	str	r1, [r3, #8]
   14790:	e50c100c 	str	r1, [ip, #-12]
   14794:	e50c1008 	str	r1, [ip, #-8]
   14798:	912fff1e 	bxls	lr
   1479c:	e583100c 	str	r1, [r3, #12]
   147a0:	e5831010 	str	r1, [r3, #16]
   147a4:	e5831014 	str	r1, [r3, #20]
   147a8:	e5831018 	str	r1, [r3, #24]
   147ac:	e50c101c 	str	r1, [ip, #-28]	; 0xffffffe4
   147b0:	e50c1018 	str	r1, [ip, #-24]	; 0xffffffe8
   147b4:	e50c1014 	str	r1, [ip, #-20]	; 0xffffffec
   147b8:	e50c1010 	str	r1, [ip, #-16]
   147bc:	e203c004 	and	ip, r3, #4
   147c0:	e28cc018 	add	ip, ip, #24
   147c4:	e042200c 	sub	r2, r2, ip
   147c8:	e083300c 	add	r3, r3, ip
   147cc:	e352001f 	cmp	r2, #31
   147d0:	e2833020 	add	r3, r3, #32
   147d4:	912fff1e 	bxls	lr
   147d8:	e2422020 	sub	r2, r2, #32
   147dc:	e5031020 	str	r1, [r3, #-32]	; 0xffffffe0
   147e0:	e503101c 	str	r1, [r3, #-28]	; 0xffffffe4
   147e4:	e5031018 	str	r1, [r3, #-24]	; 0xffffffe8
   147e8:	e5031014 	str	r1, [r3, #-20]	; 0xffffffec
   147ec:	e5031010 	str	r1, [r3, #-16]
   147f0:	e503100c 	str	r1, [r3, #-12]
   147f4:	e5031008 	str	r1, [r3, #-8]
   147f8:	e5031004 	str	r1, [r3, #-4]
   147fc:	eafffff2 	b	147cc <memset+0xc0>

00014800 <strcpy>:
   14800:	e92d4010 	push	{r4, lr}
   14804:	e1a04000 	mov	r4, r0
   14808:	eb0002a2 	bl	15298 <__stpcpy>
   1480c:	e1a00004 	mov	r0, r4
   14810:	e8bd8010 	pop	{r4, pc}

00014814 <strnlen>:
   14814:	e92d4070 	push	{r4, r5, r6, lr}
   14818:	e1a02001 	mov	r2, r1
   1481c:	e1a04001 	mov	r4, r1
   14820:	e3a01000 	mov	r1, #0
   14824:	e1a05000 	mov	r5, r0
   14828:	eb00026a 	bl	151d8 <memchr>
   1482c:	e3500000 	cmp	r0, #0
   14830:	10404005 	subne	r4, r0, r5
   14834:	e1a00004 	mov	r0, r4
   14838:	e8bd8070 	pop	{r4, r5, r6, pc}

0001483c <__lock>:
   1483c:	e59f3050 	ldr	r3, [pc, #80]	; 14894 <__lock+0x58>
   14840:	e593300c 	ldr	r3, [r3, #12]
   14844:	e3530000 	cmp	r3, #0
   14848:	012fff1e 	bxeq	lr
   1484c:	e92d4070 	push	{r4, r5, r6, lr}
   14850:	e2806004 	add	r6, r0, #4
   14854:	e1a04000 	mov	r4, r0
   14858:	e3a05001 	mov	r5, #1
   1485c:	f57ff05b 	dmb	ish
   14860:	e1943f9f 	ldrex	r3, [r4]
   14864:	e1842f95 	strex	r2, r5, [r4]
   14868:	e3520000 	cmp	r2, #0
   1486c:	1afffffb 	bne	14860 <__lock+0x24>
   14870:	f57ff05b 	dmb	ish
   14874:	e3530000 	cmp	r3, #0
   14878:	08bd8070 	popeq	{r4, r5, r6, pc}
   1487c:	e3a03001 	mov	r3, #1
   14880:	e1a01006 	mov	r1, r6
   14884:	e1a02003 	mov	r2, r3
   14888:	e1a00004 	mov	r0, r4
   1488c:	eb00001f 	bl	14910 <__wait>
   14890:	eafffff1 	b	1485c <__lock+0x20>
   14894:	0002806c 	andeq	r8, r2, ip, rrx

00014898 <__unlock>:
   14898:	e5903000 	ldr	r3, [r0]
   1489c:	e3530000 	cmp	r3, #0
   148a0:	012fff1e 	bxeq	lr
   148a4:	e92d4070 	push	{r4, r5, r6, lr}
   148a8:	e1a04000 	mov	r4, r0
   148ac:	f57ff05b 	dmb	ish
   148b0:	e3a03000 	mov	r3, #0
   148b4:	e5803000 	str	r3, [r0]
   148b8:	f57ff05b 	dmb	ish
   148bc:	e5903004 	ldr	r3, [r0, #4]
   148c0:	e3530000 	cmp	r3, #0
   148c4:	08bd8070 	popeq	{r4, r5, r6, pc}
   148c8:	e59f503c 	ldr	r5, [pc, #60]	; 1490c <__unlock+0x74>
   148cc:	e1a01000 	mov	r1, r0
   148d0:	e3a03001 	mov	r3, #1
   148d4:	e3a02081 	mov	r2, #129	; 0x81
   148d8:	e3a000f0 	mov	r0, #240	; 0xf0
   148dc:	e5956000 	ldr	r6, [r5]
   148e0:	e12fff36 	blx	r6
   148e4:	e3700026 	cmn	r0, #38	; 0x26
   148e8:	18bd8070 	popne	{r4, r5, r6, pc}
   148ec:	e595e000 	ldr	lr, [r5]
   148f0:	e3a03001 	mov	r3, #1
   148f4:	e1a01004 	mov	r1, r4
   148f8:	e1a02003 	mov	r2, r3
   148fc:	e3a000f0 	mov	r0, #240	; 0xf0
   14900:	e1a0c00e 	mov	ip, lr
   14904:	e8bd4070 	pop	{r4, r5, r6, lr}
   14908:	e12fff1c 	bx	ip
   1490c:	000280ac 	andeq	r8, r2, ip, lsr #1

00014910 <__wait>:
   14910:	e92d47f3 	push	{r0, r1, r4, r5, r6, r7, r8, r9, sl, lr}
   14914:	e2537000 	subs	r7, r3, #0
   14918:	e1a06000 	mov	r6, r0
   1491c:	e1a04001 	mov	r4, r1
   14920:	e1a05002 	mov	r5, r2
   14924:	13a07080 	movne	r7, #128	; 0x80
   14928:	e3a03065 	mov	r3, #101	; 0x65
   1492c:	e2533001 	subs	r3, r3, #1
   14930:	0a000011 	beq	1497c <__wait+0x6c>
   14934:	e3540000 	cmp	r4, #0
   14938:	0a00000a 	beq	14968 <__wait+0x58>
   1493c:	e5942000 	ldr	r2, [r4]
   14940:	e3520000 	cmp	r2, #0
   14944:	0a000007 	beq	14968 <__wait+0x58>
   14948:	f57ff05b 	dmb	ish
   1494c:	e1943f9f 	ldrex	r3, [r4]
   14950:	e2833001 	add	r3, r3, #1
   14954:	e1842f93 	strex	r2, r3, [r4]
   14958:	e3520000 	cmp	r2, #0
   1495c:	1afffffa 	bne	1494c <__wait+0x3c>
   14960:	f57ff05b 	dmb	ish
   14964:	ea000006 	b	14984 <__wait+0x74>
   14968:	e5962000 	ldr	r2, [r6]
   1496c:	e1520005 	cmp	r2, r5
   14970:	1a000011 	bne	149bc <__wait+0xac>
   14974:	f57ff05b 	dmb	ish
   14978:	eaffffeb 	b	1492c <__wait+0x1c>
   1497c:	e3540000 	cmp	r4, #0
   14980:	1afffff0 	bne	14948 <__wait+0x38>
   14984:	e59f807c 	ldr	r8, [pc, #124]	; 14a08 <__wait+0xf8>
   14988:	e3a09000 	mov	r9, #0
   1498c:	e5963000 	ldr	r3, [r6]
   14990:	e1530005 	cmp	r3, r5
   14994:	0a00000a 	beq	149c4 <__wait+0xb4>
   14998:	e3540000 	cmp	r4, #0
   1499c:	0a000006 	beq	149bc <__wait+0xac>
   149a0:	f57ff05b 	dmb	ish
   149a4:	e1943f9f 	ldrex	r3, [r4]
   149a8:	e2433001 	sub	r3, r3, #1
   149ac:	e1842f93 	strex	r2, r3, [r4]
   149b0:	e3520000 	cmp	r2, #0
   149b4:	1afffffa 	bne	149a4 <__wait+0x94>
   149b8:	f57ff05b 	dmb	ish
   149bc:	e28dd008 	add	sp, sp, #8
   149c0:	e8bd87f0 	pop	{r4, r5, r6, r7, r8, r9, sl, pc}
   149c4:	e598a000 	ldr	sl, [r8]
   149c8:	e1a03005 	mov	r3, r5
   149cc:	e1a02007 	mov	r2, r7
   149d0:	e1a01006 	mov	r1, r6
   149d4:	e3a000f0 	mov	r0, #240	; 0xf0
   149d8:	e58d9000 	str	r9, [sp]
   149dc:	e12fff3a 	blx	sl
   149e0:	e3700026 	cmn	r0, #38	; 0x26
   149e4:	1affffe8 	bne	1498c <__wait+0x7c>
   149e8:	e598a000 	ldr	sl, [r8]
   149ec:	e1a03005 	mov	r3, r5
   149f0:	e3a02000 	mov	r2, #0
   149f4:	e1a01006 	mov	r1, r6
   149f8:	e58d9000 	str	r9, [sp]
   149fc:	e3a000f0 	mov	r0, #240	; 0xf0
   14a00:	e12fff3a 	blx	sl
   14a04:	eaffffe0 	b	1498c <__wait+0x7c>
   14a08:	000280ac 	andeq	r8, r2, ip, lsr #1

00014a0c <__strerror_l>:
   14a0c:	e59fc044 	ldr	ip, [pc, #68]	; 14a58 <__strerror_l+0x4c>
   14a10:	e3a03000 	mov	r3, #0
   14a14:	e4dc2001 	ldrb	r2, [ip], #1
   14a18:	e3520000 	cmp	r2, #0
   14a1c:	0a000001 	beq	14a28 <__strerror_l+0x1c>
   14a20:	e1520000 	cmp	r2, r0
   14a24:	1a000001 	bne	14a30 <__strerror_l+0x24>
   14a28:	e59f002c 	ldr	r0, [pc, #44]	; 14a5c <__strerror_l+0x50>
   14a2c:	ea000005 	b	14a48 <__strerror_l+0x3c>
   14a30:	e2833001 	add	r3, r3, #1
   14a34:	eafffff6 	b	14a14 <__strerror_l+0x8>
   14a38:	e4d02001 	ldrb	r2, [r0], #1
   14a3c:	e3520000 	cmp	r2, #0
   14a40:	1afffffc 	bne	14a38 <__strerror_l+0x2c>
   14a44:	e2433001 	sub	r3, r3, #1
   14a48:	e3530000 	cmp	r3, #0
   14a4c:	1afffff9 	bne	14a38 <__strerror_l+0x2c>
   14a50:	e5911014 	ldr	r1, [r1, #20]
   14a54:	ea00000f 	b	14a98 <__lctrans>
   14a58:	0001665a 	andeq	r6, r1, sl, asr r6
   14a5c:	000166b2 			; <UNDEFINED> instruction: 0x000166b2

00014a60 <strerror>:
   14a60:	e59f1000 	ldr	r1, [pc]	; 14a68 <strerror+0x8>
   14a64:	eaffffe8 	b	14a0c <__strerror_l>
   14a68:	00016dc0 	andeq	r6, r1, r0, asr #27

00014a6c <abort>:
   14a6c:	e92d4010 	push	{r4, lr}
   14a70:	e3a00006 	mov	r0, #6
   14a74:	eb000036 	bl	14b54 <raise>
   14a78:	e3a00000 	mov	r0, #0
   14a7c:	eb00000b 	bl	14ab0 <__block_all_sigs>
   14a80:	e7f000f0 	udf	#0
   14a84:	e3a00009 	mov	r0, #9
   14a88:	eb000031 	bl	14b54 <raise>
   14a8c:	e3a0007f 	mov	r0, #127	; 0x7f
   14a90:	eb000222 	bl	15320 <_Exit>

00014a94 <__lctrans_impl>:
   14a94:	e12fff1e 	bx	lr

00014a98 <__lctrans>:
   14a98:	eafffffd 	b	14a94 <__lctrans_impl>

00014a9c <frexpl>:
   14a9c:	ea000236 	b	1537c <frexp>

00014aa0 <wctomb>:
   14aa0:	e3500000 	cmp	r0, #0
   14aa4:	012fff1e 	bxeq	lr
   14aa8:	e3a02000 	mov	r2, #0
   14aac:	ea00025b 	b	15420 <wcrtomb>

00014ab0 <__block_all_sigs>:
   14ab0:	e92d4013 	push	{r0, r1, r4, lr}
   14ab4:	e3a02008 	mov	r2, #8
   14ab8:	e58d2000 	str	r2, [sp]
   14abc:	e1a03000 	mov	r3, r0
   14ac0:	e59f2018 	ldr	r2, [pc, #24]	; 14ae0 <__block_all_sigs+0x30>
   14ac4:	e3a01000 	mov	r1, #0
   14ac8:	e3a000af 	mov	r0, #175	; 0xaf
   14acc:	e5924000 	ldr	r4, [r2]
   14ad0:	e59f200c 	ldr	r2, [pc, #12]	; 14ae4 <__block_all_sigs+0x34>
   14ad4:	e12fff34 	blx	r4
   14ad8:	e28dd008 	add	sp, sp, #8
   14adc:	e8bd8010 	pop	{r4, pc}
   14ae0:	000280ac 	andeq	r8, r2, ip, lsr #1
   14ae4:	00016dd8 	ldrdeq	r6, [r1], -r8

00014ae8 <__block_app_sigs>:
   14ae8:	e92d4013 	push	{r0, r1, r4, lr}
   14aec:	e3a02008 	mov	r2, #8
   14af0:	e58d2000 	str	r2, [sp]
   14af4:	e1a03000 	mov	r3, r0
   14af8:	e59f2018 	ldr	r2, [pc, #24]	; 14b18 <__block_app_sigs+0x30>
   14afc:	e3a01000 	mov	r1, #0
   14b00:	e3a000af 	mov	r0, #175	; 0xaf
   14b04:	e5924000 	ldr	r4, [r2]
   14b08:	e59f200c 	ldr	r2, [pc, #12]	; 14b1c <__block_app_sigs+0x34>
   14b0c:	e12fff34 	blx	r4
   14b10:	e28dd008 	add	sp, sp, #8
   14b14:	e8bd8010 	pop	{r4, pc}
   14b18:	000280ac 	andeq	r8, r2, ip, lsr #1
   14b1c:	00016de0 	andeq	r6, r1, r0, ror #27

00014b20 <__restore_sigs>:
   14b20:	e92d4013 	push	{r0, r1, r4, lr}
   14b24:	e3a03008 	mov	r3, #8
   14b28:	e58d3000 	str	r3, [sp]
   14b2c:	e1a02000 	mov	r2, r0
   14b30:	e59f3018 	ldr	r3, [pc, #24]	; 14b50 <__restore_sigs+0x30>
   14b34:	e3a01002 	mov	r1, #2
   14b38:	e3a000af 	mov	r0, #175	; 0xaf
   14b3c:	e5934000 	ldr	r4, [r3]
   14b40:	e3a03000 	mov	r3, #0
   14b44:	e12fff34 	blx	r4
   14b48:	e28dd008 	add	sp, sp, #8
   14b4c:	e8bd8010 	pop	{r4, pc}
   14b50:	000280ac 	andeq	r8, r2, ip, lsr #1

00014b54 <raise>:
   14b54:	e92d4030 	push	{r4, r5, lr}
   14b58:	e24dd084 	sub	sp, sp, #132	; 0x84
   14b5c:	e59f5044 	ldr	r5, [pc, #68]	; 14ba8 <raise+0x54>
   14b60:	e1a04000 	mov	r4, r0
   14b64:	e1a0000d 	mov	r0, sp
   14b68:	ebffffde 	bl	14ae8 <__block_app_sigs>
   14b6c:	e3a000e0 	mov	r0, #224	; 0xe0
   14b70:	e5953000 	ldr	r3, [r5]
   14b74:	e12fff33 	blx	r3
   14b78:	e1a02004 	mov	r2, r4
   14b7c:	e5953000 	ldr	r3, [r5]
   14b80:	e1a01000 	mov	r1, r0
   14b84:	e3a000ee 	mov	r0, #238	; 0xee
   14b88:	e12fff33 	blx	r3
   14b8c:	eb0001ef 	bl	15350 <__syscall_ret>
   14b90:	e1a04000 	mov	r4, r0
   14b94:	e1a0000d 	mov	r0, sp
   14b98:	ebffffe0 	bl	14b20 <__restore_sigs>
   14b9c:	e1a00004 	mov	r0, r4
   14ba0:	e28dd084 	add	sp, sp, #132	; 0x84
   14ba4:	e8bd8030 	pop	{r4, r5, pc}
   14ba8:	000280ac 	andeq	r8, r2, ip, lsr #1

00014bac <__lockfile>:
   14bac:	e92d4070 	push	{r4, r5, r6, lr}
   14bb0:	ee1d3f70 	mrc	15, 0, r3, cr13, cr0, {3}
   14bb4:	e513608c 	ldr	r6, [r3, #-140]	; 0xffffff74
   14bb8:	e590304c 	ldr	r3, [r0, #76]	; 0x4c
   14bbc:	e1530006 	cmp	r3, r6
   14bc0:	11a01000 	movne	r1, r0
   14bc4:	1281504c 	addne	r5, r1, #76	; 0x4c
   14bc8:	12814050 	addne	r4, r1, #80	; 0x50
   14bcc:	1a000005 	bne	14be8 <__lockfile+0x3c>
   14bd0:	e3a00000 	mov	r0, #0
   14bd4:	e8bd8070 	pop	{r4, r5, r6, pc}
   14bd8:	e3a03001 	mov	r3, #1
   14bdc:	e1a01004 	mov	r1, r4
   14be0:	e1a00005 	mov	r0, r5
   14be4:	ebffff49 	bl	14910 <__wait>
   14be8:	f57ff05b 	dmb	ish
   14bec:	e1952f9f 	ldrex	r2, [r5]
   14bf0:	e3520000 	cmp	r2, #0
   14bf4:	1a000002 	bne	14c04 <__lockfile+0x58>
   14bf8:	e1852f96 	strex	r2, r6, [r5]
   14bfc:	e3520000 	cmp	r2, #0
   14c00:	1afffff9 	bne	14bec <__lockfile+0x40>
   14c04:	f57ff05b 	dmb	ish
   14c08:	e3520000 	cmp	r2, #0
   14c0c:	1afffff1 	bne	14bd8 <__lockfile+0x2c>
   14c10:	e3a00001 	mov	r0, #1
   14c14:	e8bd8070 	pop	{r4, r5, r6, pc}

00014c18 <__unlockfile>:
   14c18:	f57ff05b 	dmb	ish
   14c1c:	e3a03000 	mov	r3, #0
   14c20:	e580304c 	str	r3, [r0, #76]	; 0x4c
   14c24:	f57ff05b 	dmb	ish
   14c28:	e5903050 	ldr	r3, [r0, #80]	; 0x50
   14c2c:	e3530000 	cmp	r3, #0
   14c30:	012fff1e 	bxeq	lr
   14c34:	e92d4070 	push	{r4, r5, r6, lr}
   14c38:	e280404c 	add	r4, r0, #76	; 0x4c
   14c3c:	e59f503c 	ldr	r5, [pc, #60]	; 14c80 <__unlockfile+0x68>
   14c40:	e3a03001 	mov	r3, #1
   14c44:	e3a02081 	mov	r2, #129	; 0x81
   14c48:	e1a01004 	mov	r1, r4
   14c4c:	e3a000f0 	mov	r0, #240	; 0xf0
   14c50:	e5956000 	ldr	r6, [r5]
   14c54:	e12fff36 	blx	r6
   14c58:	e3700026 	cmn	r0, #38	; 0x26
   14c5c:	18bd8070 	popne	{r4, r5, r6, pc}
   14c60:	e595e000 	ldr	lr, [r5]
   14c64:	e3a03001 	mov	r3, #1
   14c68:	e1a01004 	mov	r1, r4
   14c6c:	e1a02003 	mov	r2, r3
   14c70:	e3a000f0 	mov	r0, #240	; 0xf0
   14c74:	e1a0c00e 	mov	ip, lr
   14c78:	e8bd4070 	pop	{r4, r5, r6, lr}
   14c7c:	e12fff1c 	bx	ip
   14c80:	000280ac 	andeq	r8, r2, ip, lsr #1

00014c84 <__aio_close>:
   14c84:	e12fff1e 	bx	lr

00014c88 <__stdio_close>:
   14c88:	e92d4010 	push	{r4, lr}
   14c8c:	e590003c 	ldr	r0, [r0, #60]	; 0x3c
   14c90:	ebfffffb 	bl	14c84 <__aio_close>
   14c94:	e59f3014 	ldr	r3, [pc, #20]	; 14cb0 <__stdio_close+0x28>
   14c98:	e5933000 	ldr	r3, [r3]
   14c9c:	e1a01000 	mov	r1, r0
   14ca0:	e3a00006 	mov	r0, #6
   14ca4:	e12fff33 	blx	r3
   14ca8:	e8bd4010 	pop	{r4, lr}
   14cac:	ea0001a7 	b	15350 <__syscall_ret>
   14cb0:	000280ac 	andeq	r8, r2, ip, lsr #1

00014cb4 <__stdio_seek>:
   14cb4:	e92d401f 	push	{r0, r1, r2, r3, r4, lr}
   14cb8:	e1a01002 	mov	r1, r2
   14cbc:	e1a02003 	mov	r2, r3
   14cc0:	e59d3018 	ldr	r3, [sp, #24]
   14cc4:	e58d3004 	str	r3, [sp, #4]
   14cc8:	e28d3008 	add	r3, sp, #8
   14ccc:	e58d3000 	str	r3, [sp]
   14cd0:	e59f3030 	ldr	r3, [pc, #48]	; 14d08 <__stdio_seek+0x54>
   14cd4:	e5934000 	ldr	r4, [r3]
   14cd8:	e1a03001 	mov	r3, r1
   14cdc:	e590103c 	ldr	r1, [r0, #60]	; 0x3c
   14ce0:	e3a0008c 	mov	r0, #140	; 0x8c
   14ce4:	e12fff34 	blx	r4
   14ce8:	eb000198 	bl	15350 <__syscall_ret>
   14cec:	e3500000 	cmp	r0, #0
   14cf0:	b3e02000 	mvnlt	r2, #0
   14cf4:	b3e03000 	mvnlt	r3, #0
   14cf8:	b1cd20f8 	strdlt	r2, [sp, #8]
   14cfc:	e1cd00d8 	ldrd	r0, [sp, #8]
   14d00:	e28dd010 	add	sp, sp, #16
   14d04:	e8bd8010 	pop	{r4, pc}
   14d08:	000280ac 	andeq	r8, r2, ip, lsr #1

00014d0c <__stdio_write>:
   14d0c:	e92d47ff 	push	{r0, r1, r2, r3, r4, r5, r6, r7, r8, r9, sl, lr}
   14d10:	e1a04000 	mov	r4, r0
   14d14:	e590301c 	ldr	r3, [r0, #28]
   14d18:	e1a06002 	mov	r6, r2
   14d1c:	e5907014 	ldr	r7, [r0, #20]
   14d20:	e3a08002 	mov	r8, #2
   14d24:	e59f90cc 	ldr	r9, [pc, #204]	; 14df8 <__stdio_write+0xec>
   14d28:	e1a0500d 	mov	r5, sp
   14d2c:	e0477003 	sub	r7, r7, r3
   14d30:	e58d7004 	str	r7, [sp, #4]
   14d34:	e0877002 	add	r7, r7, r2
   14d38:	e58d3000 	str	r3, [sp]
   14d3c:	e58d1008 	str	r1, [sp, #8]
   14d40:	e58d200c 	str	r2, [sp, #12]
   14d44:	e594103c 	ldr	r1, [r4, #60]	; 0x3c
   14d48:	e1a03008 	mov	r3, r8
   14d4c:	e1a02005 	mov	r2, r5
   14d50:	e599a000 	ldr	sl, [r9]
   14d54:	e3a00092 	mov	r0, #146	; 0x92
   14d58:	e12fff3a 	blx	sl
   14d5c:	eb00017b 	bl	15350 <__syscall_ret>
   14d60:	e1500007 	cmp	r0, r7
   14d64:	1a000008 	bne	14d8c <__stdio_write+0x80>
   14d68:	e594302c 	ldr	r3, [r4, #44]	; 0x2c
   14d6c:	e5942030 	ldr	r2, [r4, #48]	; 0x30
   14d70:	e584301c 	str	r3, [r4, #28]
   14d74:	e0832002 	add	r2, r3, r2
   14d78:	e5843014 	str	r3, [r4, #20]
   14d7c:	e5842010 	str	r2, [r4, #16]
   14d80:	e1a00006 	mov	r0, r6
   14d84:	e28dd010 	add	sp, sp, #16
   14d88:	e8bd87f0 	pop	{r4, r5, r6, r7, r8, r9, sl, pc}
   14d8c:	e3500000 	cmp	r0, #0
   14d90:	aa00000b 	bge	14dc4 <__stdio_write+0xb8>
   14d94:	e5943000 	ldr	r3, [r4]
   14d98:	e3580002 	cmp	r8, #2
   14d9c:	e3a02000 	mov	r2, #0
   14da0:	e5842010 	str	r2, [r4, #16]
   14da4:	e3833020 	orr	r3, r3, #32
   14da8:	e5843000 	str	r3, [r4]
   14dac:	15953004 	ldrne	r3, [r5, #4]
   14db0:	e584201c 	str	r2, [r4, #28]
   14db4:	10466003 	subne	r6, r6, r3
   14db8:	e5842014 	str	r2, [r4, #20]
   14dbc:	01a06002 	moveq	r6, r2
   14dc0:	eaffffee 	b	14d80 <__stdio_write+0x74>
   14dc4:	e5953004 	ldr	r3, [r5, #4]
   14dc8:	e0477000 	sub	r7, r7, r0
   14dcc:	e1500003 	cmp	r0, r3
   14dd0:	82855008 	addhi	r5, r5, #8
   14dd4:	80400003 	subhi	r0, r0, r3
   14dd8:	82488001 	subhi	r8, r8, #1
   14ddc:	e5953000 	ldr	r3, [r5]
   14de0:	e0833000 	add	r3, r3, r0
   14de4:	e5853000 	str	r3, [r5]
   14de8:	e5953004 	ldr	r3, [r5, #4]
   14dec:	e0430000 	sub	r0, r3, r0
   14df0:	e5850004 	str	r0, [r5, #4]
   14df4:	eaffffd2 	b	14d44 <__stdio_write+0x38>
   14df8:	000280ac 	andeq	r8, r2, ip, lsr #1

00014dfc <__fwritex>:
   14dfc:	e92d41f0 	push	{r4, r5, r6, r7, r8, lr}
   14e00:	e1a07000 	mov	r7, r0
   14e04:	e5925010 	ldr	r5, [r2, #16]
   14e08:	e1a06001 	mov	r6, r1
   14e0c:	e1a04002 	mov	r4, r2
   14e10:	e3550000 	cmp	r5, #0
   14e14:	0a00000a 	beq	14e44 <__fwritex+0x48>
   14e18:	e5943010 	ldr	r3, [r4, #16]
   14e1c:	e5942014 	ldr	r2, [r4, #20]
   14e20:	e0433002 	sub	r3, r3, r2
   14e24:	e1530006 	cmp	r3, r6
   14e28:	2a00000b 	bcs	14e5c <__fwritex+0x60>
   14e2c:	e5943024 	ldr	r3, [r4, #36]	; 0x24
   14e30:	e1a02006 	mov	r2, r6
   14e34:	e1a01007 	mov	r1, r7
   14e38:	e1a00004 	mov	r0, r4
   14e3c:	e8bd41f0 	pop	{r4, r5, r6, r7, r8, lr}
   14e40:	e12fff13 	bx	r3
   14e44:	e1a00002 	mov	r0, r2
   14e48:	eb0001b9 	bl	15534 <__towrite>
   14e4c:	e3500000 	cmp	r0, #0
   14e50:	0afffff0 	beq	14e18 <__fwritex+0x1c>
   14e54:	e1a00005 	mov	r0, r5
   14e58:	e8bd81f0 	pop	{r4, r5, r6, r7, r8, pc}
   14e5c:	e1d434db 	ldrsb	r3, [r4, #75]	; 0x4b
   14e60:	e1a05006 	mov	r5, r6
   14e64:	e3530000 	cmp	r3, #0
   14e68:	ba00000e 	blt	14ea8 <__fwritex+0xac>
   14e6c:	e3550000 	cmp	r5, #0
   14e70:	0a000017 	beq	14ed4 <__fwritex+0xd8>
   14e74:	e2453001 	sub	r3, r5, #1
   14e78:	e7d72003 	ldrb	r2, [r7, r3]
   14e7c:	e352000a 	cmp	r2, #10
   14e80:	1a000011 	bne	14ecc <__fwritex+0xd0>
   14e84:	e5943024 	ldr	r3, [r4, #36]	; 0x24
   14e88:	e1a02005 	mov	r2, r5
   14e8c:	e1a01007 	mov	r1, r7
   14e90:	e1a00004 	mov	r0, r4
   14e94:	e12fff33 	blx	r3
   14e98:	e1550000 	cmp	r5, r0
   14e9c:	88bd81f0 	pophi	{r4, r5, r6, r7, r8, pc}
   14ea0:	e0877005 	add	r7, r7, r5
   14ea4:	e0465005 	sub	r5, r6, r5
   14ea8:	e1a02005 	mov	r2, r5
   14eac:	e5940014 	ldr	r0, [r4, #20]
   14eb0:	e1a01007 	mov	r1, r7
   14eb4:	eb000008 	bl	14edc <memcpy>
   14eb8:	e5942014 	ldr	r2, [r4, #20]
   14ebc:	e1a00006 	mov	r0, r6
   14ec0:	e0825005 	add	r5, r2, r5
   14ec4:	e5845014 	str	r5, [r4, #20]
   14ec8:	e8bd81f0 	pop	{r4, r5, r6, r7, r8, pc}
   14ecc:	e1a05003 	mov	r5, r3
   14ed0:	eaffffe5 	b	14e6c <__fwritex+0x70>
   14ed4:	e1a05006 	mov	r5, r6
   14ed8:	eafffff2 	b	14ea8 <__fwritex+0xac>

00014edc <memcpy>:
   14edc:	e92d4011 	push	{r0, r4, lr}
   14ee0:	e24dd01c 	sub	sp, sp, #28
   14ee4:	e3520004 	cmp	r2, #4
   14ee8:	3a0000b0 	bcc	151b0 <copy_last_3_and_return>
   14eec:	e2613000 	rsb	r3, r1, #0
   14ef0:	e2133003 	ands	r3, r3, #3
   14ef4:	0a000007 	beq	14f18 <src_aligned>
   14ef8:	e1b0cf83 	lsls	ip, r3, #31
   14efc:	e0422003 	sub	r2, r2, r3
   14f00:	44d13001 	ldrbmi	r3, [r1], #1
   14f04:	24d14001 	ldrbcs	r4, [r1], #1
   14f08:	24d1c001 	ldrbcs	ip, [r1], #1
   14f0c:	44c03001 	strbmi	r3, [r0], #1
   14f10:	24c04001 	strbcs	r4, [r0], #1
   14f14:	24c0c001 	strbcs	ip, [r0], #1

00014f18 <src_aligned>:
   14f18:	e020c001 	eor	ip, r0, r1
   14f1c:	e31c0003 	tst	ip, #3
   14f20:	1a000027 	bne	14fc4 <non_congruent>
   14f24:	e88d0fe0 	stm	sp, {r5, r6, r7, r8, r9, sl, fp}
   14f28:	e2603000 	rsb	r3, r0, #0
   14f2c:	e213301c 	ands	r3, r3, #28
   14f30:	0a00000a 	beq	14f60 <cached_aligned32>
   14f34:	e1530002 	cmp	r3, r2
   14f38:	8202301c 	andhi	r3, r2, #28
   14f3c:	e1b0ce03 	lsls	ip, r3, #28
   14f40:	28b100f0 	ldmcs	r1!, {r4, r5, r6, r7}
   14f44:	48b10300 	ldmmi	r1!, {r8, r9}
   14f48:	28a000f0 	stmiacs	r0!, {r4, r5, r6, r7}
   14f4c:	48a00300 	stmiami	r0!, {r8, r9}
   14f50:	e3130004 	tst	r3, #4
   14f54:	1491a004 	ldrne	sl, [r1], #4
   14f58:	1480a004 	strne	sl, [r0], #4
   14f5c:	e0422003 	sub	r2, r2, r3

00014f60 <cached_aligned32>:
   14f60:	e2522020 	subs	r2, r2, #32
   14f64:	3a000004 	bcc	14f7c <less_than_32_left>
   14f68:	e8b10ff0 	ldm	r1!, {r4, r5, r6, r7, r8, r9, sl, fp}
   14f6c:	e2522020 	subs	r2, r2, #32
   14f70:	e8a00ff0 	stmia	r0!, {r4, r5, r6, r7, r8, r9, sl, fp}
   14f74:	2afffffb 	bcs	14f68 <cached_aligned32+0x8>
   14f78:	e2822020 	add	r2, r2, #32

00014f7c <less_than_32_left>:
   14f7c:	e312001f 	tst	r2, #31
   14f80:	0a00000c 	beq	14fb8 <less_than_32_left+0x3c>
   14f84:	e1b0ce02 	lsls	ip, r2, #28
   14f88:	28b100f0 	ldmcs	r1!, {r4, r5, r6, r7}
   14f8c:	48b10300 	ldmmi	r1!, {r8, r9}
   14f90:	28a000f0 	stmiacs	r0!, {r4, r5, r6, r7}
   14f94:	48a00300 	stmiami	r0!, {r8, r9}
   14f98:	e1b0cf02 	lsls	ip, r2, #30
   14f9c:	24913004 	ldrcs	r3, [r1], #4
   14fa0:	40d140b2 	ldrhmi	r4, [r1], #2
   14fa4:	24803004 	strcs	r3, [r0], #4
   14fa8:	40c040b2 	strhmi	r4, [r0], #2
   14fac:	e3120001 	tst	r2, #1
   14fb0:	15d13000 	ldrbne	r3, [r1]
   14fb4:	15c03000 	strbne	r3, [r0]
   14fb8:	e8bd0fe0 	pop	{r5, r6, r7, r8, r9, sl, fp}
   14fbc:	e8bd4011 	pop	{r0, r4, lr}
   14fc0:	e12fff1e 	bx	lr

00014fc4 <non_congruent>:
   14fc4:	e3520004 	cmp	r2, #4
   14fc8:	3a000078 	bcc	151b0 <copy_last_3_and_return>
   14fcc:	e88d0fe0 	stm	sp, {r5, r6, r7, r8, r9, sl, fp}
   14fd0:	e2605000 	rsb	r5, r0, #0
   14fd4:	e2055003 	and	r5, r5, #3
   14fd8:	e1a0c185 	lsl	ip, r5, #3
   14fdc:	e26ce020 	rsb	lr, ip, #32
   14fe0:	e4913004 	ldr	r3, [r1], #4
   14fe4:	e2422004 	sub	r2, r2, #4
   14fe8:	e1b05f85 	lsls	r5, r5, #31
   14fec:	44c03001 	strbmi	r3, [r0], #1
   14ff0:	41a03423 	lsrmi	r3, r3, #8
   14ff4:	24c03001 	strbcs	r3, [r0], #1
   14ff8:	21a03423 	lsrcs	r3, r3, #8
   14ffc:	24c03001 	strbcs	r3, [r0], #1
   15000:	21a03423 	lsrcs	r3, r3, #8
   15004:	e3520004 	cmp	r2, #4
   15008:	3a000061 	bcc	15194 <partial_word_tail>
   1500c:	e310001c 	tst	r0, #28
   15010:	0a000007 	beq	15034 <non_congruent+0x70>
   15014:	e4915004 	ldr	r5, [r1], #4
   15018:	e2422004 	sub	r2, r2, #4
   1501c:	e1834e15 	orr	r4, r3, r5, lsl lr
   15020:	e1a03c35 	lsr	r3, r5, ip
   15024:	e4804004 	str	r4, [r0], #4
   15028:	e3520004 	cmp	r2, #4
   1502c:	2afffff6 	bcs	1500c <non_congruent+0x48>
   15030:	3a000057 	bcc	15194 <partial_word_tail>
   15034:	e2522020 	subs	r2, r2, #32
   15038:	3a00004a 	bcc	15168 <less_than_thirtytwo>
   1503c:	e35c0018 	cmp	ip, #24
   15040:	0a000031 	beq	1510c <loop24>
   15044:	e35c0008 	cmp	ip, #8
   15048:	0a000017 	beq	150ac <loop8>

0001504c <loop16>:
   1504c:	e491c004 	ldr	ip, [r1], #4
   15050:	e1a0400c 	mov	r4, ip
   15054:	e8b10fe0 	ldm	r1!, {r5, r6, r7, r8, r9, sl, fp}
   15058:	e2522020 	subs	r2, r2, #32
   1505c:	2491c004 	ldrcs	ip, [r1], #4
   15060:	e1833804 	orr	r3, r3, r4, lsl #16
   15064:	e1a04824 	lsr	r4, r4, #16
   15068:	e1844805 	orr	r4, r4, r5, lsl #16
   1506c:	e1a05825 	lsr	r5, r5, #16
   15070:	e1855806 	orr	r5, r5, r6, lsl #16
   15074:	e1a06826 	lsr	r6, r6, #16
   15078:	e1866807 	orr	r6, r6, r7, lsl #16
   1507c:	e1a07827 	lsr	r7, r7, #16
   15080:	e1877808 	orr	r7, r7, r8, lsl #16
   15084:	e1a08828 	lsr	r8, r8, #16
   15088:	e1888809 	orr	r8, r8, r9, lsl #16
   1508c:	e1a09829 	lsr	r9, r9, #16
   15090:	e189980a 	orr	r9, r9, sl, lsl #16
   15094:	e1a0a82a 	lsr	sl, sl, #16
   15098:	e18aa80b 	orr	sl, sl, fp, lsl #16
   1509c:	e8a007f8 	stmia	r0!, {r3, r4, r5, r6, r7, r8, r9, sl}
   150a0:	e1a0382b 	lsr	r3, fp, #16
   150a4:	2affffe9 	bcs	15050 <loop16+0x4>
   150a8:	ea00002e 	b	15168 <less_than_thirtytwo>

000150ac <loop8>:
   150ac:	e491c004 	ldr	ip, [r1], #4
   150b0:	e1a0400c 	mov	r4, ip
   150b4:	e8b10fe0 	ldm	r1!, {r5, r6, r7, r8, r9, sl, fp}
   150b8:	e2522020 	subs	r2, r2, #32
   150bc:	2491c004 	ldrcs	ip, [r1], #4
   150c0:	e1833c04 	orr	r3, r3, r4, lsl #24
   150c4:	e1a04424 	lsr	r4, r4, #8
   150c8:	e1844c05 	orr	r4, r4, r5, lsl #24
   150cc:	e1a05425 	lsr	r5, r5, #8
   150d0:	e1855c06 	orr	r5, r5, r6, lsl #24
   150d4:	e1a06426 	lsr	r6, r6, #8
   150d8:	e1866c07 	orr	r6, r6, r7, lsl #24
   150dc:	e1a07427 	lsr	r7, r7, #8
   150e0:	e1877c08 	orr	r7, r7, r8, lsl #24
   150e4:	e1a08428 	lsr	r8, r8, #8
   150e8:	e1888c09 	orr	r8, r8, r9, lsl #24
   150ec:	e1a09429 	lsr	r9, r9, #8
   150f0:	e1899c0a 	orr	r9, r9, sl, lsl #24
   150f4:	e1a0a42a 	lsr	sl, sl, #8
   150f8:	e18aac0b 	orr	sl, sl, fp, lsl #24
   150fc:	e8a007f8 	stmia	r0!, {r3, r4, r5, r6, r7, r8, r9, sl}
   15100:	e1a0342b 	lsr	r3, fp, #8
   15104:	2affffe9 	bcs	150b0 <loop8+0x4>
   15108:	ea000016 	b	15168 <less_than_thirtytwo>

0001510c <loop24>:
   1510c:	e491c004 	ldr	ip, [r1], #4
   15110:	e1a0400c 	mov	r4, ip
   15114:	e8b10fe0 	ldm	r1!, {r5, r6, r7, r8, r9, sl, fp}
   15118:	e2522020 	subs	r2, r2, #32
   1511c:	2491c004 	ldrcs	ip, [r1], #4
   15120:	e1833404 	orr	r3, r3, r4, lsl #8
   15124:	e1a04c24 	lsr	r4, r4, #24
   15128:	e1844405 	orr	r4, r4, r5, lsl #8
   1512c:	e1a05c25 	lsr	r5, r5, #24
   15130:	e1855406 	orr	r5, r5, r6, lsl #8
   15134:	e1a06c26 	lsr	r6, r6, #24
   15138:	e1866407 	orr	r6, r6, r7, lsl #8
   1513c:	e1a07c27 	lsr	r7, r7, #24
   15140:	e1877408 	orr	r7, r7, r8, lsl #8
   15144:	e1a08c28 	lsr	r8, r8, #24
   15148:	e1888409 	orr	r8, r8, r9, lsl #8
   1514c:	e1a09c29 	lsr	r9, r9, #24
   15150:	e189940a 	orr	r9, r9, sl, lsl #8
   15154:	e1a0ac2a 	lsr	sl, sl, #24
   15158:	e18aa40b 	orr	sl, sl, fp, lsl #8
   1515c:	e8a007f8 	stmia	r0!, {r3, r4, r5, r6, r7, r8, r9, sl}
   15160:	e1a03c2b 	lsr	r3, fp, #24
   15164:	2affffe9 	bcs	15110 <loop24+0x4>

00015168 <less_than_thirtytwo>:
   15168:	e26ec020 	rsb	ip, lr, #32
   1516c:	e2822020 	add	r2, r2, #32
   15170:	e3520004 	cmp	r2, #4
   15174:	3a000006 	bcc	15194 <partial_word_tail>
   15178:	e4915004 	ldr	r5, [r1], #4
   1517c:	e2422004 	sub	r2, r2, #4
   15180:	e1834e15 	orr	r4, r3, r5, lsl lr
   15184:	e1a03c35 	lsr	r3, r5, ip
   15188:	e4804004 	str	r4, [r0], #4
   1518c:	e3520004 	cmp	r2, #4
   15190:	2afffff8 	bcs	15178 <less_than_thirtytwo+0x10>

00015194 <partial_word_tail>:
   15194:	e1b05e0e 	lsls	r5, lr, #28
   15198:	44c03001 	strbmi	r3, [r0], #1
   1519c:	41a03423 	lsrmi	r3, r3, #8
   151a0:	24c03001 	strbcs	r3, [r0], #1
   151a4:	21a03423 	lsrcs	r3, r3, #8
   151a8:	24c03001 	strbcs	r3, [r0], #1
   151ac:	e89d0fe0 	ldm	sp, {r5, r6, r7, r8, r9, sl, fp}

000151b0 <copy_last_3_and_return>:
   151b0:	e1b02f82 	lsls	r2, r2, #31
   151b4:	44d12001 	ldrbmi	r2, [r1], #1
   151b8:	24d13001 	ldrbcs	r3, [r1], #1
   151bc:	25d1c000 	ldrbcs	ip, [r1]
   151c0:	44c02001 	strbmi	r2, [r0], #1
   151c4:	24c03001 	strbcs	r3, [r0], #1
   151c8:	25c0c000 	strbcs	ip, [r0]
   151cc:	e28dd01c 	add	sp, sp, #28
   151d0:	e8bd4011 	pop	{r0, r4, lr}
   151d4:	e12fff1e 	bx	lr

000151d8 <memchr>:
   151d8:	e6ef1071 	uxtb	r1, r1
   151dc:	e92d4070 	push	{r4, r5, r6, lr}
   151e0:	e1a05000 	mov	r5, r0
   151e4:	e3150003 	tst	r5, #3
   151e8:	e1a00005 	mov	r0, r5
   151ec:	0a000007 	beq	15210 <memchr+0x38>
   151f0:	e3520000 	cmp	r2, #0
   151f4:	0a000023 	beq	15288 <memchr+0xb0>
   151f8:	e5d03000 	ldrb	r3, [r0]
   151fc:	e2855001 	add	r5, r5, #1
   15200:	e1530001 	cmp	r3, r1
   15204:	08bd8070 	popeq	{r4, r5, r6, pc}
   15208:	e2422001 	sub	r2, r2, #1
   1520c:	eafffff4 	b	151e4 <memchr+0xc>
   15210:	e3520000 	cmp	r2, #0
   15214:	0a00001b 	beq	15288 <memchr+0xb0>
   15218:	e5d53000 	ldrb	r3, [r5]
   1521c:	e1530001 	cmp	r3, r1
   15220:	08bd8070 	popeq	{r4, r5, r6, pc}
   15224:	e0813401 	add	r3, r1, r1, lsl #8
   15228:	e59f6060 	ldr	r6, [pc, #96]	; 15290 <memchr+0xb8>
   1522c:	e59f0060 	ldr	r0, [pc, #96]	; 15294 <memchr+0xbc>
   15230:	e083c803 	add	ip, r3, r3, lsl #16
   15234:	e3520003 	cmp	r2, #3
   15238:	9a000006 	bls	15258 <memchr+0x80>
   1523c:	e1a04005 	mov	r4, r5
   15240:	e4943004 	ldr	r3, [r4], #4
   15244:	e023300c 	eor	r3, r3, ip
   15248:	e083e006 	add	lr, r3, r6
   1524c:	e1ce3003 	bic	r3, lr, r3
   15250:	e1130000 	tst	r3, r0
   15254:	0a000008 	beq	1527c <memchr+0xa4>
   15258:	e0822005 	add	r2, r2, r5
   1525c:	e1550002 	cmp	r5, r2
   15260:	e1a00005 	mov	r0, r5
   15264:	0a000007 	beq	15288 <memchr+0xb0>
   15268:	e5d03000 	ldrb	r3, [r0]
   1526c:	e2855001 	add	r5, r5, #1
   15270:	e1530001 	cmp	r3, r1
   15274:	1afffff8 	bne	1525c <memchr+0x84>
   15278:	e8bd8070 	pop	{r4, r5, r6, pc}
   1527c:	e2422004 	sub	r2, r2, #4
   15280:	e1a05004 	mov	r5, r4
   15284:	eaffffea 	b	15234 <memchr+0x5c>
   15288:	e3a00000 	mov	r0, #0
   1528c:	e8bd8070 	pop	{r4, r5, r6, pc}
   15290:	fefefeff 	mrc2	14, 7, pc, cr14, cr15, {7}
   15294:	80808080 	addhi	r8, r0, r0, lsl #1

00015298 <__stpcpy>:
   15298:	e021c000 	eor	ip, r1, r0
   1529c:	e31c0003 	tst	ip, #3
   152a0:	e92d4010 	push	{r4, lr}
   152a4:	0a000018 	beq	1530c <__stpcpy+0x74>
   152a8:	e2411001 	sub	r1, r1, #1
   152ac:	e1a03000 	mov	r3, r0
   152b0:	e5f12001 	ldrb	r2, [r1, #1]!
   152b4:	e1a00003 	mov	r0, r3
   152b8:	e3520000 	cmp	r2, #0
   152bc:	e4c32001 	strb	r2, [r3], #1
   152c0:	1afffffa 	bne	152b0 <__stpcpy+0x18>
   152c4:	e8bd8010 	pop	{r4, pc}
   152c8:	e4d31001 	ldrb	r1, [r3], #1
   152cc:	e3510000 	cmp	r1, #0
   152d0:	e4c21001 	strb	r1, [r2], #1
   152d4:	08bd8010 	popeq	{r4, pc}
   152d8:	e3130003 	tst	r3, #3
   152dc:	e1a00002 	mov	r0, r2
   152e0:	1afffff8 	bne	152c8 <__stpcpy+0x30>
   152e4:	e59f402c 	ldr	r4, [pc, #44]	; 15318 <__stpcpy+0x80>
   152e8:	e59fe02c 	ldr	lr, [pc, #44]	; 1531c <__stpcpy+0x84>
   152ec:	e1a01003 	mov	r1, r3
   152f0:	e493c004 	ldr	ip, [r3], #4
   152f4:	e08c2004 	add	r2, ip, r4
   152f8:	e1c2200c 	bic	r2, r2, ip
   152fc:	e112000e 	tst	r2, lr
   15300:	1affffe8 	bne	152a8 <__stpcpy+0x10>
   15304:	e480c004 	str	ip, [r0], #4
   15308:	eafffff7 	b	152ec <__stpcpy+0x54>
   1530c:	e1a03001 	mov	r3, r1
   15310:	e1a02000 	mov	r2, r0
   15314:	eaffffef 	b	152d8 <__stpcpy+0x40>
   15318:	fefefeff 	mrc2	14, 7, pc, cr14, cr15, {7}
   1531c:	80808080 	addhi	r8, r0, r0, lsl #1

00015320 <_Exit>:
   15320:	e59f5024 	ldr	r5, [pc, #36]	; 1534c <_Exit+0x2c>
   15324:	e1a01000 	mov	r1, r0
   15328:	e92d4010 	push	{r4, lr}
   1532c:	e1a04000 	mov	r4, r0
   15330:	e5953000 	ldr	r3, [r5]
   15334:	e3a000f8 	mov	r0, #248	; 0xf8
   15338:	e12fff33 	blx	r3
   1533c:	e5953000 	ldr	r3, [r5]
   15340:	e1a01004 	mov	r1, r4
   15344:	e3a00001 	mov	r0, #1
   15348:	eafffffa 	b	15338 <_Exit+0x18>
   1534c:	000280ac 	andeq	r8, r2, ip, lsr #1

00015350 <__syscall_ret>:
   15350:	e3700a01 	cmn	r0, #4096	; 0x1000
   15354:	e1a03000 	mov	r3, r0
   15358:	912fff1e 	bxls	lr
   1535c:	e59f2014 	ldr	r2, [pc, #20]	; 15378 <__syscall_ret+0x28>
   15360:	e2633000 	rsb	r3, r3, #0
   15364:	e52de004 	push	{lr}		; (str lr, [sp, #-4]!)
   15368:	ebfff523 	bl	127fc <__aeabi_read_tp>
   1536c:	e7823000 	str	r3, [r2, r0]
   15370:	e3e00000 	mvn	r0, #0
   15374:	e49df004 	pop	{pc}		; (ldr pc, [sp], #4)
   15378:	0000000c 	andeq	r0, r0, ip

0001537c <frexp>:
   1537c:	e92d41f0 	push	{r4, r5, r6, r7, r8, lr}
   15380:	e7ea4a51 	ubfx	r4, r1, #20, #11
   15384:	e3540000 	cmp	r4, #0
   15388:	e1a07000 	mov	r7, r0
   1538c:	e1a06001 	mov	r6, r1
   15390:	e1a05002 	mov	r5, r2
   15394:	1a000014 	bne	153ec <frexp+0x70>
   15398:	e3a02000 	mov	r2, #0
   1539c:	e3a03000 	mov	r3, #0
   153a0:	eb0002b8 	bl	15e88 <__aeabi_dcmpeq>
   153a4:	e3500000 	cmp	r0, #0
   153a8:	15854000 	strne	r4, [r5]
   153ac:	1a00000b 	bne	153e0 <frexp+0x64>
   153b0:	e59f3064 	ldr	r3, [pc, #100]	; 1541c <frexp+0xa0>
   153b4:	e3a02000 	mov	r2, #0
   153b8:	e1a00007 	mov	r0, r7
   153bc:	e1a01006 	mov	r1, r6
   153c0:	eb000070 	bl	15588 <__aeabi_dmul>
   153c4:	e1a02005 	mov	r2, r5
   153c8:	ebffffeb 	bl	1537c <frexp>
   153cc:	e5953000 	ldr	r3, [r5]
   153d0:	e2433040 	sub	r3, r3, #64	; 0x40
   153d4:	e5853000 	str	r3, [r5]
   153d8:	e1a07000 	mov	r7, r0
   153dc:	e1a06001 	mov	r6, r1
   153e0:	e1a00007 	mov	r0, r7
   153e4:	e1a01006 	mov	r1, r6
   153e8:	e8bd81f0 	pop	{r4, r5, r6, r7, r8, pc}
   153ec:	e30027ff 	movw	r2, #2047	; 0x7ff
   153f0:	e1540002 	cmp	r4, r2
   153f4:	0afffff9 	beq	153e0 <frexp+0x64>
   153f8:	e3c1147f 	bic	r1, r1, #2130706432	; 0x7f000000
   153fc:	e2444fff 	sub	r4, r4, #1020	; 0x3fc
   15400:	e3c1160f 	bic	r1, r1, #15728640	; 0xf00000
   15404:	e2444002 	sub	r4, r4, #2
   15408:	e38135ff 	orr	r3, r1, #1069547520	; 0x3fc00000
   1540c:	e5854000 	str	r4, [r5]
   15410:	e3833602 	orr	r3, r3, #2097152	; 0x200000
   15414:	e1a06003 	mov	r6, r3
   15418:	eafffff0 	b	153e0 <frexp+0x64>
   1541c:	43f00000 	mvnsmi	r0, #0

00015420 <wcrtomb>:
   15420:	e3500000 	cmp	r0, #0
   15424:	0a000002 	beq	15434 <wcrtomb+0x14>
   15428:	e351007f 	cmp	r1, #127	; 0x7f
   1542c:	8a000002 	bhi	1543c <wcrtomb+0x1c>
   15430:	e5c01000 	strb	r1, [r0]
   15434:	e3a00001 	mov	r0, #1
   15438:	e12fff1e 	bx	lr
   1543c:	ee1d3f70 	mrc	15, 0, r3, cr13, cr0, {3}
   15440:	e5133030 	ldr	r3, [r3, #-48]	; 0xffffffd0
   15444:	e5933000 	ldr	r3, [r3]
   15448:	e3530000 	cmp	r3, #0
   1544c:	1a00000a 	bne	1547c <wcrtomb+0x5c>
   15450:	e2413cdf 	sub	r3, r1, #57088	; 0xdf00
   15454:	e2433080 	sub	r3, r3, #128	; 0x80
   15458:	e353007f 	cmp	r3, #127	; 0x7f
   1545c:	9afffff3 	bls	15430 <wcrtomb+0x10>
   15460:	e59f30c8 	ldr	r3, [pc, #200]	; 15530 <wcrtomb+0x110>
   15464:	e3a02054 	mov	r2, #84	; 0x54
   15468:	e52de004 	push	{lr}		; (str lr, [sp, #-4]!)
   1546c:	ebfff4e2 	bl	127fc <__aeabi_read_tp>
   15470:	e7832000 	str	r2, [r3, r0]
   15474:	e3e00000 	mvn	r0, #0
   15478:	e49df004 	pop	{pc}		; (ldr pc, [sp], #4)
   1547c:	e3510b02 	cmp	r1, #2048	; 0x800
   15480:	2a000008 	bcs	154a8 <wcrtomb+0x88>
   15484:	e3e0303f 	mvn	r3, #63	; 0x3f
   15488:	e1833321 	orr	r3, r3, r1, lsr #6
   1548c:	e201103f 	and	r1, r1, #63	; 0x3f
   15490:	e5c03000 	strb	r3, [r0]
   15494:	e1e01c81 	mvn	r1, r1, lsl #25
   15498:	e1e01ca1 	mvn	r1, r1, lsr #25
   1549c:	e5c01001 	strb	r1, [r0, #1]
   154a0:	e3a00002 	mov	r0, #2
   154a4:	e12fff1e 	bx	lr
   154a8:	e2413a0e 	sub	r3, r1, #57344	; 0xe000
   154ac:	e3510b36 	cmp	r1, #55296	; 0xd800
   154b0:	23530a02 	cmpcs	r3, #8192	; 0x2000
   154b4:	2a00000b 	bcs	154e8 <wcrtomb+0xc8>
   154b8:	e7e52351 	ubfx	r2, r1, #6, #6
   154bc:	e3e0301f 	mvn	r3, #31
   154c0:	e1833621 	orr	r3, r3, r1, lsr #12
   154c4:	e201103f 	and	r1, r1, #63	; 0x3f
   154c8:	e5c03000 	strb	r3, [r0]
   154cc:	e3e0307f 	mvn	r3, #127	; 0x7f
   154d0:	e1832002 	orr	r2, r3, r2
   154d4:	e1833001 	orr	r3, r3, r1
   154d8:	e5c02001 	strb	r2, [r0, #1]
   154dc:	e5c03002 	strb	r3, [r0, #2]
   154e0:	e3a00003 	mov	r0, #3
   154e4:	e12fff1e 	bx	lr
   154e8:	e2413801 	sub	r3, r1, #65536	; 0x10000
   154ec:	e3530601 	cmp	r3, #1048576	; 0x100000
   154f0:	2affffda 	bcs	15460 <wcrtomb+0x40>
   154f4:	e7e52651 	ubfx	r2, r1, #12, #6
   154f8:	e3e0300f 	mvn	r3, #15
   154fc:	e1833921 	orr	r3, r3, r1, lsr #18
   15500:	e5c03000 	strb	r3, [r0]
   15504:	e3e0307f 	mvn	r3, #127	; 0x7f
   15508:	e1832002 	orr	r2, r3, r2
   1550c:	e5c02001 	strb	r2, [r0, #1]
   15510:	e7e52351 	ubfx	r2, r1, #6, #6
   15514:	e201103f 	and	r1, r1, #63	; 0x3f
   15518:	e1832002 	orr	r2, r3, r2
   1551c:	e1831001 	orr	r1, r3, r1
   15520:	e5c02002 	strb	r2, [r0, #2]
   15524:	e5c01003 	strb	r1, [r0, #3]
   15528:	e3a00004 	mov	r0, #4
   1552c:	e12fff1e 	bx	lr
   15530:	0000000c 	andeq	r0, r0, ip

00015534 <__towrite>:
   15534:	e1d034da 	ldrsb	r3, [r0, #74]	; 0x4a
   15538:	e2432001 	sub	r2, r3, #1
   1553c:	e1833002 	orr	r3, r3, r2
   15540:	e5902000 	ldr	r2, [r0]
   15544:	e5c0304a 	strb	r3, [r0, #74]	; 0x4a
   15548:	e2123008 	ands	r3, r2, #8
   1554c:	0a000003 	beq	15560 <__towrite+0x2c>
   15550:	e3822020 	orr	r2, r2, #32
   15554:	e5802000 	str	r2, [r0]
   15558:	e3e00000 	mvn	r0, #0
   1555c:	e12fff1e 	bx	lr
   15560:	e590202c 	ldr	r2, [r0, #44]	; 0x2c
   15564:	e5901030 	ldr	r1, [r0, #48]	; 0x30
   15568:	e5803008 	str	r3, [r0, #8]
   1556c:	e580201c 	str	r2, [r0, #28]
   15570:	e5802014 	str	r2, [r0, #20]
   15574:	e0822001 	add	r2, r2, r1
   15578:	e5803004 	str	r3, [r0, #4]
   1557c:	e5802010 	str	r2, [r0, #16]
   15580:	e1a00003 	mov	r0, r3
   15584:	e12fff1e 	bx	lr

00015588 <__aeabi_dmul>:
   15588:	e92d4070 	push	{r4, r5, r6, lr}
   1558c:	e3a0c0ff 	mov	ip, #255	; 0xff
   15590:	e38ccc07 	orr	ip, ip, #1792	; 0x700
   15594:	e01c4a21 	ands	r4, ip, r1, lsr #20
   15598:	101c5a23 	andsne	r5, ip, r3, lsr #20
   1559c:	1134000c 	teqne	r4, ip
   155a0:	1135000c 	teqne	r5, ip
   155a4:	0b00006f 	bleq	15768 <__aeabi_dmul+0x1e0>
   155a8:	e0844005 	add	r4, r4, r5
   155ac:	e0216003 	eor	r6, r1, r3
   155b0:	e1c11a8c 	bic	r1, r1, ip, lsl #21
   155b4:	e1c33a8c 	bic	r3, r3, ip, lsl #21
   155b8:	e1905601 	orrs	r5, r0, r1, lsl #12
   155bc:	11925603 	orrsne	r5, r2, r3, lsl #12
   155c0:	e3811601 	orr	r1, r1, #1048576	; 0x100000
   155c4:	e3833601 	orr	r3, r3, #1048576	; 0x100000
   155c8:	0a00001c 	beq	15640 <__aeabi_dmul+0xb8>
   155cc:	e08ec290 	umull	ip, lr, r0, r2
   155d0:	e3a05000 	mov	r5, #0
   155d4:	e0a5e291 	umlal	lr, r5, r1, r2
   155d8:	e2062102 	and	r2, r6, #-2147483648	; 0x80000000
   155dc:	e0a5e390 	umlal	lr, r5, r0, r3
   155e0:	e3a06000 	mov	r6, #0
   155e4:	e0a65391 	umlal	r5, r6, r1, r3
   155e8:	e33c0000 	teq	ip, #0
   155ec:	138ee001 	orrne	lr, lr, #1
   155f0:	e24440ff 	sub	r4, r4, #255	; 0xff
   155f4:	e3560c02 	cmp	r6, #512	; 0x200
   155f8:	e2c44c03 	sbc	r4, r4, #768	; 0x300
   155fc:	2a000002 	bcs	1560c <__aeabi_dmul+0x84>
   15600:	e1b0e08e 	lsls	lr, lr, #1
   15604:	e0b55005 	adcs	r5, r5, r5
   15608:	e0a66006 	adc	r6, r6, r6
   1560c:	e1821586 	orr	r1, r2, r6, lsl #11
   15610:	e1811aa5 	orr	r1, r1, r5, lsr #21
   15614:	e1a00585 	lsl	r0, r5, #11
   15618:	e1800aae 	orr	r0, r0, lr, lsr #21
   1561c:	e1a0e58e 	lsl	lr, lr, #11
   15620:	e254c0fd 	subs	ip, r4, #253	; 0xfd
   15624:	835c0c07 	cmphi	ip, #1792	; 0x700
   15628:	8a00000f 	bhi	1566c <__aeabi_dmul+0xe4>
   1562c:	e35e0102 	cmp	lr, #-2147483648	; 0x80000000
   15630:	01b0e0a0 	lsrseq	lr, r0, #1
   15634:	e2b00000 	adcs	r0, r0, #0
   15638:	e0a11a04 	adc	r1, r1, r4, lsl #20
   1563c:	e8bd8070 	pop	{r4, r5, r6, pc}
   15640:	e2066102 	and	r6, r6, #-2147483648	; 0x80000000
   15644:	e1861001 	orr	r1, r6, r1
   15648:	e1800002 	orr	r0, r0, r2
   1564c:	e0211003 	eor	r1, r1, r3
   15650:	e05440ac 	subs	r4, r4, ip, lsr #1
   15654:	c074500c 	rsbsgt	r5, r4, ip
   15658:	c1811a04 	orrgt	r1, r1, r4, lsl #20
   1565c:	c8bd8070 	popgt	{r4, r5, r6, pc}
   15660:	e3811601 	orr	r1, r1, #1048576	; 0x100000
   15664:	e3a0e000 	mov	lr, #0
   15668:	e2544001 	subs	r4, r4, #1
   1566c:	ca000058 	bgt	157d4 <__aeabi_dmul+0x24c>
   15670:	e3740036 	cmn	r4, #54	; 0x36
   15674:	d3a00000 	movle	r0, #0
   15678:	d2011102 	andle	r1, r1, #-2147483648	; 0x80000000
   1567c:	d8bd8070 	pople	{r4, r5, r6, pc}
   15680:	e2644000 	rsb	r4, r4, #0
   15684:	e2544020 	subs	r4, r4, #32
   15688:	aa000018 	bge	156f0 <__aeabi_dmul+0x168>
   1568c:	e294400c 	adds	r4, r4, #12
   15690:	ca00000b 	bgt	156c4 <__aeabi_dmul+0x13c>
   15694:	e2844014 	add	r4, r4, #20
   15698:	e2645020 	rsb	r5, r4, #32
   1569c:	e1a03510 	lsl	r3, r0, r5
   156a0:	e1a00430 	lsr	r0, r0, r4
   156a4:	e1800511 	orr	r0, r0, r1, lsl r5
   156a8:	e2012102 	and	r2, r1, #-2147483648	; 0x80000000
   156ac:	e3c11102 	bic	r1, r1, #-2147483648	; 0x80000000
   156b0:	e0900fa3 	adds	r0, r0, r3, lsr #31
   156b4:	e0a21431 	adc	r1, r2, r1, lsr r4
   156b8:	e19ee083 	orrs	lr, lr, r3, lsl #1
   156bc:	01c00fa3 	biceq	r0, r0, r3, lsr #31
   156c0:	e8bd8070 	pop	{r4, r5, r6, pc}
   156c4:	e264400c 	rsb	r4, r4, #12
   156c8:	e2645020 	rsb	r5, r4, #32
   156cc:	e1a03410 	lsl	r3, r0, r4
   156d0:	e1a00530 	lsr	r0, r0, r5
   156d4:	e1800411 	orr	r0, r0, r1, lsl r4
   156d8:	e2011102 	and	r1, r1, #-2147483648	; 0x80000000
   156dc:	e0900fa3 	adds	r0, r0, r3, lsr #31
   156e0:	e2a11000 	adc	r1, r1, #0
   156e4:	e19ee083 	orrs	lr, lr, r3, lsl #1
   156e8:	01c00fa3 	biceq	r0, r0, r3, lsr #31
   156ec:	e8bd8070 	pop	{r4, r5, r6, pc}
   156f0:	e2645020 	rsb	r5, r4, #32
   156f4:	e18ee510 	orr	lr, lr, r0, lsl r5
   156f8:	e1a03430 	lsr	r3, r0, r4
   156fc:	e1833511 	orr	r3, r3, r1, lsl r5
   15700:	e1a00431 	lsr	r0, r1, r4
   15704:	e2011102 	and	r1, r1, #-2147483648	; 0x80000000
   15708:	e1c00431 	bic	r0, r0, r1, lsr r4
   1570c:	e0800fa3 	add	r0, r0, r3, lsr #31
   15710:	e19ee083 	orrs	lr, lr, r3, lsl #1
   15714:	01c00fa3 	biceq	r0, r0, r3, lsr #31
   15718:	e8bd8070 	pop	{r4, r5, r6, pc}
   1571c:	e3340000 	teq	r4, #0
   15720:	1a000008 	bne	15748 <__aeabi_dmul+0x1c0>
   15724:	e2016102 	and	r6, r1, #-2147483648	; 0x80000000
   15728:	e1b00080 	lsls	r0, r0, #1
   1572c:	e0a11001 	adc	r1, r1, r1
   15730:	e3110601 	tst	r1, #1048576	; 0x100000
   15734:	02444001 	subeq	r4, r4, #1
   15738:	0afffffa 	beq	15728 <__aeabi_dmul+0x1a0>
   1573c:	e1811006 	orr	r1, r1, r6
   15740:	e3350000 	teq	r5, #0
   15744:	112fff1e 	bxne	lr
   15748:	e2036102 	and	r6, r3, #-2147483648	; 0x80000000
   1574c:	e1b02082 	lsls	r2, r2, #1
   15750:	e0a33003 	adc	r3, r3, r3
   15754:	e3130601 	tst	r3, #1048576	; 0x100000
   15758:	02455001 	subeq	r5, r5, #1
   1575c:	0afffffa 	beq	1574c <__aeabi_dmul+0x1c4>
   15760:	e1833006 	orr	r3, r3, r6
   15764:	e12fff1e 	bx	lr
   15768:	e134000c 	teq	r4, ip
   1576c:	e00c5a23 	and	r5, ip, r3, lsr #20
   15770:	1135000c 	teqne	r5, ip
   15774:	0a000006 	beq	15794 <__aeabi_dmul+0x20c>
   15778:	e1906081 	orrs	r6, r0, r1, lsl #1
   1577c:	11926083 	orrsne	r6, r2, r3, lsl #1
   15780:	1affffe5 	bne	1571c <__aeabi_dmul+0x194>
   15784:	e0211003 	eor	r1, r1, r3
   15788:	e2011102 	and	r1, r1, #-2147483648	; 0x80000000
   1578c:	e3a00000 	mov	r0, #0
   15790:	e8bd8070 	pop	{r4, r5, r6, pc}
   15794:	e1906081 	orrs	r6, r0, r1, lsl #1
   15798:	01a00002 	moveq	r0, r2
   1579c:	01a01003 	moveq	r1, r3
   157a0:	11926083 	orrsne	r6, r2, r3, lsl #1
   157a4:	0a00000f 	beq	157e8 <__aeabi_dmul+0x260>
   157a8:	e134000c 	teq	r4, ip
   157ac:	1a000001 	bne	157b8 <__aeabi_dmul+0x230>
   157b0:	e1906601 	orrs	r6, r0, r1, lsl #12
   157b4:	1a00000b 	bne	157e8 <__aeabi_dmul+0x260>
   157b8:	e135000c 	teq	r5, ip
   157bc:	1a000003 	bne	157d0 <__aeabi_dmul+0x248>
   157c0:	e1926603 	orrs	r6, r2, r3, lsl #12
   157c4:	11a00002 	movne	r0, r2
   157c8:	11a01003 	movne	r1, r3
   157cc:	1a000005 	bne	157e8 <__aeabi_dmul+0x260>
   157d0:	e0211003 	eor	r1, r1, r3
   157d4:	e2011102 	and	r1, r1, #-2147483648	; 0x80000000
   157d8:	e381147f 	orr	r1, r1, #2130706432	; 0x7f000000
   157dc:	e381160f 	orr	r1, r1, #15728640	; 0xf00000
   157e0:	e3a00000 	mov	r0, #0
   157e4:	e8bd8070 	pop	{r4, r5, r6, pc}
   157e8:	e381147f 	orr	r1, r1, #2130706432	; 0x7f000000
   157ec:	e381173e 	orr	r1, r1, #16252928	; 0xf80000
   157f0:	e8bd8070 	pop	{r4, r5, r6, pc}

000157f4 <__udivsi3>:
   157f4:	e2512001 	subs	r2, r1, #1
   157f8:	012fff1e 	bxeq	lr
   157fc:	3a000074 	bcc	159d4 <__udivsi3+0x1e0>
   15800:	e1500001 	cmp	r0, r1
   15804:	9a00006b 	bls	159b8 <__udivsi3+0x1c4>
   15808:	e1110002 	tst	r1, r2
   1580c:	0a00006c 	beq	159c4 <__udivsi3+0x1d0>
   15810:	e16f3f10 	clz	r3, r0
   15814:	e16f2f11 	clz	r2, r1
   15818:	e0423003 	sub	r3, r2, r3
   1581c:	e273301f 	rsbs	r3, r3, #31
   15820:	10833083 	addne	r3, r3, r3, lsl #1
   15824:	e3a02000 	mov	r2, #0
   15828:	108ff103 	addne	pc, pc, r3, lsl #2
   1582c:	e1a00000 	nop			; (mov r0, r0)
   15830:	e1500f81 	cmp	r0, r1, lsl #31
   15834:	e0a22002 	adc	r2, r2, r2
   15838:	20400f81 	subcs	r0, r0, r1, lsl #31
   1583c:	e1500f01 	cmp	r0, r1, lsl #30
   15840:	e0a22002 	adc	r2, r2, r2
   15844:	20400f01 	subcs	r0, r0, r1, lsl #30
   15848:	e1500e81 	cmp	r0, r1, lsl #29
   1584c:	e0a22002 	adc	r2, r2, r2
   15850:	20400e81 	subcs	r0, r0, r1, lsl #29
   15854:	e1500e01 	cmp	r0, r1, lsl #28
   15858:	e0a22002 	adc	r2, r2, r2
   1585c:	20400e01 	subcs	r0, r0, r1, lsl #28
   15860:	e1500d81 	cmp	r0, r1, lsl #27
   15864:	e0a22002 	adc	r2, r2, r2
   15868:	20400d81 	subcs	r0, r0, r1, lsl #27
   1586c:	e1500d01 	cmp	r0, r1, lsl #26
   15870:	e0a22002 	adc	r2, r2, r2
   15874:	20400d01 	subcs	r0, r0, r1, lsl #26
   15878:	e1500c81 	cmp	r0, r1, lsl #25
   1587c:	e0a22002 	adc	r2, r2, r2
   15880:	20400c81 	subcs	r0, r0, r1, lsl #25
   15884:	e1500c01 	cmp	r0, r1, lsl #24
   15888:	e0a22002 	adc	r2, r2, r2
   1588c:	20400c01 	subcs	r0, r0, r1, lsl #24
   15890:	e1500b81 	cmp	r0, r1, lsl #23
   15894:	e0a22002 	adc	r2, r2, r2
   15898:	20400b81 	subcs	r0, r0, r1, lsl #23
   1589c:	e1500b01 	cmp	r0, r1, lsl #22
   158a0:	e0a22002 	adc	r2, r2, r2
   158a4:	20400b01 	subcs	r0, r0, r1, lsl #22
   158a8:	e1500a81 	cmp	r0, r1, lsl #21
   158ac:	e0a22002 	adc	r2, r2, r2
   158b0:	20400a81 	subcs	r0, r0, r1, lsl #21
   158b4:	e1500a01 	cmp	r0, r1, lsl #20
   158b8:	e0a22002 	adc	r2, r2, r2
   158bc:	20400a01 	subcs	r0, r0, r1, lsl #20
   158c0:	e1500981 	cmp	r0, r1, lsl #19
   158c4:	e0a22002 	adc	r2, r2, r2
   158c8:	20400981 	subcs	r0, r0, r1, lsl #19
   158cc:	e1500901 	cmp	r0, r1, lsl #18
   158d0:	e0a22002 	adc	r2, r2, r2
   158d4:	20400901 	subcs	r0, r0, r1, lsl #18
   158d8:	e1500881 	cmp	r0, r1, lsl #17
   158dc:	e0a22002 	adc	r2, r2, r2
   158e0:	20400881 	subcs	r0, r0, r1, lsl #17
   158e4:	e1500801 	cmp	r0, r1, lsl #16
   158e8:	e0a22002 	adc	r2, r2, r2
   158ec:	20400801 	subcs	r0, r0, r1, lsl #16
   158f0:	e1500781 	cmp	r0, r1, lsl #15
   158f4:	e0a22002 	adc	r2, r2, r2
   158f8:	20400781 	subcs	r0, r0, r1, lsl #15
   158fc:	e1500701 	cmp	r0, r1, lsl #14
   15900:	e0a22002 	adc	r2, r2, r2
   15904:	20400701 	subcs	r0, r0, r1, lsl #14
   15908:	e1500681 	cmp	r0, r1, lsl #13
   1590c:	e0a22002 	adc	r2, r2, r2
   15910:	20400681 	subcs	r0, r0, r1, lsl #13
   15914:	e1500601 	cmp	r0, r1, lsl #12
   15918:	e0a22002 	adc	r2, r2, r2
   1591c:	20400601 	subcs	r0, r0, r1, lsl #12
   15920:	e1500581 	cmp	r0, r1, lsl #11
   15924:	e0a22002 	adc	r2, r2, r2
   15928:	20400581 	subcs	r0, r0, r1, lsl #11
   1592c:	e1500501 	cmp	r0, r1, lsl #10
   15930:	e0a22002 	adc	r2, r2, r2
   15934:	20400501 	subcs	r0, r0, r1, lsl #10
   15938:	e1500481 	cmp	r0, r1, lsl #9
   1593c:	e0a22002 	adc	r2, r2, r2
   15940:	20400481 	subcs	r0, r0, r1, lsl #9
   15944:	e1500401 	cmp	r0, r1, lsl #8
   15948:	e0a22002 	adc	r2, r2, r2
   1594c:	20400401 	subcs	r0, r0, r1, lsl #8
   15950:	e1500381 	cmp	r0, r1, lsl #7
   15954:	e0a22002 	adc	r2, r2, r2
   15958:	20400381 	subcs	r0, r0, r1, lsl #7
   1595c:	e1500301 	cmp	r0, r1, lsl #6
   15960:	e0a22002 	adc	r2, r2, r2
   15964:	20400301 	subcs	r0, r0, r1, lsl #6
   15968:	e1500281 	cmp	r0, r1, lsl #5
   1596c:	e0a22002 	adc	r2, r2, r2
   15970:	20400281 	subcs	r0, r0, r1, lsl #5
   15974:	e1500201 	cmp	r0, r1, lsl #4
   15978:	e0a22002 	adc	r2, r2, r2
   1597c:	20400201 	subcs	r0, r0, r1, lsl #4
   15980:	e1500181 	cmp	r0, r1, lsl #3
   15984:	e0a22002 	adc	r2, r2, r2
   15988:	20400181 	subcs	r0, r0, r1, lsl #3
   1598c:	e1500101 	cmp	r0, r1, lsl #2
   15990:	e0a22002 	adc	r2, r2, r2
   15994:	20400101 	subcs	r0, r0, r1, lsl #2
   15998:	e1500081 	cmp	r0, r1, lsl #1
   1599c:	e0a22002 	adc	r2, r2, r2
   159a0:	20400081 	subcs	r0, r0, r1, lsl #1
   159a4:	e1500001 	cmp	r0, r1
   159a8:	e0a22002 	adc	r2, r2, r2
   159ac:	20400001 	subcs	r0, r0, r1
   159b0:	e1a00002 	mov	r0, r2
   159b4:	e12fff1e 	bx	lr
   159b8:	03a00001 	moveq	r0, #1
   159bc:	13a00000 	movne	r0, #0
   159c0:	e12fff1e 	bx	lr
   159c4:	e16f2f11 	clz	r2, r1
   159c8:	e262201f 	rsb	r2, r2, #31
   159cc:	e1a00230 	lsr	r0, r0, r2
   159d0:	e12fff1e 	bx	lr
   159d4:	e3500000 	cmp	r0, #0
   159d8:	13e00000 	mvnne	r0, #0
   159dc:	ea00017d 	b	15fd8 <__aeabi_idiv0>

000159e0 <__aeabi_uidivmod>:
   159e0:	e3510000 	cmp	r1, #0
   159e4:	0afffffa 	beq	159d4 <__udivsi3+0x1e0>
   159e8:	e92d4003 	push	{r0, r1, lr}
   159ec:	ebffff80 	bl	157f4 <__udivsi3>
   159f0:	e8bd4006 	pop	{r1, r2, lr}
   159f4:	e0030092 	mul	r3, r2, r0
   159f8:	e0411003 	sub	r1, r1, r3
   159fc:	e12fff1e 	bx	lr

00015a00 <__aeabi_drsub>:
   15a00:	e2211102 	eor	r1, r1, #-2147483648	; 0x80000000
   15a04:	ea000000 	b	15a0c <__adddf3>

00015a08 <__aeabi_dsub>:
   15a08:	e2233102 	eor	r3, r3, #-2147483648	; 0x80000000

00015a0c <__adddf3>:
   15a0c:	e92d4030 	push	{r4, r5, lr}
   15a10:	e1a04081 	lsl	r4, r1, #1
   15a14:	e1a05083 	lsl	r5, r3, #1
   15a18:	e1340005 	teq	r4, r5
   15a1c:	01300002 	teqeq	r0, r2
   15a20:	1194c000 	orrsne	ip, r4, r0
   15a24:	1195c002 	orrsne	ip, r5, r2
   15a28:	11f0cac4 	mvnsne	ip, r4, asr #21
   15a2c:	11f0cac5 	mvnsne	ip, r5, asr #21
   15a30:	0a000079 	beq	15c1c <__adddf3+0x210>
   15a34:	e1a04aa4 	lsr	r4, r4, #21
   15a38:	e0745aa5 	rsbs	r5, r4, r5, lsr #21
   15a3c:	b2655000 	rsblt	r5, r5, #0
   15a40:	da000006 	ble	15a60 <__adddf3+0x54>
   15a44:	e0844005 	add	r4, r4, r5
   15a48:	e0202002 	eor	r2, r0, r2
   15a4c:	e0213003 	eor	r3, r1, r3
   15a50:	e0220000 	eor	r0, r2, r0
   15a54:	e0231001 	eor	r1, r3, r1
   15a58:	e0202002 	eor	r2, r0, r2
   15a5c:	e0213003 	eor	r3, r1, r3
   15a60:	e3550036 	cmp	r5, #54	; 0x36
   15a64:	88bd8030 	pophi	{r4, r5, pc}
   15a68:	e3110102 	tst	r1, #-2147483648	; 0x80000000
   15a6c:	e1a01601 	lsl	r1, r1, #12
   15a70:	e3a0c601 	mov	ip, #1048576	; 0x100000
   15a74:	e18c1621 	orr	r1, ip, r1, lsr #12
   15a78:	0a000001 	beq	15a84 <__adddf3+0x78>
   15a7c:	e2700000 	rsbs	r0, r0, #0
   15a80:	e2e11000 	rsc	r1, r1, #0
   15a84:	e3130102 	tst	r3, #-2147483648	; 0x80000000
   15a88:	e1a03603 	lsl	r3, r3, #12
   15a8c:	e18c3623 	orr	r3, ip, r3, lsr #12
   15a90:	0a000001 	beq	15a9c <__adddf3+0x90>
   15a94:	e2722000 	rsbs	r2, r2, #0
   15a98:	e2e33000 	rsc	r3, r3, #0
   15a9c:	e1340005 	teq	r4, r5
   15aa0:	0a000057 	beq	15c04 <__adddf3+0x1f8>
   15aa4:	e2444001 	sub	r4, r4, #1
   15aa8:	e275e020 	rsbs	lr, r5, #32
   15aac:	ba000005 	blt	15ac8 <__adddf3+0xbc>
   15ab0:	e1a0ce12 	lsl	ip, r2, lr
   15ab4:	e0900532 	adds	r0, r0, r2, lsr r5
   15ab8:	e2a11000 	adc	r1, r1, #0
   15abc:	e0900e13 	adds	r0, r0, r3, lsl lr
   15ac0:	e0b11553 	adcs	r1, r1, r3, asr r5
   15ac4:	ea000006 	b	15ae4 <__adddf3+0xd8>
   15ac8:	e2455020 	sub	r5, r5, #32
   15acc:	e28ee020 	add	lr, lr, #32
   15ad0:	e3520001 	cmp	r2, #1
   15ad4:	e1a0ce13 	lsl	ip, r3, lr
   15ad8:	238cc002 	orrcs	ip, ip, #2
   15adc:	e0900553 	adds	r0, r0, r3, asr r5
   15ae0:	e0b11fc3 	adcs	r1, r1, r3, asr #31
   15ae4:	e2015102 	and	r5, r1, #-2147483648	; 0x80000000
   15ae8:	5a000002 	bpl	15af8 <__adddf3+0xec>
   15aec:	e27cc000 	rsbs	ip, ip, #0
   15af0:	e2f00000 	rscs	r0, r0, #0
   15af4:	e2e11000 	rsc	r1, r1, #0
   15af8:	e3510601 	cmp	r1, #1048576	; 0x100000
   15afc:	3a00000e 	bcc	15b3c <__adddf3+0x130>
   15b00:	e3510602 	cmp	r1, #2097152	; 0x200000
   15b04:	3a000006 	bcc	15b24 <__adddf3+0x118>
   15b08:	e1b010a1 	lsrs	r1, r1, #1
   15b0c:	e1b00060 	rrxs	r0, r0
   15b10:	e1a0c06c 	rrx	ip, ip
   15b14:	e2844001 	add	r4, r4, #1
   15b18:	e1a02a84 	lsl	r2, r4, #21
   15b1c:	e3720501 	cmn	r2, #4194304	; 0x400000
   15b20:	2a000055 	bcs	15c7c <__adddf3+0x270>
   15b24:	e35c0102 	cmp	ip, #-2147483648	; 0x80000000
   15b28:	01b0c0a0 	lsrseq	ip, r0, #1
   15b2c:	e2b00000 	adcs	r0, r0, #0
   15b30:	e0a11a04 	adc	r1, r1, r4, lsl #20
   15b34:	e1811005 	orr	r1, r1, r5
   15b38:	e8bd8030 	pop	{r4, r5, pc}
   15b3c:	e1b0c08c 	lsls	ip, ip, #1
   15b40:	e0b00000 	adcs	r0, r0, r0
   15b44:	e0a11001 	adc	r1, r1, r1
   15b48:	e2544001 	subs	r4, r4, #1
   15b4c:	23510601 	cmpcs	r1, #1048576	; 0x100000
   15b50:	2afffff3 	bcs	15b24 <__adddf3+0x118>
   15b54:	e3310000 	teq	r1, #0
   15b58:	01a01000 	moveq	r1, r0
   15b5c:	03a00000 	moveq	r0, #0
   15b60:	e16f3f11 	clz	r3, r1
   15b64:	02833020 	addeq	r3, r3, #32
   15b68:	e243300b 	sub	r3, r3, #11
   15b6c:	e2532020 	subs	r2, r3, #32
   15b70:	aa000007 	bge	15b94 <__adddf3+0x188>
   15b74:	e292200c 	adds	r2, r2, #12
   15b78:	da000004 	ble	15b90 <__adddf3+0x184>
   15b7c:	e282c014 	add	ip, r2, #20
   15b80:	e262200c 	rsb	r2, r2, #12
   15b84:	e1a00c11 	lsl	r0, r1, ip
   15b88:	e1a01231 	lsr	r1, r1, r2
   15b8c:	ea000004 	b	15ba4 <__adddf3+0x198>
   15b90:	e2822014 	add	r2, r2, #20
   15b94:	d262c020 	rsble	ip, r2, #32
   15b98:	e1a01211 	lsl	r1, r1, r2
   15b9c:	d1811c30 	orrle	r1, r1, r0, lsr ip
   15ba0:	d1a00210 	lslle	r0, r0, r2
   15ba4:	e0544003 	subs	r4, r4, r3
   15ba8:	a0811a04 	addge	r1, r1, r4, lsl #20
   15bac:	a1811005 	orrge	r1, r1, r5
   15bb0:	a8bd8030 	popge	{r4, r5, pc}
   15bb4:	e1e04004 	mvn	r4, r4
   15bb8:	e254401f 	subs	r4, r4, #31
   15bbc:	aa00000d 	bge	15bf8 <__adddf3+0x1ec>
   15bc0:	e294400c 	adds	r4, r4, #12
   15bc4:	ca000005 	bgt	15be0 <__adddf3+0x1d4>
   15bc8:	e2844014 	add	r4, r4, #20
   15bcc:	e2642020 	rsb	r2, r4, #32
   15bd0:	e1a00430 	lsr	r0, r0, r4
   15bd4:	e1800211 	orr	r0, r0, r1, lsl r2
   15bd8:	e1851431 	orr	r1, r5, r1, lsr r4
   15bdc:	e8bd8030 	pop	{r4, r5, pc}
   15be0:	e264400c 	rsb	r4, r4, #12
   15be4:	e2642020 	rsb	r2, r4, #32
   15be8:	e1a00230 	lsr	r0, r0, r2
   15bec:	e1800411 	orr	r0, r0, r1, lsl r4
   15bf0:	e1a01005 	mov	r1, r5
   15bf4:	e8bd8030 	pop	{r4, r5, pc}
   15bf8:	e1a00431 	lsr	r0, r1, r4
   15bfc:	e1a01005 	mov	r1, r5
   15c00:	e8bd8030 	pop	{r4, r5, pc}
   15c04:	e3340000 	teq	r4, #0
   15c08:	e2233601 	eor	r3, r3, #1048576	; 0x100000
   15c0c:	02211601 	eoreq	r1, r1, #1048576	; 0x100000
   15c10:	02844001 	addeq	r4, r4, #1
   15c14:	12455001 	subne	r5, r5, #1
   15c18:	eaffffa1 	b	15aa4 <__adddf3+0x98>
   15c1c:	e1f0cac4 	mvns	ip, r4, asr #21
   15c20:	11f0cac5 	mvnsne	ip, r5, asr #21
   15c24:	0a000018 	beq	15c8c <__adddf3+0x280>
   15c28:	e1340005 	teq	r4, r5
   15c2c:	01300002 	teqeq	r0, r2
   15c30:	0a000003 	beq	15c44 <__adddf3+0x238>
   15c34:	e194c000 	orrs	ip, r4, r0
   15c38:	01a01003 	moveq	r1, r3
   15c3c:	01a00002 	moveq	r0, r2
   15c40:	e8bd8030 	pop	{r4, r5, pc}
   15c44:	e1310003 	teq	r1, r3
   15c48:	13a01000 	movne	r1, #0
   15c4c:	13a00000 	movne	r0, #0
   15c50:	18bd8030 	popne	{r4, r5, pc}
   15c54:	e1b0caa4 	lsrs	ip, r4, #21
   15c58:	1a000003 	bne	15c6c <__adddf3+0x260>
   15c5c:	e1b00080 	lsls	r0, r0, #1
   15c60:	e0b11001 	adcs	r1, r1, r1
   15c64:	23811102 	orrcs	r1, r1, #-2147483648	; 0x80000000
   15c68:	e8bd8030 	pop	{r4, r5, pc}
   15c6c:	e2944501 	adds	r4, r4, #4194304	; 0x400000
   15c70:	32811601 	addcc	r1, r1, #1048576	; 0x100000
   15c74:	38bd8030 	popcc	{r4, r5, pc}
   15c78:	e2015102 	and	r5, r1, #-2147483648	; 0x80000000
   15c7c:	e385147f 	orr	r1, r5, #2130706432	; 0x7f000000
   15c80:	e381160f 	orr	r1, r1, #15728640	; 0xf00000
   15c84:	e3a00000 	mov	r0, #0
   15c88:	e8bd8030 	pop	{r4, r5, pc}
   15c8c:	e1f0cac4 	mvns	ip, r4, asr #21
   15c90:	11a01003 	movne	r1, r3
   15c94:	11a00002 	movne	r0, r2
   15c98:	01f0cac5 	mvnseq	ip, r5, asr #21
   15c9c:	11a03001 	movne	r3, r1
   15ca0:	11a02000 	movne	r2, r0
   15ca4:	e1904601 	orrs	r4, r0, r1, lsl #12
   15ca8:	01925603 	orrseq	r5, r2, r3, lsl #12
   15cac:	01310003 	teqeq	r1, r3
   15cb0:	13811702 	orrne	r1, r1, #524288	; 0x80000
   15cb4:	e8bd8030 	pop	{r4, r5, pc}

00015cb8 <__aeabi_ui2d>:
   15cb8:	e3300000 	teq	r0, #0
   15cbc:	03a01000 	moveq	r1, #0
   15cc0:	012fff1e 	bxeq	lr
   15cc4:	e92d4030 	push	{r4, r5, lr}
   15cc8:	e3a04b01 	mov	r4, #1024	; 0x400
   15ccc:	e2844032 	add	r4, r4, #50	; 0x32
   15cd0:	e3a05000 	mov	r5, #0
   15cd4:	e3a01000 	mov	r1, #0
   15cd8:	eaffff9d 	b	15b54 <__adddf3+0x148>

00015cdc <__aeabi_i2d>:
   15cdc:	e3300000 	teq	r0, #0
   15ce0:	03a01000 	moveq	r1, #0
   15ce4:	012fff1e 	bxeq	lr
   15ce8:	e92d4030 	push	{r4, r5, lr}
   15cec:	e3a04b01 	mov	r4, #1024	; 0x400
   15cf0:	e2844032 	add	r4, r4, #50	; 0x32
   15cf4:	e2105102 	ands	r5, r0, #-2147483648	; 0x80000000
   15cf8:	42600000 	rsbmi	r0, r0, #0
   15cfc:	e3a01000 	mov	r1, #0
   15d00:	eaffff93 	b	15b54 <__adddf3+0x148>

00015d04 <__aeabi_f2d>:
   15d04:	e1b02080 	lsls	r2, r0, #1
   15d08:	e1a011c2 	asr	r1, r2, #3
   15d0c:	e1a01061 	rrx	r1, r1
   15d10:	e1a00e02 	lsl	r0, r2, #28
   15d14:	121234ff 	andsne	r3, r2, #-16777216	; 0xff000000
   15d18:	133304ff 	teqne	r3, #-16777216	; 0xff000000
   15d1c:	1221130e 	eorne	r1, r1, #939524096	; 0x38000000
   15d20:	112fff1e 	bxne	lr
   15d24:	e3d224ff 	bics	r2, r2, #-16777216	; 0xff000000
   15d28:	012fff1e 	bxeq	lr
   15d2c:	e33304ff 	teq	r3, #-16777216	; 0xff000000
   15d30:	03811702 	orreq	r1, r1, #524288	; 0x80000
   15d34:	012fff1e 	bxeq	lr
   15d38:	e92d4030 	push	{r4, r5, lr}
   15d3c:	e3a04d0e 	mov	r4, #896	; 0x380
   15d40:	e2015102 	and	r5, r1, #-2147483648	; 0x80000000
   15d44:	e3c11102 	bic	r1, r1, #-2147483648	; 0x80000000
   15d48:	eaffff81 	b	15b54 <__adddf3+0x148>

00015d4c <__aeabi_ul2d>:
   15d4c:	e1902001 	orrs	r2, r0, r1
   15d50:	012fff1e 	bxeq	lr
   15d54:	e92d4030 	push	{r4, r5, lr}
   15d58:	e3a05000 	mov	r5, #0
   15d5c:	ea000006 	b	15d7c <__aeabi_l2d+0x1c>

00015d60 <__aeabi_l2d>:
   15d60:	e1902001 	orrs	r2, r0, r1
   15d64:	012fff1e 	bxeq	lr
   15d68:	e92d4030 	push	{r4, r5, lr}
   15d6c:	e2115102 	ands	r5, r1, #-2147483648	; 0x80000000
   15d70:	5a000001 	bpl	15d7c <__aeabi_l2d+0x1c>
   15d74:	e2700000 	rsbs	r0, r0, #0
   15d78:	e2e11000 	rsc	r1, r1, #0
   15d7c:	e3a04b01 	mov	r4, #1024	; 0x400
   15d80:	e2844032 	add	r4, r4, #50	; 0x32
   15d84:	e1b0cb21 	lsrs	ip, r1, #22
   15d88:	0affff5a 	beq	15af8 <__adddf3+0xec>
   15d8c:	e3a02003 	mov	r2, #3
   15d90:	e1b0c1ac 	lsrs	ip, ip, #3
   15d94:	12822003 	addne	r2, r2, #3
   15d98:	e1b0c1ac 	lsrs	ip, ip, #3
   15d9c:	12822003 	addne	r2, r2, #3
   15da0:	e08221ac 	add	r2, r2, ip, lsr #3
   15da4:	e2623020 	rsb	r3, r2, #32
   15da8:	e1a0c310 	lsl	ip, r0, r3
   15dac:	e1a00230 	lsr	r0, r0, r2
   15db0:	e1800311 	orr	r0, r0, r1, lsl r3
   15db4:	e1a01231 	lsr	r1, r1, r2
   15db8:	e0844002 	add	r4, r4, r2
   15dbc:	eaffff4d 	b	15af8 <__adddf3+0xec>

00015dc0 <__gedf2>:
   15dc0:	e3e0c000 	mvn	ip, #0
   15dc4:	ea000002 	b	15dd4 <__cmpdf2+0x4>

00015dc8 <__ledf2>:
   15dc8:	e3a0c001 	mov	ip, #1
   15dcc:	ea000000 	b	15dd4 <__cmpdf2+0x4>

00015dd0 <__cmpdf2>:
   15dd0:	e3a0c001 	mov	ip, #1
   15dd4:	e52dc004 	push	{ip}		; (str ip, [sp, #-4]!)
   15dd8:	e1a0c081 	lsl	ip, r1, #1
   15ddc:	e1f0cacc 	mvns	ip, ip, asr #21
   15de0:	e1a0c083 	lsl	ip, r3, #1
   15de4:	11f0cacc 	mvnsne	ip, ip, asr #21
   15de8:	0a00000e 	beq	15e28 <__cmpdf2+0x58>
   15dec:	e28dd004 	add	sp, sp, #4
   15df0:	e190c081 	orrs	ip, r0, r1, lsl #1
   15df4:	0192c083 	orrseq	ip, r2, r3, lsl #1
   15df8:	11310003 	teqne	r1, r3
   15dfc:	01300002 	teqeq	r0, r2
   15e00:	03a00000 	moveq	r0, #0
   15e04:	012fff1e 	bxeq	lr
   15e08:	e3700000 	cmn	r0, #0
   15e0c:	e1310003 	teq	r1, r3
   15e10:	51510003 	cmppl	r1, r3
   15e14:	01500002 	cmpeq	r0, r2
   15e18:	21a00fc3 	asrcs	r0, r3, #31
   15e1c:	31e00fc3 	mvncc	r0, r3, asr #31
   15e20:	e3800001 	orr	r0, r0, #1
   15e24:	e12fff1e 	bx	lr
   15e28:	e1a0c081 	lsl	ip, r1, #1
   15e2c:	e1f0cacc 	mvns	ip, ip, asr #21
   15e30:	1a000001 	bne	15e3c <__cmpdf2+0x6c>
   15e34:	e190c601 	orrs	ip, r0, r1, lsl #12
   15e38:	1a000004 	bne	15e50 <__cmpdf2+0x80>
   15e3c:	e1a0c083 	lsl	ip, r3, #1
   15e40:	e1f0cacc 	mvns	ip, ip, asr #21
   15e44:	1affffe8 	bne	15dec <__cmpdf2+0x1c>
   15e48:	e192c603 	orrs	ip, r2, r3, lsl #12
   15e4c:	0affffe6 	beq	15dec <__cmpdf2+0x1c>
   15e50:	e49d0004 	pop	{r0}		; (ldr r0, [sp], #4)
   15e54:	e12fff1e 	bx	lr

00015e58 <__aeabi_cdrcmple>:
   15e58:	e1a0c000 	mov	ip, r0
   15e5c:	e1a00002 	mov	r0, r2
   15e60:	e1a0200c 	mov	r2, ip
   15e64:	e1a0c001 	mov	ip, r1
   15e68:	e1a01003 	mov	r1, r3
   15e6c:	e1a0300c 	mov	r3, ip
   15e70:	eaffffff 	b	15e74 <__aeabi_cdcmpeq>

00015e74 <__aeabi_cdcmpeq>:
   15e74:	e92d4001 	push	{r0, lr}
   15e78:	ebffffd4 	bl	15dd0 <__cmpdf2>
   15e7c:	e3500000 	cmp	r0, #0
   15e80:	43700000 	cmnmi	r0, #0
   15e84:	e8bd8001 	pop	{r0, pc}

00015e88 <__aeabi_dcmpeq>:
   15e88:	e52de008 	str	lr, [sp, #-8]!
   15e8c:	ebfffff8 	bl	15e74 <__aeabi_cdcmpeq>
   15e90:	03a00001 	moveq	r0, #1
   15e94:	13a00000 	movne	r0, #0
   15e98:	e49df008 	ldr	pc, [sp], #8

00015e9c <__aeabi_dcmplt>:
   15e9c:	e52de008 	str	lr, [sp, #-8]!
   15ea0:	ebfffff3 	bl	15e74 <__aeabi_cdcmpeq>
   15ea4:	33a00001 	movcc	r0, #1
   15ea8:	23a00000 	movcs	r0, #0
   15eac:	e49df008 	ldr	pc, [sp], #8

00015eb0 <__aeabi_dcmple>:
   15eb0:	e52de008 	str	lr, [sp, #-8]!
   15eb4:	ebffffee 	bl	15e74 <__aeabi_cdcmpeq>
   15eb8:	93a00001 	movls	r0, #1
   15ebc:	83a00000 	movhi	r0, #0
   15ec0:	e49df008 	ldr	pc, [sp], #8

00015ec4 <__aeabi_dcmpge>:
   15ec4:	e52de008 	str	lr, [sp, #-8]!
   15ec8:	ebffffe2 	bl	15e58 <__aeabi_cdrcmple>
   15ecc:	93a00001 	movls	r0, #1
   15ed0:	83a00000 	movhi	r0, #0
   15ed4:	e49df008 	ldr	pc, [sp], #8

00015ed8 <__aeabi_dcmpgt>:
   15ed8:	e52de008 	str	lr, [sp, #-8]!
   15edc:	ebffffdd 	bl	15e58 <__aeabi_cdrcmple>
   15ee0:	33a00001 	movcc	r0, #1
   15ee4:	23a00000 	movcs	r0, #0
   15ee8:	e49df008 	ldr	pc, [sp], #8

00015eec <__aeabi_d2iz>:
   15eec:	e1a02081 	lsl	r2, r1, #1
   15ef0:	e2922602 	adds	r2, r2, #2097152	; 0x200000
   15ef4:	2a00000c 	bcs	15f2c <__aeabi_d2iz+0x40>
   15ef8:	5a000009 	bpl	15f24 <__aeabi_d2iz+0x38>
   15efc:	e3e03e3e 	mvn	r3, #992	; 0x3e0
   15f00:	e0532ac2 	subs	r2, r3, r2, asr #21
   15f04:	9a00000a 	bls	15f34 <__aeabi_d2iz+0x48>
   15f08:	e1a03581 	lsl	r3, r1, #11
   15f0c:	e3833102 	orr	r3, r3, #-2147483648	; 0x80000000
   15f10:	e1833aa0 	orr	r3, r3, r0, lsr #21
   15f14:	e3110102 	tst	r1, #-2147483648	; 0x80000000
   15f18:	e1a00233 	lsr	r0, r3, r2
   15f1c:	12600000 	rsbne	r0, r0, #0
   15f20:	e12fff1e 	bx	lr
   15f24:	e3a00000 	mov	r0, #0
   15f28:	e12fff1e 	bx	lr
   15f2c:	e1900601 	orrs	r0, r0, r1, lsl #12
   15f30:	1a000002 	bne	15f40 <__aeabi_d2iz+0x54>
   15f34:	e2110102 	ands	r0, r1, #-2147483648	; 0x80000000
   15f38:	03e00102 	mvneq	r0, #-2147483648	; 0x80000000
   15f3c:	e12fff1e 	bx	lr
   15f40:	e3a00000 	mov	r0, #0
   15f44:	e12fff1e 	bx	lr

00015f48 <__aeabi_d2uiz>:
   15f48:	e1b02081 	lsls	r2, r1, #1
   15f4c:	2a00000a 	bcs	15f7c <__aeabi_d2uiz+0x34>
   15f50:	e2922602 	adds	r2, r2, #2097152	; 0x200000
   15f54:	2a00000a 	bcs	15f84 <__aeabi_d2uiz+0x3c>
   15f58:	5a000007 	bpl	15f7c <__aeabi_d2uiz+0x34>
   15f5c:	e3e03e3e 	mvn	r3, #992	; 0x3e0
   15f60:	e0532ac2 	subs	r2, r3, r2, asr #21
   15f64:	4a000008 	bmi	15f8c <__aeabi_d2uiz+0x44>
   15f68:	e1a03581 	lsl	r3, r1, #11
   15f6c:	e3833102 	orr	r3, r3, #-2147483648	; 0x80000000
   15f70:	e1833aa0 	orr	r3, r3, r0, lsr #21
   15f74:	e1a00233 	lsr	r0, r3, r2
   15f78:	e12fff1e 	bx	lr
   15f7c:	e3a00000 	mov	r0, #0
   15f80:	e12fff1e 	bx	lr
   15f84:	e1900601 	orrs	r0, r0, r1, lsl #12
   15f88:	1a000001 	bne	15f94 <__aeabi_d2uiz+0x4c>
   15f8c:	e3e00000 	mvn	r0, #0
   15f90:	e12fff1e 	bx	lr
   15f94:	e3a00000 	mov	r0, #0
   15f98:	e12fff1e 	bx	lr

00015f9c <__aeabi_uldivmod>:
   15f9c:	e3530000 	cmp	r3, #0
   15fa0:	03520000 	cmpeq	r2, #0
   15fa4:	1a000004 	bne	15fbc <__aeabi_uldivmod+0x20>
   15fa8:	e3510000 	cmp	r1, #0
   15fac:	03500000 	cmpeq	r0, #0
   15fb0:	13e01000 	mvnne	r1, #0
   15fb4:	13e00000 	mvnne	r0, #0
   15fb8:	ea000006 	b	15fd8 <__aeabi_idiv0>
   15fbc:	e24dd008 	sub	sp, sp, #8
   15fc0:	e92d6000 	push	{sp, lr}
   15fc4:	eb000007 	bl	15fe8 <__udivmoddi4>
   15fc8:	e59de004 	ldr	lr, [sp, #4]
   15fcc:	e28dd008 	add	sp, sp, #8
   15fd0:	e8bd000c 	pop	{r2, r3}
   15fd4:	e12fff1e 	bx	lr

00015fd8 <__aeabi_idiv0>:
   15fd8:	e92d4002 	push	{r1, lr}
   15fdc:	e3a00008 	mov	r0, #8
   15fe0:	ebfffadb 	bl	14b54 <raise>
   15fe4:	e8bd8002 	pop	{r1, pc}

00015fe8 <__udivmoddi4>:
   15fe8:	e1510003 	cmp	r1, r3
   15fec:	01500002 	cmpeq	r0, r2
   15ff0:	e92d4ff0 	push	{r4, r5, r6, r7, r8, r9, sl, fp, lr}
   15ff4:	e1a04000 	mov	r4, r0
   15ff8:	33a00000 	movcc	r0, #0
   15ffc:	e1a05001 	mov	r5, r1
   16000:	e59de024 	ldr	lr, [sp, #36]	; 0x24
   16004:	31a01000 	movcc	r1, r0
   16008:	3a00003f 	bcc	1610c <__udivmoddi4+0x124>
   1600c:	e3530000 	cmp	r3, #0
   16010:	016fcf12 	clzeq	ip, r2
   16014:	116fcf13 	clzne	ip, r3
   16018:	028cc020 	addeq	ip, ip, #32
   1601c:	e3550000 	cmp	r5, #0
   16020:	e1a07003 	mov	r7, r3
   16024:	016f3f14 	clzeq	r3, r4
   16028:	116f3f15 	clzne	r3, r5
   1602c:	02833020 	addeq	r3, r3, #32
   16030:	e04cc003 	sub	ip, ip, r3
   16034:	e24ca020 	sub	sl, ip, #32
   16038:	e1a09c17 	lsl	r9, r7, ip
   1603c:	e1899a12 	orr	r9, r9, r2, lsl sl
   16040:	e26cb020 	rsb	fp, ip, #32
   16044:	e1899b32 	orr	r9, r9, r2, lsr fp
   16048:	e1550009 	cmp	r5, r9
   1604c:	e1a08c12 	lsl	r8, r2, ip
   16050:	01540008 	cmpeq	r4, r8
   16054:	33a00000 	movcc	r0, #0
   16058:	e1a06002 	mov	r6, r2
   1605c:	31a01000 	movcc	r1, r0
   16060:	3a000005 	bcc	1607c <__udivmoddi4+0x94>
   16064:	e3a00001 	mov	r0, #1
   16068:	e0544008 	subs	r4, r4, r8
   1606c:	e1a01a10 	lsl	r1, r0, sl
   16070:	e1811b30 	orr	r1, r1, r0, lsr fp
   16074:	e0c55009 	sbc	r5, r5, r9
   16078:	e1a00c10 	lsl	r0, r0, ip
   1607c:	e35c0000 	cmp	ip, #0
   16080:	0a000021 	beq	1610c <__udivmoddi4+0x124>
   16084:	e1a060a8 	lsr	r6, r8, #1
   16088:	e1a0200c 	mov	r2, ip
   1608c:	e1866f89 	orr	r6, r6, r9, lsl #31
   16090:	e1a070a9 	lsr	r7, r9, #1
   16094:	ea000007 	b	160b8 <__udivmoddi4+0xd0>
   16098:	e0543006 	subs	r3, r4, r6
   1609c:	e0c58007 	sbc	r8, r5, r7
   160a0:	e0933003 	adds	r3, r3, r3
   160a4:	e0a88008 	adc	r8, r8, r8
   160a8:	e2934001 	adds	r4, r3, #1
   160ac:	e2a85000 	adc	r5, r8, #0
   160b0:	e2522001 	subs	r2, r2, #1
   160b4:	0a000006 	beq	160d4 <__udivmoddi4+0xec>
   160b8:	e1550007 	cmp	r5, r7
   160bc:	01540006 	cmpeq	r4, r6
   160c0:	2afffff4 	bcs	16098 <__udivmoddi4+0xb0>
   160c4:	e0944004 	adds	r4, r4, r4
   160c8:	e0a55005 	adc	r5, r5, r5
   160cc:	e2522001 	subs	r2, r2, #1
   160d0:	1afffff8 	bne	160b8 <__udivmoddi4+0xd0>
   160d4:	e1a03c34 	lsr	r3, r4, ip
   160d8:	e1833b15 	orr	r3, r3, r5, lsl fp
   160dc:	e1833a35 	orr	r3, r3, r5, lsr sl
   160e0:	e0900004 	adds	r0, r0, r4
   160e4:	e1a04003 	mov	r4, r3
   160e8:	e1a02c35 	lsr	r2, r5, ip
   160ec:	e0a11005 	adc	r1, r1, r5
   160f0:	e1a05002 	mov	r5, r2
   160f4:	e1a03c12 	lsl	r3, r2, ip
   160f8:	e1833a14 	orr	r3, r3, r4, lsl sl
   160fc:	e1a0cc14 	lsl	ip, r4, ip
   16100:	e050000c 	subs	r0, r0, ip
   16104:	e1833b34 	orr	r3, r3, r4, lsr fp
   16108:	e0c11003 	sbc	r1, r1, r3
   1610c:	e35e0000 	cmp	lr, #0
   16110:	08bd8ff0 	popeq	{r4, r5, r6, r7, r8, r9, sl, fp, pc}
   16114:	e88e0030 	stm	lr, {r4, r5}
   16118:	e8bd8ff0 	pop	{r4, r5, r6, r7, r8, r9, sl, fp, pc}

Disassembly of section .rodata:

0001611c <__func__.6484-0x2bc>:
   1611c:	6d6f682f 	stclvs	8, cr6, [pc, #-188]!	; 16068 <__udivmoddi4+0x80>
   16120:	75732f65 	ldrbvc	r2, [r3, #-3941]!	; 0xfffff09b
   16124:	6476796e 	ldrbtvs	r7, [r6], #-2414	; 0xfffff692
   16128:	2f676e6f 	svccs	0x00676e6f
   1612c:	346c6573 	strbtcc	r6, [ip], #-1395	; 0xfffffa8d
   16130:	6e696d2f 	cdpvs	13, 6, cr6, cr9, cr15, {1}
   16134:	75625f69 	strbvc	r5, [r2, #-3945]!	; 0xfffff097
   16138:	2f646c69 	svccs	0x00646c69
   1613c:	346c6573 	strbtcc	r6, [ip], #-1395	; 0xfffffa8d
   16140:	7475742d 	ldrbtvc	r7, [r5], #-1069	; 0xfffffbd3
   16144:	6169726f 	cmnvs	r9, pc, ror #4
   16148:	6d2d736c 	stcvs	3, cr7, [sp, #-432]!	; 0xfffffe50
   1614c:	66696e61 	strbtvs	r6, [r9], -r1, ror #28
   16150:	2f747365 	svccs	0x00747365
   16154:	6f747574 	svcvs	0x00747574
   16158:	6c616972 			; <UNDEFINED> instruction: 0x6c616972
   1615c:	6975625f 	ldmdbvs	r5!, {r0, r1, r2, r3, r4, r6, r9, sp, lr}^
   16160:	6c2f646c 	cfstrsvs	mvf6, [pc], #-432	; 15fb8 <__aeabi_uldivmod+0x1c>
   16164:	65736269 	ldrbvs	r6, [r3, #-617]!	; 0xfffffd97
   16168:	692f346c 	stmdbvs	pc!, {r2, r3, r5, r6, sl, ip, sp}	; <UNPREDICTABLE>
   1616c:	756c636e 	strbvc	r6, [ip, #-878]!	; 0xfffffc92
   16170:	732f6564 			; <UNDEFINED> instruction: 0x732f6564
   16174:	2f346c65 	svccs	0x00346c65
   16178:	72616873 	rsbvc	r6, r1, #7536640	; 0x730000
   1617c:	745f6465 	ldrbvc	r6, [pc], #-1125	; 16184 <__udivmoddi4+0x19c>
   16180:	73657079 	cmnvc	r5, #121	; 0x79
   16184:	6e65675f 	mcrvs	7, 3, r6, cr5, cr15, {2}
   16188:	0000682e 	andeq	r6, r0, lr, lsr #16
   1618c:	70616328 	rsbvc	r6, r1, r8, lsr #6
   16190:	6f6c6c41 	svcvs	0x006c6c41
   16194:	61724777 	cmnvs	r2, r7, ror r7
   16198:	6552746e 	ldrbvs	r7, [r2, #-1134]	; 0xfffffb92
   1619c:	20796c70 	rsbscs	r6, r9, r0, ror ip
   161a0:	307e2026 	rsbscc	r2, lr, r6, lsr #32
   161a4:	29753178 	ldmdbcs	r5!, {r3, r4, r5, r6, r8, ip, sp}^
   161a8:	203d3d20 	eorscs	r3, sp, r0, lsr #26
   161ac:	20302828 	eorscs	r2, r0, r8, lsr #16
   161b0:	28202626 	stmdacs	r0!, {r1, r2, r5, r9, sl, sp}
   161b4:	41706163 	cmnmi	r0, r3, ror #2
   161b8:	776f6c6c 	strbvc	r6, [pc, -ip, ror #24]!
   161bc:	6e617247 	cdpvs	2, 6, cr7, cr1, cr7, {2}
   161c0:	70655274 	rsbvc	r5, r5, r4, ror r2
   161c4:	2620796c 	strtcs	r7, [r0], -ip, ror #18
   161c8:	75312820 	ldrvc	r2, [r1, #-2080]!	; 0xfffff7e0
   161cc:	203c3c20 	eorscs	r3, ip, r0, lsr #24
   161d0:	29293133 	stmdbcs	r9!, {r0, r1, r4, r5, r8, ip, sp}
   161d4:	203f2029 	eorscs	r2, pc, r9, lsr #32
   161d8:	20307830 	eorscs	r7, r0, r0, lsr r8
   161dc:	2930203a 	ldmdbcs	r0!, {r1, r3, r4, r5, sp}
   161e0:	00000000 	andeq	r0, r0, r0
   161e4:	70616328 	rsbvc	r6, r1, r8, lsr #6
   161e8:	6f6c6c41 	svcvs	0x006c6c41
   161ec:	61724777 	cmnvs	r2, r7, ror r7
   161f0:	2620746e 	strtcs	r7, [r0], -lr, ror #8
   161f4:	78307e20 	ldmdavc	r0!, {r5, r9, sl, fp, ip, sp, lr}
   161f8:	20297531 	eorcs	r7, r9, r1, lsr r5
   161fc:	28203d3d 	stmdacs	r0!, {r0, r2, r3, r4, r5, r8, sl, fp, ip, sp}
   16200:	26203028 	strtcs	r3, [r0], -r8, lsr #32
   16204:	63282026 			; <UNDEFINED> instruction: 0x63282026
   16208:	6c417061 	mcrrvs	0, 6, r7, r1, cr1
   1620c:	47776f6c 	ldrbmi	r6, [r7, -ip, ror #30]!
   16210:	746e6172 	strbtvc	r6, [lr], #-370	; 0xfffffe8e
   16214:	28202620 	stmdacs	r0!, {r5, r9, sl, sp}
   16218:	3c207531 	cfstr32cc	mvfx7, [r0], #-196	; 0xffffff3c
   1621c:	3133203c 	teqcc	r3, ip, lsr r0
   16220:	20292929 	eorcs	r2, r9, r9, lsr #18
   16224:	7830203f 	ldmdavc	r0!, {r0, r1, r2, r3, r4, r5, sp}
   16228:	203a2030 	eorscs	r2, sl, r0, lsr r0
   1622c:	00002930 	andeq	r2, r0, r0, lsr r9
   16230:	70616328 	rsbvc	r6, r1, r8, lsr #6
   16234:	6f6c6c41 	svcvs	0x006c6c41
   16238:	61655277 	smcvs	21799	; 0x5527
   1623c:	20262064 	eorcs	r2, r6, r4, rrx
   16240:	3178307e 	cmncc	r8, lr, ror r0
   16244:	3d202975 			; <UNDEFINED> instruction: 0x3d202975
   16248:	2828203d 	stmdacs	r8!, {r0, r2, r3, r4, r5, sp}
   1624c:	26262030 			; <UNDEFINED> instruction: 0x26262030
   16250:	61632820 	cmnvs	r3, r0, lsr #16
   16254:	6c6c4170 	stfvse	f4, [ip], #-448	; 0xfffffe40
   16258:	6552776f 	ldrbvs	r7, [r2, #-1903]	; 0xfffff891
   1625c:	26206461 	strtcs	r6, [r0], -r1, ror #8
   16260:	75312820 	ldrvc	r2, [r1, #-2080]!	; 0xfffff7e0
   16264:	203c3c20 	eorscs	r3, ip, r0, lsr #24
   16268:	29293133 	stmdbcs	r9!, {r0, r1, r4, r5, r8, ip, sp}
   1626c:	203f2029 	eorscs	r2, pc, r9, lsr #32
   16270:	20307830 	eorscs	r7, r0, r0, lsr r8
   16274:	2930203a 	ldmdbcs	r0!, {r1, r3, r4, r5, sp}
   16278:	00000000 	andeq	r0, r0, r0
   1627c:	70616328 	rsbvc	r6, r1, r8, lsr #6
   16280:	6f6c6c41 	svcvs	0x006c6c41
   16284:	69725777 	ldmdbvs	r2!, {r0, r1, r2, r4, r5, r6, r8, r9, sl, ip, lr}^
   16288:	26206574 			; <UNDEFINED> instruction: 0x26206574
   1628c:	78307e20 	ldmdavc	r0!, {r5, r9, sl, fp, ip, sp, lr}
   16290:	20297531 	eorcs	r7, r9, r1, lsr r5
   16294:	28203d3d 	stmdacs	r0!, {r0, r2, r3, r4, r5, r8, sl, fp, ip, sp}
   16298:	26203028 	strtcs	r3, [r0], -r8, lsr #32
   1629c:	63282026 			; <UNDEFINED> instruction: 0x63282026
   162a0:	6c417061 	mcrrvs	0, 6, r7, r1, cr1
   162a4:	57776f6c 	ldrbpl	r6, [r7, -ip, ror #30]!
   162a8:	65746972 	ldrbvs	r6, [r4, #-2418]!	; 0xfffff68e
   162ac:	28202620 	stmdacs	r0!, {r5, r9, sl, sp}
   162b0:	3c207531 	cfstr32cc	mvfx7, [r0], #-196	; 0xffffff3c
   162b4:	3133203c 	teqcc	r3, ip, lsr r0
   162b8:	20292929 	eorcs	r2, r9, r9, lsr #18
   162bc:	7830203f 	ldmdavc	r0!, {r0, r1, r2, r3, r4, r5, sp}
   162c0:	203a2030 	eorscs	r2, sl, r0, lsr r0
   162c4:	00002930 	andeq	r2, r0, r0, lsr r9
   162c8:	62616c28 	rsbvs	r6, r1, #40, 24	; 0x2800
   162cc:	26206c65 	strtcs	r6, [r0], -r5, ror #24
   162d0:	78307e20 	ldmdavc	r0!, {r5, r9, sl, fp, ip, sp, lr}
   162d4:	66666666 	strbtvs	r6, [r6], -r6, ror #12
   162d8:	20297566 	eorcs	r7, r9, r6, ror #10
   162dc:	28203d3d 	stmdacs	r0!, {r0, r2, r3, r4, r5, r8, sl, fp, ip, sp}
   162e0:	26203028 	strtcs	r3, [r0], -r8, lsr #32
   162e4:	6c282026 	stcvs	0, cr2, [r8], #-152	; 0xffffff68
   162e8:	6c656261 	sfmvs	f6, 2, [r5], #-388	; 0xfffffe7c
   162ec:	28202620 	stmdacs	r0!, {r5, r9, sl, sp}
   162f0:	3c207531 	cfstr32cc	mvfx7, [r0], #-196	; 0xffffff3c
   162f4:	3133203c 	teqcc	r3, ip, lsr r0
   162f8:	20292929 	eorcs	r2, r9, r9, lsr #18
   162fc:	7830203f 	ldmdavc	r0!, {r0, r1, r2, r3, r4, r5, sp}
   16300:	203a2030 	eorscs	r2, sl, r0, lsr r0
   16304:	00002930 	andeq	r2, r0, r0, lsr r9
   16308:	70616328 	rsbvc	r6, r1, r8, lsr #6
   1630c:	776e5573 			; <UNDEFINED> instruction: 0x776e5573
   16310:	70706172 	rsbsvc	r6, r0, r2, ror r1
   16314:	26206465 	strtcs	r6, [r0], -r5, ror #8
   16318:	78307e20 	ldmdavc	r0!, {r5, r9, sl, fp, ip, sp, lr}
   1631c:	20297537 	eorcs	r7, r9, r7, lsr r5
   16320:	28203d3d 	stmdacs	r0!, {r0, r2, r3, r4, r5, r8, sl, fp, ip, sp}
   16324:	26203028 	strtcs	r3, [r0], -r8, lsr #32
   16328:	63282026 			; <UNDEFINED> instruction: 0x63282026
   1632c:	55737061 	ldrbpl	r7, [r3, #-97]!	; 0xffffff9f
   16330:	6172776e 	cmnvs	r2, lr, ror #14
   16334:	64657070 	strbtvs	r7, [r5], #-112	; 0xffffff90
   16338:	28202620 	stmdacs	r0!, {r5, r9, sl, sp}
   1633c:	3c207531 	cfstr32cc	mvfx7, [r0], #-196	; 0xffffff3c
   16340:	3133203c 	teqcc	r3, ip, lsr r0
   16344:	20292929 	eorcs	r2, r9, r9, lsr #18
   16348:	7830203f 	ldmdavc	r0!, {r0, r1, r2, r3, r4, r5, sp}
   1634c:	203a2030 	eorscs	r2, sl, r0, lsr r0
   16350:	00002930 	andeq	r2, r0, r0, lsr r9
   16354:	74786528 	ldrbtvc	r6, [r8], #-1320	; 0xfffffad8
   16358:	61436172 	hvcvs	13842	; 0x3612
   1635c:	26207370 			; <UNDEFINED> instruction: 0x26207370
   16360:	78307e20 	ldmdavc	r0!, {r5, r9, sl, fp, ip, sp, lr}
   16364:	20297533 	eorcs	r7, r9, r3, lsr r5
   16368:	28203d3d 	stmdacs	r0!, {r0, r2, r3, r4, r5, r8, sl, fp, ip, sp}
   1636c:	26203028 	strtcs	r3, [r0], -r8, lsr #32
   16370:	65282026 	strvs	r2, [r8, #-38]!	; 0xffffffda
   16374:	61727478 	cmnvs	r2, r8, ror r4
   16378:	73706143 	cmnvc	r0, #-1073741808	; 0xc0000010
   1637c:	28202620 	stmdacs	r0!, {r5, r9, sl, sp}
   16380:	3c207531 	cfstr32cc	mvfx7, [r0], #-196	; 0xffffff3c
   16384:	3133203c 	teqcc	r3, ip, lsr r0
   16388:	20292929 	eorcs	r2, r9, r9, lsr #18
   1638c:	7830203f 	ldmdavc	r0!, {r0, r1, r2, r3, r4, r5, sp}
   16390:	203a2030 	eorscs	r2, sl, r0, lsr r0
   16394:	00002930 	andeq	r2, r0, r0, lsr r9
   16398:	6e656c28 	cdpvs	12, 6, cr6, cr5, cr8, {1}
   1639c:	20687467 	rsbcs	r7, r8, r7, ror #8
   163a0:	307e2026 	rsbscc	r2, lr, r6, lsr #32
   163a4:	75663778 	strbvc	r3, [r6, #-1912]!	; 0xfffff888
   163a8:	3d3d2029 	ldccc	0, cr2, [sp, #-164]!	; 0xffffff5c
   163ac:	30282820 	eorcc	r2, r8, r0, lsr #16
   163b0:	20262620 	eorcs	r2, r6, r0, lsr #12
   163b4:	6e656c28 	cdpvs	12, 6, cr6, cr5, cr8, {1}
   163b8:	20687467 	rsbcs	r7, r8, r7, ror #8
   163bc:	31282026 			; <UNDEFINED> instruction: 0x31282026
   163c0:	3c3c2075 	ldccc	0, cr2, [ip], #-468	; 0xfffffe2c
   163c4:	29313320 	ldmdbcs	r1!, {r5, r8, r9, ip, sp}
   163c8:	3f202929 	svccc	0x00202929
   163cc:	30783020 	rsbscc	r3, r8, r0, lsr #32
   163d0:	30203a20 	eorcc	r3, r0, r0, lsr #20
   163d4:	00000029 	andeq	r0, r0, r9, lsr #32

000163d8 <__func__.6484>:
   163d8:	344c6573 	strbcc	r6, [ip], #-1395	; 0xfffffa8d
   163dc:	7061435f 	rsbvc	r4, r1, pc, asr r3
   163e0:	68676952 	stmdavs	r7!, {r1, r4, r6, r8, fp, sp, lr}^
   163e4:	6e5f7374 	mrcvs	3, 2, r7, cr15, cr4, {3}
   163e8:	00007765 	andeq	r7, r0, r5, ror #14

000163ec <__func__.6575>:
   163ec:	344c6573 	strbcc	r6, [ip], #-1395	; 0xfffffa8d
   163f0:	73654d5f 	cmnvc	r5, #6080	; 0x17c0
   163f4:	65676173 	strbvs	r6, [r7, #-371]!	; 0xfffffe8d
   163f8:	6f666e49 	svcvs	0x00666e49
   163fc:	77656e5f 			; <UNDEFINED> instruction: 0x77656e5f
   16400:	00000000 	andeq	r0, r0, r0

00016404 <seL4_AsyncEndpointObject>:
    seL4_ReplyObject,
#endif
    seL4_NonArchObjectTypeCount,
} seL4_ObjectType;

__attribute__((deprecated("use seL4_NotificationObject"))) static const seL4_ObjectType seL4_AsyncEndpointObject =
   16404:	00000003 	andeq	r0, r0, r3
   16408:	746f6f72 	strbtvc	r6, [pc], #-3954	; 16410 <seL4_AsyncEndpointObject+0xc>
   1640c:	76726573 			; <UNDEFINED> instruction: 0x76726573
   16410:	00007265 	andeq	r7, r0, r5, ror #4
   16414:	344c6573 	strbcc	r6, [ip], #-1395	; 0xfffffa8d
   16418:	4100313d 	tstmi	r0, sp, lsr r1
   1641c:	72657373 	rsbvc	r7, r5, #-872415231	; 0xcc000001
   16420:	6e6f6974 			; <UNDEFINED> instruction: 0x6e6f6974
   16424:	69616620 	stmdbvs	r1!, {r5, r9, sl, sp, lr}^
   16428:	3a64656c 	bcc	192f9e0 <__bss_end__+0x1907930>
   1642c:	20732520 	rsbscs	r2, r3, r0, lsr #10
   16430:	3a732528 	bcc	1cdf8d8 <__bss_end__+0x1cb7828>
   16434:	3a732520 	bcc	1cdf8bc <__bss_end__+0x1cb780c>
   16438:	29642520 	stmdbcs	r4!, {r5, r8, sl, sp}^
   1643c:	0000000a 	andeq	r0, r0, sl

00016440 <stderr>:
   16440:	00017000 	andeq	r7, r1, r0
   16444:	20202b2d 	eorcs	r2, r0, sp, lsr #22
   16448:	30583020 	subscc	r3, r8, r0, lsr #32
   1644c:	6e280078 	mcrvs	0, 1, r0, cr8, cr8, {3}
   16450:	296c6c75 	stmdbcs	ip!, {r0, r2, r4, r5, r6, sl, fp, sp, lr}^
   16454:	58302d00 	ldmdapl	r0!, {r8, sl, fp, sp}
   16458:	2058302b 	subscs	r3, r8, fp, lsr #32
   1645c:	302d5830 	eorcc	r5, sp, r0, lsr r8
   16460:	78302b78 	ldmdavc	r0!, {r3, r4, r5, r6, r8, r9, fp, sp}
   16464:	00783020 	rsbseq	r3, r8, r0, lsr #32
   16468:	00666e69 	rsbeq	r6, r6, r9, ror #28
   1646c:	00464e49 	subeq	r4, r6, r9, asr #28
   16470:	006e616e 	rsbeq	r6, lr, lr, ror #2
   16474:	004e414e 	subeq	r4, lr, lr, asr #2
   16478:	 	andseq	r0, r1, lr, lsr #32

0001647a <states>:
   1647a:	000a0011 	andeq	r0, sl, r1, lsl r0
   1647e:	00111111 	andseq	r1, r1, r1, lsl r1
   16482:	05000000 	streq	r0, [r0, #-0]
   16486:	00000000 	andeq	r0, r0, r0
   1648a:	00090000 	andeq	r0, r9, r0
   1648e:	0b000000 	bleq	16496 <states+0x1c>
	...
   1649a:	0a0f0011 	beq	3d64e6 <__bss_end__+0x3ae436>
   1649e:	03111111 	tsteq	r1, #1073741828	; 0x40000004
   164a2:	0100070a 	tsteq	r0, sl, lsl #14
   164a6:	0b0b0913 	bleq	2d88fa <__bss_end__+0x2b084a>
   164aa:	06090000 	streq	r0, [r9], -r0
   164ae:	0b00000b 	bleq	164e2 <states+0x68>
   164b2:	00110600 	andseq	r0, r1, r0, lsl #12
   164b6:	11110000 	tstne	r1, r0
   164ba:	00000011 	andeq	r0, r0, r1, lsl r0
	...
   164ca:	00000b00 	andeq	r0, r0, r0, lsl #22
   164ce:	00000000 	andeq	r0, r0, r0
   164d2:	00110000 	andseq	r0, r1, r0
   164d6:	11110a0a 	tstne	r1, sl, lsl #20
   164da:	000a0011 	andeq	r0, sl, r1, lsl r0
   164de:	09000200 	stmdbeq	r0, {r9}
   164e2:	0000000b 	andeq	r0, r0, fp
   164e6:	000b0009 	andeq	r0, fp, r9
   164ea:	00000b00 	andeq	r0, r0, r0, lsl #22
	...
   16502:	0c000000 	stceq	0, cr0, [r0], {-0}
	...
   1650e:	0c000000 	stceq	0, cr0, [r0], {-0}
   16512:	00000000 	andeq	r0, r0, r0
   16516:	0000000c 	andeq	r0, r0, ip
   1651a:	000c0900 	andeq	r0, ip, r0, lsl #18
   1651e:	00000000 	andeq	r0, r0, r0
   16522:	0c00000c 	stceq	0, cr0, [r0], {12}
	...
   1653e:	00000e00 	andeq	r0, r0, r0, lsl #28
	...
   1654a:	00000d00 	andeq	r0, r0, r0, lsl #26
   1654e:	000d0400 	andeq	r0, sp, r0, lsl #8
   16552:	09000000 	stmdbeq	r0, {}	; <UNPREDICTABLE>
   16556:	0000000e 	andeq	r0, r0, lr
   1655a:	000e0000 	andeq	r0, lr, r0
   1655e:	00000e00 	andeq	r0, r0, r0, lsl #28
	...
   16576:	10000000 	andne	r0, r0, r0
	...
   16582:	0f000000 	svceq	0x00000000
   16586:	00000000 	andeq	r0, r0, r0
   1658a:	0000000f 	andeq	r0, r0, pc
   1658e:	00100900 	andseq	r0, r0, r0, lsl #18
   16592:	00000000 	andeq	r0, r0, r0
   16596:	10000010 	andne	r0, r0, r0, lsl r0
   1659a:	00120000 	andseq	r0, r2, r0
   1659e:	12120000 	andsne	r0, r2, #0
   165a2:	00000012 	andeq	r0, r0, r2, lsl r0
	...
   165ba:	00120000 	andseq	r0, r2, r0
   165be:	12120000 	andsne	r0, r2, #0
   165c2:	00000012 	andeq	r0, r0, r2, lsl r0
   165c6:	09000000 	stmdbeq	r0, {}	; <UNPREDICTABLE>
	...
   165ea:	0b000000 	bleq	165f2 <states+0x178>
	...
   165f6:	0a000000 	beq	165fe <states+0x184>
   165fa:	00000000 	andeq	r0, r0, r0
   165fe:	0000000a 	andeq	r0, r0, sl
   16602:	000b0900 	andeq	r0, fp, r0, lsl #18
   16606:	00000000 	andeq	r0, r0, r0
   1660a:	0b00000b 	bleq	1663e <states+0x1c4>
	...
   16626:	00000c00 	andeq	r0, r0, r0, lsl #24
	...
   16632:	00000c00 	andeq	r0, r0, r0, lsl #24
   16636:	000c0000 	andeq	r0, ip, r0
   1663a:	09000000 	stmdbeq	r0, {}	; <UNPREDICTABLE>
   1663e:	0000000c 	andeq	r0, r0, ip
   16642:	000c0000 	andeq	r0, ip, r0
   16646:	00000c00 	andeq	r0, r0, r0, lsl #24

0001664a <xdigits>:
   1664a:	33323130 	teqcc	r2, #48, 2
   1664e:	37363534 			; <UNDEFINED> instruction: 0x37363534
   16652:	42413938 	submi	r3, r1, #56, 18	; 0xe0000
   16656:	46454443 	strbmi	r4, [r5], -r3, asr #8

0001665a <errid>:
   1665a:	19222154 	stmdbne	r2!, {r2, r4, r6, r8, sp}
   1665e:	0302010d 	movweq	r0, #8461	; 0x210d
   16662:	0c1c4b11 			; <UNDEFINED> instruction: 0x0c1c4b11
   16666:	1d0b0410 	cfstrsne	mvf0, [fp, #-64]	; 0xffffffc0
   1666a:	68271e12 	stmdavs	r7!, {r1, r4, r9, sl, fp, ip}
   1666e:	71706f6e 	cmnvc	r0, lr, ror #30
   16672:	06052062 	streq	r2, [r5], -r2, rrx
   16676:	1514130f 	ldrne	r1, [r4, #-783]	; 0xfffffcf1
   1667a:	0716081a 			; <UNDEFINED> instruction: 0x0716081a
   1667e:	18172428 	ldmdane	r7, {r3, r5, sl, sp}
   16682:	1b0e0a09 	blne	398eae <__bss_end__+0x370dfe>
   16686:	8323251f 			; <UNDEFINED> instruction: 0x8323251f
   1668a:	2a267d82 	bcs	9b5c9a <__bss_end__+0x98dbea>
   1668e:	3e3d3c2b 	cdpcc	12, 3, cr3, cr13, cr11, {1}
   16692:	4a47433f 	bmi	11e7396 <__bss_end__+0x11bf2e6>
   16696:	5a59584d 	bpl	166c7d2 <__bss_end__+0x1644722>
   1669a:	5e5d5c5b 	mrcpl	12, 2, r5, cr13, cr11, {2}
   1669e:	6361605f 	cmnvs	r1, #95	; 0x5f
   166a2:	67666564 	strbvs	r6, [r6, -r4, ror #10]!
   166a6:	6c6b6a69 			; <UNDEFINED> instruction: 0x6c6b6a69
   166aa:	79747372 	ldmdbvc	r4!, {r1, r4, r5, r6, r8, r9, ip, sp, lr}^
   166ae:	007c7b7a 	rsbseq	r7, ip, sl, ror fp

000166b2 <errmsg>:
   166b2:	656c6c49 	strbvs	r6, [ip, #-3145]!	; 0xfffff3b7
   166b6:	206c6167 	rsbcs	r6, ip, r7, ror #2
   166ba:	65747962 	ldrbvs	r7, [r4, #-2402]!	; 0xfffff69e
   166be:	71657320 	cmnvc	r5, r0, lsr #6
   166c2:	636e6575 	cmnvs	lr, #490733568	; 0x1d400000
   166c6:	6f440065 	svcvs	0x00440065
   166ca:	6e69616d 	powvsez	f6, f1, #5.0
   166ce:	72726520 	rsbsvc	r6, r2, #32, 10	; 0x8000000
   166d2:	5200726f 	andpl	r7, r0, #-268435450	; 0xf0000006
   166d6:	6c757365 	ldclvs	3, cr7, [r5], #-404	; 0xfffffe6c
   166da:	6f6e2074 	svcvs	0x006e2074
   166de:	65722074 	ldrbvs	r2, [r2, #-116]!	; 0xffffff8c
   166e2:	73657270 	cmnvc	r5, #112, 4
   166e6:	61746e65 	cmnvs	r4, r5, ror #28
   166ea:	00656c62 	rsbeq	r6, r5, r2, ror #24
   166ee:	20746f4e 	rsbscs	r6, r4, lr, asr #30
   166f2:	74742061 	ldrbtvc	r2, [r4], #-97	; 0xffffff9f
   166f6:	65500079 	ldrbvs	r0, [r0, #-121]	; 0xffffff87
   166fa:	73696d72 	cmnvc	r9, #7296	; 0x1c80
   166fe:	6e6f6973 			; <UNDEFINED> instruction: 0x6e6f6973
   16702:	6e656420 	cdpvs	4, 6, cr6, cr5, cr0, {1}
   16706:	00646569 	rsbeq	r6, r4, r9, ror #10
   1670a:	7265704f 	rsbvc	r7, r5, #79	; 0x4f
   1670e:	6f697461 	svcvs	0x00697461
   16712:	6f6e206e 	svcvs	0x006e206e
   16716:	65702074 	ldrbvs	r2, [r0, #-116]!	; 0xffffff8c
   1671a:	74696d72 	strbtvc	r6, [r9], #-3442	; 0xfffff28e
   1671e:	00646574 	rsbeq	r6, r4, r4, ror r5
   16722:	73206f4e 			; <UNDEFINED> instruction: 0x73206f4e
   16726:	20686375 	rsbcs	r6, r8, r5, ror r3
   1672a:	656c6966 	strbvs	r6, [ip, #-2406]!	; 0xfffff69a
   1672e:	20726f20 	rsbscs	r6, r2, r0, lsr #30
   16732:	65726964 	ldrbvs	r6, [r2, #-2404]!	; 0xfffff69c
   16736:	726f7463 	rsbvc	r7, pc, #1660944384	; 0x63000000
   1673a:	6f4e0079 	svcvs	0x004e0079
   1673e:	63757320 	cmnvs	r5, #32, 6	; 0x80000000
   16742:	72702068 	rsbsvc	r2, r0, #104	; 0x68
   16746:	7365636f 	cmnvc	r5, #-1140850687	; 0xbc000001
   1674a:	69460073 	stmdbvs	r6, {r0, r1, r4, r5, r6}^
   1674e:	6520656c 	strvs	r6, [r0, #-1388]!	; 0xfffffa94
   16752:	74736978 	ldrbtvc	r6, [r3], #-2424	; 0xfffff688
   16756:	61560073 	cmpvs	r6, r3, ror r0
   1675a:	2065756c 	rsbcs	r7, r5, ip, ror #10
   1675e:	206f6f74 	rsbcs	r6, pc, r4, ror pc	; <UNPREDICTABLE>
   16762:	6772616c 	ldrbvs	r6, [r2, -ip, ror #2]!
   16766:	6f662065 	svcvs	0x00662065
   1676a:	61642072 	smcvs	16898	; 0x4202
   1676e:	74206174 	strtvc	r6, [r0], #-372	; 0xfffffe8c
   16772:	00657079 	rsbeq	r7, r5, r9, ror r0
   16776:	73206f4e 			; <UNDEFINED> instruction: 0x73206f4e
   1677a:	65636170 	strbvs	r6, [r3, #-368]!	; 0xfffffe90
   1677e:	66656c20 	strbtvs	r6, [r5], -r0, lsr #24
   16782:	6e6f2074 	mcrvs	0, 3, r2, cr15, cr4, {3}
   16786:	76656420 	strbtvc	r6, [r5], -r0, lsr #8
   1678a:	00656369 	rsbeq	r6, r5, r9, ror #6
   1678e:	2074754f 	rsbscs	r7, r4, pc, asr #10
   16792:	6d20666f 	stcvs	6, cr6, [r0, #-444]!	; 0xfffffe44
   16796:	726f6d65 	rsbvc	r6, pc, #6464	; 0x1940
   1679a:	65520079 	ldrbvs	r0, [r2, #-121]	; 0xffffff87
   1679e:	72756f73 	rsbsvc	r6, r5, #460	; 0x1cc
   167a2:	62206563 	eorvs	r6, r0, #415236096	; 0x18c00000
   167a6:	00797375 	rsbseq	r7, r9, r5, ror r3
   167aa:	65746e49 	ldrbvs	r6, [r4, #-3657]!	; 0xfffff1b7
   167ae:	70757272 	rsbsvc	r7, r5, r2, ror r2
   167b2:	20646574 	rsbcs	r6, r4, r4, ror r5
   167b6:	74737973 	ldrbtvc	r7, [r3], #-2419	; 0xfffff68d
   167ba:	63206d65 			; <UNDEFINED> instruction: 0x63206d65
   167be:	006c6c61 	rsbeq	r6, ip, r1, ror #24
   167c2:	6f736552 	svcvs	0x00736552
   167c6:	65637275 	strbvs	r7, [r3, #-629]!	; 0xfffffd8b
   167ca:	6d657420 	cfstrdvs	mvd7, [r5, #-128]!	; 0xffffff80
   167ce:	61726f70 	cmnvs	r2, r0, ror pc
   167d2:	796c6972 	stmdbvc	ip!, {r1, r4, r5, r6, r8, fp, sp, lr}^
   167d6:	616e7520 	cmnvs	lr, r0, lsr #10
   167da:	6c696176 	stfvse	f6, [r9], #-472	; 0xfffffe28
   167de:	656c6261 	strbvs	r6, [ip, #-609]!	; 0xfffffd9f
   167e2:	766e4900 	strbtvc	r4, [lr], -r0, lsl #18
   167e6:	64696c61 	strbtvs	r6, [r9], #-3169	; 0xfffff39f
   167ea:	65657320 	strbvs	r7, [r5, #-800]!	; 0xfffffce0
   167ee:	7243006b 	subvc	r0, r3, #107	; 0x6b
   167f2:	2d73736f 	ldclcs	3, cr7, [r3, #-444]!	; 0xfffffe44
   167f6:	69766564 	ldmdbvs	r6!, {r2, r5, r6, r8, sl, sp, lr}^
   167fa:	6c206563 	cfstr32vs	mvfx6, [r0], #-396	; 0xfffffe74
   167fe:	006b6e69 	rsbeq	r6, fp, r9, ror #28
   16802:	64616552 	strbtvs	r6, [r1], #-1362	; 0xfffffaae
   16806:	6c6e6f2d 	stclvs	15, cr6, [lr], #-180	; 0xffffff4c
   1680a:	69662079 	stmdbvs	r6!, {r0, r3, r4, r5, r6, sp}^
   1680e:	7320656c 			; <UNDEFINED> instruction: 0x7320656c
   16812:	65747379 	ldrbvs	r7, [r4, #-889]!	; 0xfffffc87
   16816:	6944006d 	stmdbvs	r4, {r0, r2, r3, r5, r6}^
   1681a:	74636572 	strbtvc	r6, [r3], #-1394	; 0xfffffa8e
   1681e:	2079726f 	rsbscs	r7, r9, pc, ror #4
   16822:	20746f6e 	rsbscs	r6, r4, lr, ror #30
   16826:	74706d65 	ldrbtvc	r6, [r0], #-3429	; 0xfffff29b
   1682a:	6f430079 	svcvs	0x00430079
   1682e:	63656e6e 	cmnvs	r5, #1760	; 0x6e0
   16832:	6e6f6974 			; <UNDEFINED> instruction: 0x6e6f6974
   16836:	73657220 	cmnvc	r5, #32, 4
   1683a:	62207465 	eorvs	r7, r0, #1694498816	; 0x65000000
   1683e:	65702079 	ldrbvs	r2, [r0, #-121]!	; 0xffffff87
   16842:	4f007265 	svcmi	0x00007265
   16846:	61726570 	cmnvs	r2, r0, ror r5
   1684a:	6e6f6974 			; <UNDEFINED> instruction: 0x6e6f6974
   1684e:	6d697420 	cfstrdvs	mvd7, [r9, #-128]!	; 0xffffff80
   16852:	6f206465 	svcvs	0x00206465
   16856:	43007475 	movwmi	r7, #1141	; 0x475
   1685a:	656e6e6f 	strbvs	r6, [lr, #-3695]!	; 0xfffff191
   1685e:	6f697463 	svcvs	0x00697463
   16862:	6572206e 	ldrbvs	r2, [r2, #-110]!	; 0xffffff92
   16866:	65737566 	ldrbvs	r7, [r3, #-1382]!	; 0xfffffa9a
   1686a:	6f480064 	svcvs	0x00480064
   1686e:	69207473 	stmdbvs	r0!, {r0, r1, r4, r5, r6, sl, ip, sp, lr}
   16872:	6f642073 	svcvs	0x00642073
   16876:	48006e77 	stmdami	r0, {r0, r1, r2, r4, r5, r6, r9, sl, fp, sp, lr}
   1687a:	2074736f 	rsbscs	r7, r4, pc, ror #6
   1687e:	75207369 	strvc	r7, [r0, #-873]!	; 0xfffffc97
   16882:	6165726e 	cmnvs	r5, lr, ror #4
   16886:	62616863 	rsbvs	r6, r1, #6488064	; 0x630000
   1688a:	4100656c 	tstmi	r0, ip, ror #10
   1688e:	65726464 	ldrbvs	r6, [r2, #-1124]!	; 0xfffffb9c
   16892:	69207373 	stmdbvs	r0!, {r0, r1, r4, r5, r6, r8, r9, ip, sp, lr}
   16896:	7375206e 	cmnvc	r5, #110	; 0x6e
   1689a:	72420065 	subvc	r0, r2, #101	; 0x65
   1689e:	6e656b6f 	vnmulvs.f64	d22, d5, d31
   168a2:	70697020 	rsbvc	r7, r9, r0, lsr #32
   168a6:	2f490065 	svccs	0x00490065
   168aa:	7265204f 	rsbvc	r2, r5, #79	; 0x4f
   168ae:	00726f72 	rsbseq	r6, r2, r2, ror pc
   168b2:	73206f4e 			; <UNDEFINED> instruction: 0x73206f4e
   168b6:	20686375 	rsbcs	r6, r8, r5, ror r3
   168ba:	69766564 	ldmdbvs	r6!, {r2, r5, r6, r8, sl, sp, lr}^
   168be:	6f206563 	svcvs	0x00206563
   168c2:	64612072 	strbtvs	r2, [r1], #-114	; 0xffffff8e
   168c6:	73657264 	cmnvc	r5, #100, 4	; 0x40000006
   168ca:	6c420073 	mcrrvs	0, 7, r0, r2, cr3
   168ce:	206b636f 	rsbcs	r6, fp, pc, ror #6
   168d2:	69766564 	ldmdbvs	r6!, {r2, r5, r6, r8, sl, sp, lr}^
   168d6:	72206563 	eorvc	r6, r0, #415236096	; 0x18c00000
   168da:	69757165 	ldmdbvs	r5!, {r0, r2, r5, r6, r8, ip, sp, lr}^
   168de:	00646572 	rsbeq	r6, r4, r2, ror r5
   168e2:	73206f4e 			; <UNDEFINED> instruction: 0x73206f4e
   168e6:	20686375 	rsbcs	r6, r8, r5, ror r3
   168ea:	69766564 	ldmdbvs	r6!, {r2, r5, r6, r8, sl, sp, lr}^
   168ee:	4e006563 	cfsh32mi	mvfx6, mvfx0, #51
   168f2:	6120746f 			; <UNDEFINED> instruction: 0x6120746f
   168f6:	72696420 	rsbvc	r6, r9, #32, 8	; 0x20000000
   168fa:	6f746365 	svcvs	0x00746365
   168fe:	49007972 	stmdbmi	r0, {r1, r4, r5, r6, r8, fp, ip, sp, lr}
   16902:	20612073 	rsbcs	r2, r1, r3, ror r0
   16906:	65726964 	ldrbvs	r6, [r2, #-2404]!	; 0xfffff69c
   1690a:	726f7463 	rsbvc	r7, pc, #1660944384	; 0x63000000
   1690e:	65540079 	ldrbvs	r0, [r4, #-121]	; 0xffffff87
   16912:	66207478 			; <UNDEFINED> instruction: 0x66207478
   16916:	20656c69 	rsbcs	r6, r5, r9, ror #24
   1691a:	79737562 	ldmdbvc	r3!, {r1, r5, r6, r8, sl, ip, sp, lr}^
   1691e:	65784500 	ldrbvs	r4, [r8, #-1280]!	; 0xfffffb00
   16922:	6f662063 	svcvs	0x00662063
   16926:	74616d72 	strbtvc	r6, [r1], #-3442	; 0xfffff28e
   1692a:	72726520 	rsbsvc	r6, r2, #32, 10	; 0x8000000
   1692e:	4900726f 	stmdbmi	r0, {r0, r1, r2, r3, r5, r6, r9, ip, sp, lr}
   16932:	6c61766e 	stclvs	6, cr7, [r1], #-440	; 0xfffffe48
   16936:	61206469 			; <UNDEFINED> instruction: 0x61206469
   1693a:	6d756772 	ldclvs	7, cr6, [r5, #-456]!	; 0xfffffe38
   1693e:	00746e65 	rsbseq	r6, r4, r5, ror #28
   16942:	75677241 	strbvc	r7, [r7, #-577]!	; 0xfffffdbf
   16946:	746e656d 	strbtvc	r6, [lr], #-1389	; 0xfffffa93
   1694a:	73696c20 	cmnvc	r9, #32, 24	; 0x2000
   1694e:	6f742074 	svcvs	0x00742074
   16952:	6f6c206f 	svcvs	0x006c206f
   16956:	5300676e 	movwpl	r6, #1902	; 0x76e
   1695a:	6f626d79 	svcvs	0x00626d79
   1695e:	2063696c 	rsbcs	r6, r3, ip, ror #18
   16962:	6b6e696c 	blvs	1bb0f1a <__bss_end__+0x1b88e6a>
   16966:	6f6f6c20 	svcvs	0x006f6c20
   1696a:	69460070 	stmdbvs	r6, {r4, r5, r6}^
   1696e:	616e656c 	cmnvs	lr, ip, ror #10
   16972:	7420656d 	strtvc	r6, [r0], #-1389	; 0xfffffa93
   16976:	6c206f6f 	stcvs	15, cr6, [r0], #-444	; 0xfffffe44
   1697a:	00676e6f 	rsbeq	r6, r7, pc, ror #28
   1697e:	206f6f54 	rsbcs	r6, pc, r4, asr pc	; <UNPREDICTABLE>
   16982:	796e616d 	stmdbvc	lr!, {r0, r2, r3, r5, r6, r8, sp, lr}^
   16986:	65706f20 	ldrbvs	r6, [r0, #-3872]!	; 0xfffff0e0
   1698a:	6966206e 	stmdbvs	r6!, {r1, r2, r3, r5, r6, sp}^
   1698e:	2073656c 	rsbscs	r6, r3, ip, ror #10
   16992:	73206e69 			; <UNDEFINED> instruction: 0x73206e69
   16996:	65747379 	ldrbvs	r7, [r4, #-889]!	; 0xfffffc87
   1699a:	6f4e006d 	svcvs	0x004e006d
   1699e:	6c696620 	stclvs	6, cr6, [r9], #-128	; 0xffffff80
   169a2:	65642065 	strbvs	r2, [r4, #-101]!	; 0xffffff9b
   169a6:	69726373 	ldmdbvs	r2!, {r0, r1, r4, r5, r6, r8, r9, sp, lr}^
   169aa:	726f7470 	rsbvc	r7, pc, #112, 8	; 0x70000000
   169ae:	76612073 			; <UNDEFINED> instruction: 0x76612073
   169b2:	616c6961 	cmnvs	ip, r1, ror #18
   169b6:	00656c62 	rsbeq	r6, r5, r2, ror #24
   169ba:	20646142 	rsbcs	r6, r4, r2, asr #2
   169be:	656c6966 	strbvs	r6, [ip, #-2406]!	; 0xfffff69a
   169c2:	73656420 	cmnvc	r5, #32, 8	; 0x20000000
   169c6:	70697263 	rsbvc	r7, r9, r3, ror #4
   169ca:	00726f74 	rsbseq	r6, r2, r4, ror pc
   169ce:	63206f4e 			; <UNDEFINED> instruction: 0x63206f4e
   169d2:	646c6968 	strbtvs	r6, [ip], #-2408	; 0xfffff698
   169d6:	6f727020 	svcvs	0x00727020
   169da:	73736563 	cmnvc	r3, #415236096	; 0x18c00000
   169de:	64614200 	strbtvs	r4, [r1], #-512	; 0xfffffe00
   169e2:	64646120 	strbtvs	r6, [r4], #-288	; 0xfffffee0
   169e6:	73736572 	cmnvc	r3, #478150656	; 0x1c800000
   169ea:	6c694600 	stclvs	6, cr4, [r9], #-0
   169ee:	6f742065 	svcvs	0x00742065
   169f2:	616c206f 	cmnvs	ip, pc, rrx
   169f6:	00656772 	rsbeq	r6, r5, r2, ror r7
   169fa:	206f6f54 	rsbcs	r6, pc, r4, asr pc	; <UNPREDICTABLE>
   169fe:	796e616d 	stmdbvc	lr!, {r0, r2, r3, r5, r6, r8, sp, lr}^
   16a02:	6e696c20 	cdpvs	12, 6, cr6, cr9, cr0, {1}
   16a06:	4e00736b 	cdpmi	3, 0, cr7, cr0, cr11, {3}
   16a0a:	6f6c206f 	svcvs	0x006c206f
   16a0e:	20736b63 	rsbscs	r6, r3, r3, ror #22
   16a12:	69617661 	stmdbvs	r1!, {r0, r5, r6, r9, sl, ip, sp, lr}^
   16a16:	6c62616c 	stfvse	f6, [r2], #-432	; 0xfffffe50
   16a1a:	65520065 	ldrbvs	r0, [r2, #-101]	; 0xffffff9b
   16a1e:	72756f73 	rsbsvc	r6, r5, #460	; 0x1cc
   16a22:	64206563 	strtvs	r6, [r0], #-1379	; 0xfffffa9d
   16a26:	6c646165 	stfvse	f6, [r4], #-404	; 0xfffffe6c
   16a2a:	206b636f 	rsbcs	r6, fp, pc, ror #6
   16a2e:	6c756f77 	ldclvs	15, cr6, [r5], #-476	; 0xfffffe24
   16a32:	636f2064 	cmnvs	pc, #100	; 0x64
   16a36:	00727563 	rsbseq	r7, r2, r3, ror #10
   16a3a:	74617453 	strbtvc	r7, [r1], #-1107	; 0xfffffbad
   16a3e:	6f6e2065 	svcvs	0x006e2065
   16a42:	65722074 	ldrbvs	r2, [r2, #-116]!	; 0xffffff8c
   16a46:	65766f63 	ldrbvs	r6, [r6, #-3939]!	; 0xfffff09d
   16a4a:	6c626172 	stfvse	f6, [r2], #-456	; 0xfffffe38
   16a4e:	72500065 	subsvc	r0, r0, #101	; 0x65
   16a52:	6f697665 	svcvs	0x00697665
   16a56:	6f207375 	svcvs	0x00207375
   16a5a:	72656e77 	rsbvc	r6, r5, #1904	; 0x770
   16a5e:	65696420 	strbvs	r6, [r9, #-1056]!	; 0xfffffbe0
   16a62:	704f0064 	subvc	r0, pc, r4, rrx
   16a66:	74617265 	strbtvc	r7, [r1], #-613	; 0xfffffd9b
   16a6a:	206e6f69 	rsbcs	r6, lr, r9, ror #30
   16a6e:	636e6163 	cmnvs	lr, #-1073741800	; 0xc0000018
   16a72:	64656c65 	strbtvs	r6, [r5], #-3173	; 0xfffff39b
   16a76:	6e754600 	cdpvs	6, 7, cr4, cr5, cr0, {0}
   16a7a:	6f697463 	svcvs	0x00697463
   16a7e:	6f6e206e 	svcvs	0x006e206e
   16a82:	6d692074 	stclvs	0, cr2, [r9, #-464]!	; 0xfffffe30
   16a86:	6d656c70 	stclvs	12, cr6, [r5, #-448]!	; 0xfffffe40
   16a8a:	65746e65 	ldrbvs	r6, [r4, #-3685]!	; 0xfffff19b
   16a8e:	6f4e0064 	svcvs	0x004e0064
   16a92:	73656d20 	cmnvc	r5, #32, 26	; 0x800
   16a96:	65676173 	strbvs	r6, [r7, #-371]!	; 0xfffffe8d
   16a9a:	20666f20 	rsbcs	r6, r6, r0, lsr #30
   16a9e:	69736564 	ldmdbvs	r3!, {r2, r5, r6, r8, sl, sp, lr}^
   16aa2:	20646572 	rsbcs	r6, r4, r2, ror r5
   16aa6:	65707974 	ldrbvs	r7, [r0, #-2420]!	; 0xfffff68c
   16aaa:	65644900 	strbvs	r4, [r4, #-2304]!	; 0xfffff700
   16aae:	6669746e 	strbtvs	r7, [r9], -lr, ror #8
   16ab2:	20726569 	rsbscs	r6, r2, r9, ror #10
   16ab6:	6f6d6572 	svcvs	0x006d6572
   16aba:	00646576 	rsbeq	r6, r4, r6, ror r5
   16abe:	69766544 	ldmdbvs	r6!, {r2, r6, r8, sl, sp, lr}^
   16ac2:	6e206563 	cfsh64vs	mvdx6, mvdx0, #51
   16ac6:	6120746f 			; <UNDEFINED> instruction: 0x6120746f
   16aca:	72747320 	rsbsvc	r7, r4, #32, 6	; 0x80000000
   16ace:	006d6165 	rsbeq	r6, sp, r5, ror #2
   16ad2:	64206f4e 	strtvs	r6, [r0], #-3918	; 0xfffff0b2
   16ad6:	20617461 	rsbcs	r7, r1, r1, ror #8
   16ada:	69617661 	stmdbvs	r1!, {r0, r5, r6, r9, sl, ip, sp, lr}^
   16ade:	6c62616c 	stfvse	f6, [r2], #-432	; 0xfffffe50
   16ae2:	65440065 	strbvs	r0, [r4, #-101]	; 0xffffff9b
   16ae6:	65636976 	strbvs	r6, [r3, #-2422]!	; 0xfffff68a
   16aea:	6d697420 	cfstrdvs	mvd7, [r9, #-128]!	; 0xffffff80
   16aee:	74756f65 	ldrbtvc	r6, [r5], #-3941	; 0xfffff09b
   16af2:	74754f00 	ldrbtvc	r4, [r5], #-3840	; 0xfffff100
   16af6:	20666f20 	rsbcs	r6, r6, r0, lsr #30
   16afa:	65727473 	ldrbvs	r7, [r2, #-1139]!	; 0xfffffb8d
   16afe:	20736d61 	rsbscs	r6, r3, r1, ror #26
   16b02:	6f736572 	svcvs	0x00736572
   16b06:	65637275 	strbvs	r7, [r3, #-629]!	; 0xfffffd8b
   16b0a:	694c0073 	stmdbvs	ip, {r0, r1, r4, r5, r6}^
   16b0e:	68206b6e 	stmdavs	r0!, {r1, r2, r3, r5, r6, r8, r9, fp, sp, lr}
   16b12:	62207361 	eorvs	r7, r0, #-2080374783	; 0x84000001
   16b16:	206e6565 	rsbcs	r6, lr, r5, ror #10
   16b1a:	65766573 	ldrbvs	r6, [r6, #-1395]!	; 0xfffffa8d
   16b1e:	00646572 	rsbeq	r6, r4, r2, ror r5
   16b22:	746f7250 	strbtvc	r7, [pc], #-592	; 16b2a <errmsg+0x478>
   16b26:	6c6f636f 	stclvs	3, cr6, [pc], #-444	; 16970 <errmsg+0x2be>
   16b2a:	72726520 	rsbsvc	r6, r2, #32, 10	; 0x8000000
   16b2e:	4200726f 	andmi	r7, r0, #-268435450	; 0xf0000006
   16b32:	6d206461 	cfstrsvs	mvf6, [r0, #-388]!	; 0xfffffe7c
   16b36:	61737365 	cmnvs	r3, r5, ror #6
   16b3a:	46006567 	strmi	r6, [r0], -r7, ror #10
   16b3e:	20656c69 	rsbcs	r6, r5, r9, ror #24
   16b42:	63736564 	cmnvs	r3, #100, 10	; 0x19000000
   16b46:	74706972 	ldrbtvc	r6, [r0], #-2418	; 0xfffff68e
   16b4a:	6920726f 	stmdbvs	r0!, {r0, r1, r2, r3, r5, r6, r9, ip, sp, lr}
   16b4e:	6162206e 	cmnvs	r2, lr, rrx
   16b52:	74732064 	ldrbtvc	r2, [r3], #-100	; 0xffffff9c
   16b56:	00657461 	rsbeq	r7, r5, r1, ror #8
   16b5a:	20746f4e 	rsbscs	r6, r4, lr, asr #30
   16b5e:	6f732061 	svcvs	0x00732061
   16b62:	74656b63 	strbtvc	r6, [r5], #-2915	; 0xfffff49d
   16b66:	73654400 	cmnvc	r5, #0, 8
   16b6a:	616e6974 	smcvs	59028	; 0xe694
   16b6e:	6e6f6974 			; <UNDEFINED> instruction: 0x6e6f6974
   16b72:	64646120 	strbtvs	r6, [r4], #-288	; 0xfffffee0
   16b76:	73736572 	cmnvc	r3, #478150656	; 0x1c800000
   16b7a:	71657220 	cmnvc	r5, r0, lsr #4
   16b7e:	65726975 	ldrbvs	r6, [r2, #-2421]!	; 0xfffff68b
   16b82:	654d0064 	strbvs	r0, [sp, #-100]	; 0xffffff9c
   16b86:	67617373 			; <UNDEFINED> instruction: 0x67617373
   16b8a:	6f742065 	svcvs	0x00742065
   16b8e:	616c206f 	cmnvs	ip, pc, rrx
   16b92:	00656772 	rsbeq	r6, r5, r2, ror r7
   16b96:	746f7250 	strbtvc	r7, [pc], #-592	; 16b9e <errmsg+0x4ec>
   16b9a:	6c6f636f 	stclvs	3, cr6, [pc], #-444	; 169e4 <errmsg+0x332>
   16b9e:	6f727720 	svcvs	0x00727720
   16ba2:	7420676e 	strtvc	r6, [r0], #-1902	; 0xfffff892
   16ba6:	20657079 	rsbcs	r7, r5, r9, ror r0
   16baa:	20726f66 	rsbscs	r6, r2, r6, ror #30
   16bae:	6b636f73 	blvs	18f2982 <__bss_end__+0x18ca8d2>
   16bb2:	50007465 	andpl	r7, r0, r5, ror #8
   16bb6:	6f746f72 	svcvs	0x00746f72
   16bba:	206c6f63 	rsbcs	r6, ip, r3, ror #30
   16bbe:	20746f6e 	rsbscs	r6, r4, lr, ror #30
   16bc2:	69617661 	stmdbvs	r1!, {r0, r5, r6, r9, sl, ip, sp, lr}^
   16bc6:	6c62616c 	stfvse	f6, [r2], #-432	; 0xfffffe50
   16bca:	72500065 	subsvc	r0, r0, #101	; 0x65
   16bce:	636f746f 	cmnvs	pc, #1862270976	; 0x6f000000
   16bd2:	6e206c6f 	cdpvs	12, 2, cr6, cr0, cr15, {3}
   16bd6:	7320746f 			; <UNDEFINED> instruction: 0x7320746f
   16bda:	6f707075 	svcvs	0x00707075
   16bde:	64657472 	strbtvs	r7, [r5], #-1138	; 0xfffffb8e
   16be2:	636f5300 	cmnvs	pc, #0, 6
   16be6:	2074656b 	rsbscs	r6, r4, fp, ror #10
   16bea:	65707974 	ldrbvs	r7, [r0, #-2420]!	; 0xfffff68c
   16bee:	746f6e20 	strbtvc	r6, [pc], #-3616	; 16bf6 <errmsg+0x544>
   16bf2:	70757320 	rsbsvc	r7, r5, r0, lsr #6
   16bf6:	74726f70 	ldrbtvc	r6, [r2], #-3952	; 0xfffff090
   16bfa:	4e006465 	cdpmi	4, 0, cr6, cr0, cr5, {3}
   16bfe:	7320746f 			; <UNDEFINED> instruction: 0x7320746f
   16c02:	6f707075 	svcvs	0x00707075
   16c06:	64657472 	strbtvs	r7, [r5], #-1138	; 0xfffffb8e
   16c0a:	6f725000 	svcvs	0x00725000
   16c0e:	6f636f74 	svcvs	0x00636f74
   16c12:	6166206c 	cmnvs	r6, ip, rrx
   16c16:	796c696d 	stmdbvc	ip!, {r0, r2, r3, r5, r6, r8, fp, sp, lr}^
   16c1a:	746f6e20 	strbtvc	r6, [pc], #-3616	; 16c22 <errmsg+0x570>
   16c1e:	70757320 	rsbsvc	r7, r5, r0, lsr #6
   16c22:	74726f70 	ldrbtvc	r6, [r2], #-3952	; 0xfffff090
   16c26:	41006465 	tstmi	r0, r5, ror #8
   16c2a:	65726464 	ldrbvs	r6, [r2, #-1124]!	; 0xfffffb9c
   16c2e:	66207373 			; <UNDEFINED> instruction: 0x66207373
   16c32:	6c696d61 	stclvs	13, cr6, [r9], #-388	; 0xfffffe7c
   16c36:	6f6e2079 	svcvs	0x006e2079
   16c3a:	75732074 	ldrbvc	r2, [r3, #-116]!	; 0xffffff8c
   16c3e:	726f7070 	rsbvc	r7, pc, #112	; 0x70
   16c42:	20646574 	rsbcs	r6, r4, r4, ror r5
   16c46:	70207962 	eorvc	r7, r0, r2, ror #18
   16c4a:	6f746f72 	svcvs	0x00746f72
   16c4e:	006c6f63 	rsbeq	r6, ip, r3, ror #30
   16c52:	72646441 	rsbvc	r6, r4, #1090519040	; 0x41000000
   16c56:	20737365 	rsbscs	r7, r3, r5, ror #6
   16c5a:	20746f6e 	rsbscs	r6, r4, lr, ror #30
   16c5e:	69617661 	stmdbvs	r1!, {r0, r5, r6, r9, sl, ip, sp, lr}^
   16c62:	6c62616c 	stfvse	f6, [r2], #-432	; 0xfffffe50
   16c66:	654e0065 	strbvs	r0, [lr, #-101]	; 0xffffff9b
   16c6a:	726f7774 	rsbvc	r7, pc, #116, 14	; 0x1d00000
   16c6e:	7369206b 	cmnvc	r9, #107	; 0x6b
   16c72:	776f6420 	strbvc	r6, [pc, -r0, lsr #8]!
   16c76:	654e006e 	strbvs	r0, [lr, #-110]	; 0xffffff92
   16c7a:	726f7774 	rsbvc	r7, pc, #116, 14	; 0x1d00000
   16c7e:	6e75206b 	cdpvs	0, 7, cr2, cr5, cr11, {3}
   16c82:	63616572 	cmnvs	r1, #478150656	; 0x1c800000
   16c86:	6c626168 	stfvse	f6, [r2], #-416	; 0xfffffe60
   16c8a:	6f430065 	svcvs	0x00430065
   16c8e:	63656e6e 	cmnvs	r5, #1760	; 0x6e0
   16c92:	6e6f6974 			; <UNDEFINED> instruction: 0x6e6f6974
   16c96:	73657220 	cmnvc	r5, #32, 4
   16c9a:	62207465 	eorvs	r7, r0, #1694498816	; 0x65000000
   16c9e:	656e2079 	strbvs	r2, [lr, #-121]!	; 0xffffff87
   16ca2:	726f7774 	rsbvc	r7, pc, #116, 14	; 0x1d00000
   16ca6:	6f43006b 	svcvs	0x0043006b
   16caa:	63656e6e 	cmnvs	r5, #1760	; 0x6e0
   16cae:	6e6f6974 			; <UNDEFINED> instruction: 0x6e6f6974
   16cb2:	6f626120 	svcvs	0x00626120
   16cb6:	64657472 	strbtvs	r7, [r5], #-1138	; 0xfffffb8e
   16cba:	206f4e00 	rsbcs	r4, pc, r0, lsl #28
   16cbe:	66667562 	strbtvs	r7, [r6], -r2, ror #10
   16cc2:	73207265 			; <UNDEFINED> instruction: 0x73207265
   16cc6:	65636170 	strbvs	r6, [r3, #-368]!	; 0xfffffe90
   16cca:	61766120 	cmnvs	r6, r0, lsr #2
   16cce:	62616c69 	rsbvs	r6, r1, #26880	; 0x6900
   16cd2:	5300656c 	movwpl	r6, #1388	; 0x56c
   16cd6:	656b636f 	strbvs	r6, [fp, #-879]!	; 0xfffffc91
   16cda:	73692074 	cmnvc	r9, #116	; 0x74
   16cde:	6e6f6320 	cdpvs	3, 6, cr6, cr15, cr0, {1}
   16ce2:	7463656e 	strbtvc	r6, [r3], #-1390	; 0xfffffa92
   16ce6:	53006465 	movwpl	r6, #1125	; 0x465
   16cea:	656b636f 	strbvs	r6, [fp, #-879]!	; 0xfffffc91
   16cee:	6f6e2074 	svcvs	0x006e2074
   16cf2:	6f632074 	svcvs	0x00632074
   16cf6:	63656e6e 	cmnvs	r5, #1760	; 0x6e0
   16cfa:	00646574 	rsbeq	r6, r4, r4, ror r5
   16cfe:	6e6e6143 	powvsem	f6, f6, f3
   16d02:	7320746f 			; <UNDEFINED> instruction: 0x7320746f
   16d06:	20646e65 	rsbcs	r6, r4, r5, ror #28
   16d0a:	65746661 	ldrbvs	r6, [r4, #-1633]!	; 0xfffff99f
   16d0e:	6f732072 	svcvs	0x00732072
   16d12:	74656b63 	strbtvc	r6, [r5], #-2915	; 0xfffff49d
   16d16:	75687320 	strbvc	r7, [r8, #-800]!	; 0xfffffce0
   16d1a:	776f6474 			; <UNDEFINED> instruction: 0x776f6474
   16d1e:	704f006e 	subvc	r0, pc, lr, rrx
   16d22:	74617265 	strbtvc	r7, [r1], #-613	; 0xfffffd9b
   16d26:	206e6f69 	rsbcs	r6, lr, r9, ror #30
   16d2a:	65726c61 	ldrbvs	r6, [r2, #-3169]!	; 0xfffff39f
   16d2e:	20796461 	rsbscs	r6, r9, r1, ror #8
   16d32:	70206e69 	eorvc	r6, r0, r9, ror #28
   16d36:	72676f72 	rsbvc	r6, r7, #456	; 0x1c8
   16d3a:	00737365 	rsbseq	r7, r3, r5, ror #6
   16d3e:	7265704f 	rsbvc	r7, r5, #79	; 0x4f
   16d42:	6f697461 	svcvs	0x00697461
   16d46:	6e69206e 	cdpvs	0, 6, cr2, cr9, cr14, {3}
   16d4a:	6f727020 	svcvs	0x00727020
   16d4e:	73657267 	cmnvc	r5, #1879048198	; 0x70000006
   16d52:	74530073 	ldrbvc	r0, [r3], #-115	; 0xffffff8d
   16d56:	20656c61 	rsbcs	r6, r5, r1, ror #24
   16d5a:	656c6966 	strbvs	r6, [ip, #-2406]!	; 0xfffff69a
   16d5e:	6e616820 	cdpvs	8, 6, cr6, cr1, cr0, {1}
   16d62:	00656c64 	rsbeq	r6, r5, r4, ror #24
   16d66:	6f6d6552 	svcvs	0x006d6552
   16d6a:	49206574 	stmdbmi	r0!, {r2, r4, r5, r6, r8, sl, sp, lr}
   16d6e:	65204f2f 	strvs	r4, [r0, #-3887]!	; 0xfffff0d1
   16d72:	726f7272 	rsbvc	r7, pc, #536870919	; 0x20000007
   16d76:	6f755100 	svcvs	0x00755100
   16d7a:	65206174 	strvs	r6, [r0, #-372]!	; 0xfffffe8c
   16d7e:	65656378 	strbvs	r6, [r5, #-888]!	; 0xfffffc88
   16d82:	00646564 	rsbeq	r6, r4, r4, ror #10
   16d86:	6d206f4e 	stcvs	15, cr6, [r0, #-312]!	; 0xfffffec8
   16d8a:	75696465 	strbvc	r6, [r9, #-1125]!	; 0xfffffb9b
   16d8e:	6f66206d 	svcvs	0x0066206d
   16d92:	00646e75 	rsbeq	r6, r4, r5, ror lr
   16d96:	6e6f7257 	mcrvs	2, 3, r7, cr15, cr7, {2}
   16d9a:	656d2067 	strbvs	r2, [sp, #-103]!	; 0xffffff99
   16d9e:	6d756964 			; <UNDEFINED> instruction: 0x6d756964
   16da2:	70797420 	rsbsvc	r7, r9, r0, lsr #8
   16da6:	6f4e0065 	svcvs	0x004e0065
   16daa:	72726520 	rsbsvc	r6, r2, #32, 10	; 0x8000000
   16dae:	6920726f 	stmdbvs	r0!, {r0, r1, r2, r3, r5, r6, r9, ip, sp, lr}
   16db2:	726f666e 	rsbvc	r6, pc, #115343360	; 0x6e00000
   16db6:	6974616d 	ldmdbvs	r4!, {r0, r2, r3, r5, r6, r8, sp, lr}^
   16dba:	00006e6f 	andeq	r6, r0, pc, ror #28
	...

00016dc0 <__c_locale>:
	...

00016dd8 <all_mask>:
   16dd8:	ffffffff 			; <UNDEFINED> instruction: 0xffffffff
   16ddc:	ffffffff 			; <UNDEFINED> instruction: 0xffffffff

00016de0 <app_mask>:
   16de0:	7fffffff 	svcvc	0x00ffffff
   16de4:	fffffffc 			; <UNDEFINED> instruction: 0xfffffffc

Disassembly of section .tbss:

00016de8 <_tbss_start>:
	...

Disassembly of section .ARM.exidx:

00016de8 <.ARM.exidx>:
   16de8:	7ffff200 	svcvc	0x00fff200
   16dec:	00000001 	andeq	r0, r0, r1

Disassembly of section .data:

00017000 <f>:
   17000:	00000005 	andeq	r0, r0, r5
	...
   1700c:	00014c88 	andeq	r4, r1, r8, lsl #25
	...
   17024:	00014d0c 	andeq	r4, r1, ip, lsl #26
   17028:	00014cb4 			; <UNDEFINED> instruction: 0x00014cb4
   1702c:	00028068 	andeq	r8, r2, r8, rrx
	...
   1703c:	00000002 	andeq	r0, r0, r2
	...
   17048:	ff000000 			; <UNDEFINED> instruction: 0xff000000
   1704c:	ffffffff 			; <UNDEFINED> instruction: 0xffffffff
	...

Disassembly of section .bss:

00020000 <__stack_base>:
	...

00024000 <static_tls>:
	...

00028000 <env>:
	...

00028050 <__stdout_used>:
   28050:	00000000 	andeq	r0, r0, r0

00028054 <ofl_head>:
   28054:	00000000 	andeq	r0, r0, r0

00028058 <ofl_lock>:
	...

00028060 <buf>:
	...

00028068 <__hwcap>:
   28068:	00000000 	andeq	r0, r0, r0

0002806c <__libc>:
	...

000280ac <__sysinfo>:
   280ac:	00000000 	andeq	r0, r0, r0

Disassembly of section .comment:

00000000 <.comment>:
/** Consider moving bootinfo into libsel4_startup */
seL4_BootInfo *bootinfo;

/** Consider moving seL4_InitBootInfo into libsel4_startup */
void seL4_InitBootInfo(seL4_BootInfo *bi)
{
   0:	3a434347 	bcc	10d0d24 <__bss_end__+0x10a8c74>
   4:	62552820 	subsvs	r2, r5, #32, 16	; 0x200000
   8:	75746e75 	ldrbvc	r6, [r4, #-3701]!	; 0xfffff18b
   c:	342e3920 	strtcc	r3, [lr], #-2336	; 0xfffff6e0
    bootinfo = bi;
  10:	312d302e 			; <UNDEFINED> instruction: 0x312d302e
  14:	6e756275 	mrcvs	2, 3, r6, cr5, cr5, {3}
  18:	7e317574 	mrcvc	5, 1, r7, cr1, cr4, {3}
  1c:	302e3032 	eorcc	r3, lr, r2, lsr r0
}
  20:	29322e34 	ldmdbcs	r2!, {r2, r4, r5, r9, sl, fp, sp}
  24:	342e3920 	strtcc	r3, [lr], #-2336	; 0xfffff6e0
  28:	Address 0x0000000000000028 is out of bounds.


Disassembly of section .ARM.attributes:

00000000 <.ARM.attributes>:
{
   0:	00002c41 	andeq	r2, r0, r1, asr #24
   4:	61656100 	cmnvs	r5, r0, lsl #2
   8:	01006962 	tsteq	r0, r2, ror #18
   c:	00000022 	andeq	r0, r0, r2, lsr #32
    bootinfo = bi;
  10:	412d3705 			; <UNDEFINED> instruction: 0x412d3705
  14:	070a0600 	streq	r0, [sl, -r0, lsl #12]
  18:	09010841 	stmdbeq	r1, {r0, r6, fp}
  1c:	13041202 	movwne	r1, #16898	; 0x4202
}
  20:	15011401 	strne	r1, [r1, #-1025]	; 0xfffffbff
  24:	18031701 	stmdane	r3, {r0, r8, r9, sl, ip}
  28:	1e021a01 	vmlane.f32	s2, s4, s2
  2c:	Address 0x000000000000002c is out of bounds.


Disassembly of section .debug_aranges:

00000000 <.debug_aranges>:
{
   0:	0000006c 	andeq	r0, r0, ip, rrx
   4:	00000002 	andeq	r0, r0, r2
   8:	00040000 	andeq	r0, r4, r0
   c:	00000000 	andeq	r0, r0, r0
    bootinfo = bi;
  10:	00010118 	andeq	r0, r1, r8, lsl r1
  14:	00000128 	andeq	r0, r0, r8, lsr #2
  18:	00010240 	andeq	r0, r1, r0, asr #4
  1c:	00000128 	andeq	r0, r0, r8, lsr #2
}
  20:	00010368 	andeq	r0, r1, r8, ror #6
  24:	00000030 	andeq	r0, r0, r0, lsr r0
  28:	00010398 	muleq	r1, r8, r3
  2c:	00000030 	andeq	r0, r0, r0, lsr r0

seL4_BootInfo *seL4_GetBootInfo()
{
  30:	000103c8 	andeq	r0, r1, r8, asr #7
  34:	00000024 	andeq	r0, r0, r4, lsr #32
    return bootinfo;
  38:	000103ec 	andeq	r0, r1, ip, ror #7
  3c:	0000003c 	andeq	r0, r0, ip, lsr r0
  40:	00010428 	andeq	r0, r1, r8, lsr #8
}
  44:	00000038 	andeq	r0, r0, r8, lsr r0
  48:	00010460 	andeq	r0, r1, r0, ror #8
  4c:	000000ac 	andeq	r0, r0, ip, lsr #1
  50:	0001050c 	andeq	r0, r1, ip, lsl #10
  54:	000001a4 	andeq	r0, r0, r4, lsr #3
  58:	000106b0 			; <UNDEFINED> instruction: 0x000106b0
  5c:	00000110 	andeq	r0, r0, r0, lsl r1
  60:	000107c0 	andeq	r0, r1, r0, asr #15
  64:	00000070 	andeq	r0, r0, r0, ror r0
	...
  70:	0000001c 	andeq	r0, r0, ip, lsl r0
  74:	0b2d0002 	bleq	b40084 <__bss_end__+0xb17fd4>
  78:	00040000 	andeq	r0, r4, r0
	...
  84:	00000054 	andeq	r0, r0, r4, asr r0
	...
  90:	0000001c 	andeq	r0, r0, ip, lsl r0
  94:	10490002 	subne	r0, r9, r2
  98:	00040000 	andeq	r0, r4, r0
  9c:	00000000 	andeq	r0, r0, r0
  a0:	00010830 	andeq	r0, r1, r0, lsr r8
  a4:	00000010 	andeq	r0, r0, r0, lsl r0
	...
  b0:	0000001c 	andeq	r0, r0, ip, lsl r0
  b4:	106f0002 	rsbne	r0, pc, r2
  b8:	00040000 	andeq	r0, r4, r0
  bc:	00000000 	andeq	r0, r0, r0
  c0:	00010840 	andeq	r0, r1, r0, asr #16
  c4:	0000017c 	andeq	r0, r0, ip, ror r1
	...
  d0:	0000001c 	andeq	r0, r0, ip, lsl r0
  d4:	16d00002 	ldrbne	r0, [r0], r2
  d8:	00040000 	andeq	r0, r4, r0
  dc:	00000000 	andeq	r0, r0, r0
  e0:	000109bc 			; <UNDEFINED> instruction: 0x000109bc
  e4:	00000eec 	andeq	r0, r0, ip, ror #29
	...
  f0:	0000001c 	andeq	r0, r0, ip, lsl r0
  f4:	28230002 	stmdacs	r3!, {r1}
  f8:	00040000 	andeq	r0, r4, r0
  fc:	00000000 	andeq	r0, r0, r0
 100:	000118a8 	andeq	r1, r1, r8, lsr #17
 104:	00000140 	andeq	r0, r0, r0, asr #2
	...
 110:	0000001c 	andeq	r0, r0, ip, lsl r0
 114:	29560002 	ldmdbcs	r6, {r1}^
 118:	00040000 	andeq	r0, r4, r0
 11c:	00000000 	andeq	r0, r0, r0
 120:	000119e8 	andeq	r1, r1, r8, ror #19
 124:	0000038c 	andeq	r0, r0, ip, lsl #7
	...
 130:	0000001c 	andeq	r0, r0, ip, lsl r0
 134:	2a760002 	bcs	1d80144 <__bss_end__+0x1d58094>
 138:	00040000 	andeq	r0, r4, r0
 13c:	00000000 	andeq	r0, r0, r0
 140:	00011d74 	andeq	r1, r1, r4, ror sp
 144:	00000a64 	andeq	r0, r0, r4, ror #20
	...
 150:	0000001c 	andeq	r0, r0, ip, lsl r0
 154:	2bb00002 	blcs	fec00164 <__bss_end__+0xfebd80b4>
 158:	00040000 	andeq	r0, r4, r0
 15c:	00000000 	andeq	r0, r0, r0
 160:	000127d8 	ldrdeq	r2, [r1], -r8
 164:	00000024 	andeq	r0, r0, r4, lsr #32
	...
 170:	0000001c 	andeq	r0, r0, ip, lsl r0
 174:	2c080002 	stccs	0, cr0, [r8], {2}
 178:	00040000 	andeq	r0, r4, r0
 17c:	00000000 	andeq	r0, r0, r0
 180:	000127fc 	strdeq	r2, [r1], -ip
 184:	00000010 	andeq	r0, r0, r0, lsl r0
	...
 190:	0000001c 	andeq	r0, r0, ip, lsl r0
 194:	2c2e0002 	stccs	0, cr0, [lr], #-8
 198:	00040000 	andeq	r0, r4, r0
 19c:	00000000 	andeq	r0, r0, r0
 1a0:	0001280c 	andeq	r2, r1, ip, lsl #16
 1a4:	00000058 	andeq	r0, r0, r8, asr r0
	...
 1b0:	0000001c 	andeq	r0, r0, ip, lsl r0
 1b4:	2e610002 	cdpcs	0, 6, cr0, cr1, cr2, {0}
 1b8:	00040000 	andeq	r0, r4, r0
 1bc:	00000000 	andeq	r0, r0, r0
 1c0:	00012864 	andeq	r2, r1, r4, ror #16
 1c4:	0000005c 	andeq	r0, r0, ip, asr r0
	...

Disassembly of section .debug_info:

00000000 <.debug_info>:
{
       0:	00000b29 	andeq	r0, r0, r9, lsr #22
       4:	00000004 	andeq	r0, r0, r4
       8:	01040000 	mrseq	r0, (UNDEF: 4)
       c:	00000a05 	andeq	r0, r0, r5, lsl #20
    bootinfo = bi;
      10:	00000b0c 	andeq	r0, r0, ip, lsl #22
      14:	00073700 	andeq	r3, r7, r0, lsl #14
	...
}
      24:	06010200 	streq	r0, [r1], -r0, lsl #4
      28:	00000879 	andeq	r0, r0, r9, ror r8
      2c:	00097003 	andeq	r7, r9, r3
{
      30:	25260700 	strcs	r0, [r6, #-1792]!	; 0xfffff900
      34:	00000038 	andeq	r0, r0, r8, lsr r0
    return bootinfo;
      38:	77080102 	strvc	r0, [r8, -r2, lsl #2]
      3c:	02000008 	andeq	r0, r0, #8
      40:	06990502 	ldreq	r0, [r9], r2, lsl #10
}
      44:	02020000 	andeq	r0, r2, #0
      48:	00098407 	andeq	r8, r9, r7, lsl #8
      4c:	05040400 	streq	r0, [r4, #-1024]	; 0xfffffc00
      50:	00746e69 	rsbseq	r6, r4, r9, ror #28
      54:	0002e803 	andeq	lr, r2, r3, lsl #16
      58:	253d0700 	ldrcs	r0, [sp, #-1792]!	; 0xfffff900
      5c:	00000060 	andeq	r0, r0, r0, rrx
      60:	be070402 	cdplt	4, 0, cr0, cr7, cr2, {0}
      64:	02000002 	andeq	r0, r0, #2
      68:	04f40508 	ldrbteq	r0, [r4], #1288	; 0x508
      6c:	08020000 	stmdaeq	r2, {}	; <UNPREDICTABLE>
      70:	0002b407 	andeq	fp, r2, r7, lsl #8
      74:	02260300 	eoreq	r0, r6, #0, 6
      78:	71070000 	mrsvc	r0, (UNDEF: 7)
      7c:	00005415 	andeq	r5, r0, r5, lsl r4
      80:	053e0300 	ldreq	r0, [lr, #-768]!	; 0xfffffd00
      84:	80070000 	andhi	r0, r7, r0
      88:	00007513 	andeq	r7, r0, r3, lsl r5
      8c:	04050500 	streq	r0, [r5], #-1280	; 0xfffffb00
      90:	0000004d 	andeq	r0, r0, sp, asr #32
      94:	f90e1109 			; <UNDEFINED> instruction: 0xf90e1109
      98:	06000000 	streq	r0, [r0], -r0
      9c:	000002f4 	strdeq	r0, [r0], -r4
      a0:	016c067f 	smceq	49263	; 0xc06f
      a4:	067e0000 	ldrbteq	r0, [lr], -r0
      a8:	00000219 	andeq	r0, r0, r9, lsl r2
      ac:	0868067d 	stmdaeq	r8!, {r0, r2, r3, r4, r5, r6, r9, sl}^
      b0:	067c0000 	ldrbteq	r0, [ip], -r0
      b4:	000009ac 	andeq	r0, r0, ip, lsr #19
      b8:	0666067b 			; <UNDEFINED> instruction: 0x0666067b
      bc:	067a0000 	ldrbteq	r0, [sl], -r0
      c0:	0000014e 	andeq	r0, r0, lr, asr #2
      c4:	05540679 	ldrbeq	r0, [r4, #-1657]	; 0xfffff987
      c8:	06780000 	ldrbteq	r0, [r8], -r0
      cc:	000006f8 	strdeq	r0, [r0], -r8
      d0:	0b2a0677 	bleq	a81ab4 <__bss_end__+0xa59a04>
      d4:	06760000 	ldrbteq	r0, [r6], -r0
      d8:	000003d7 	ldrdeq	r0, [r0], -r7
      dc:	06a30675 			; <UNDEFINED> instruction: 0x06a30675
      e0:	06740000 	ldrbteq	r0, [r4], -r0
      e4:	000000b8 	strheq	r0, [r0], -r8
      e8:	01360673 	teqeq	r6, r3, ror r6
      ec:	07720000 	ldrbeq	r0, [r2, -r0]!
      f0:	00000563 	andeq	r0, r0, r3, ror #10
      f4:	7fffffff 	svcvc	0x00ffffff
      f8:	03cc0800 	biceq	r0, ip, #0, 16
      fc:	04070000 	streq	r0, [r7], #-0
     100:	00000060 	andeq	r0, r0, r0, rrx
     104:	300e0808 	andcc	r0, lr, r8, lsl #16
     108:	09000001 	stmdbeq	r0, {r0}
     10c:	000009de 	ldrdeq	r0, [r0], -lr
     110:	020a0900 	andeq	r0, sl, #0, 18
     114:	09010000 	stmdbeq	r1, {}	; <UNPREDICTABLE>
     118:	000006d8 	ldrdeq	r0, [r0], -r8
     11c:	064e0902 	strbeq	r0, [lr], -r2, lsl #18
     120:	09030000 	stmdbeq	r3, {}	; <UNPREDICTABLE>
     124:	000009f1 	strdeq	r0, [r0], -r1
     128:	08d70904 	ldmeq	r7, {r2, r8, fp}^
     12c:	00050000 	andeq	r0, r5, r0
     130:	000b4503 	andeq	r4, fp, r3, lsl #10
     134:	03130800 	tsteq	r3, #0, 16
     138:	000000f9 	strdeq	r0, [r0], -r9
     13c:	0001300a 	andeq	r3, r1, sl
     140:	03e90b00 	mvneq	r0, #0, 22
     144:	15080000 	strne	r0, [r8, #-0]
     148:	00013c59 	andeq	r3, r1, r9, asr ip
     14c:	00030500 	andeq	r0, r3, r0, lsl #10
     150:	05000000 	streq	r0, [r0, #-0]
     154:	00600407 	rsbeq	r0, r0, r7, lsl #8
     158:	090a0000 	stmdbeq	sl, {}	; <UNPREDICTABLE>
     15c:	0001aa0e 	andeq	sl, r1, lr, lsl #20
     160:	05fa0900 	ldrbeq	r0, [sl, #2304]!	; 0x900
     164:	09000000 	stmdbeq	r0, {}	; <UNPREDICTABLE>
     168:	0000093f 	andeq	r0, r0, pc, lsr r9
     16c:	090b0901 	stmdbeq	fp, {r0, r8, fp}
     170:	09020000 	stmdbeq	r2, {}	; <UNPREDICTABLE>
     174:	00000528 	andeq	r0, r0, r8, lsr #10
     178:	00950903 	addseq	r0, r5, r3, lsl #18
     17c:	09040000 	stmdbeq	r4, {}	; <UNPREDICTABLE>
     180:	0000041e 	andeq	r0, r0, lr, lsl r4
     184:	06140905 	ldreq	r0, [r4], -r5, lsl #18
     188:	09060000 	stmdbeq	r6, {}	; <UNPREDICTABLE>
     18c:	000007bb 			; <UNDEFINED> instruction: 0x000007bb
     190:	0b630907 	bleq	18c25b4 <__bss_end__+0x189a504>
     194:	09080000 	stmdbeq	r8, {}	; <UNPREDICTABLE>
     198:	0000004b 	andeq	r0, r0, fp, asr #32
     19c:	00ce0909 	sbceq	r0, lr, r9, lsl #18
     1a0:	090a0000 	stmdbeq	sl, {}	; <UNPREDICTABLE>
     1a4:	000005d8 	ldrdeq	r0, [r0], -r8
     1a8:	9803000b 	stmdals	r3, {r0, r1, r3}
     1ac:	0a00000b 	beq	1e0 <errno+0x1dc>
     1b0:	0153031b 	cmpeq	r3, fp, lsl r3
     1b4:	540c0000 	strpl	r0, [ip], #-0
     1b8:	c6000000 	strgt	r0, [r0], -r0
     1bc:	0d000001 	stceq	0, cr0, [r0, #-4]
     1c0:	00000060 	andeq	r0, r0, r0, rrx
     1c4:	b40e0000 	strlt	r0, [lr], #-0
     1c8:	04000008 	streq	r0, [r0], #-8
     1cc:	e1087501 	tst	r8, r1, lsl #10
     1d0:	0f000001 	svceq	0x00000001
     1d4:	0000033a 	andeq	r0, r0, sl, lsr r3
     1d8:	b6117601 	ldrlt	r7, [r1], -r1, lsl #12
     1dc:	00000001 	andeq	r0, r0, r1
     1e0:	00f90300 	rscseq	r0, r9, r0, lsl #6
     1e4:	78010000 	stmdavc	r1, {}	; <UNPREDICTABLE>
     1e8:	0001c61f 	andeq	ip, r1, pc, lsl r6
     1ec:	040d1000 	streq	r1, [sp], #-0
     1f0:	01040000 	mrseq	r0, (UNDEF: 4)
     1f4:	0a080138 	beq	2006dc <__bss_end__+0x1d862c>
     1f8:	11000002 	tstne	r0, r2
     1fc:	0000033a 	andeq	r0, r0, sl, lsr r3
     200:	11013901 	tstne	r1, r1, lsl #18
     204:	000001b6 			; <UNDEFINED> instruction: 0x000001b6
     208:	73120000 	tstvc	r2, #0
     20c:	01000002 	tsteq	r0, r2
     210:	ed21013b 	stfs	f0, [r1, #-236]!	; 0xffffff14
     214:	13000001 	movwne	r0, #1
     218:	0000005c 	andeq	r0, r0, ip, asr r0
     21c:	0b0b0200 	bleq	2c0a24 <__bss_end__+0x298974>
     220:	00028610 	andeq	r8, r2, r0, lsl r6
     224:	61741400 	cmnvs	r4, r0, lsl #8
     228:	0c0b0067 	stceq	0, cr0, [fp], {103}	; 0x67
     22c:	00020a18 	andeq	r0, r2, r8, lsl sl
     230:	6d140000 	ldcvs	0, cr0, [r4, #-0]
     234:	0b006773 	bleq	1a008 <__bss_start+0x2f78>
     238:	02860f0d 	addeq	r0, r6, #13, 30	; 0x34
     23c:	15040000 	strne	r0, [r4, #-0]
     240:	0000097b 	andeq	r0, r0, fp, ror r9
     244:	750f0e0b 	strvc	r0, [pc, #-3595]	; fffff441 <__bss_end__+0xfffd7391>
     248:	e4000000 	str	r0, [r0], #-0
     24c:	04af1501 	strteq	r1, [pc], #1281	; 254 <errno+0x250>
     250:	0f0b0000 	svceq	0x000b0000
     254:	0002960f 	andeq	r9, r2, pc, lsl #12
     258:	1501e800 	strne	lr, [r1, #-2048]	; 0xfffff800
     25c:	00000607 	andeq	r0, r0, r7, lsl #12
     260:	810f100b 	tsthi	pc, fp
     264:	f4000000 	vst4.8	{d0-d3}, [r0], r0
     268:	06cb1501 	strbeq	r1, [fp], r1, lsl #10
     26c:	110b0000 	mrsne	r0, (UNDEF: 11)
     270:	0000810f 	andeq	r8, r0, pc, lsl #2
     274:	1501f800 	strne	pc, [r1, #-2048]	; 0xfffff800
     278:	00000af4 	strdeq	r0, [r0], -r4
     27c:	750f120b 	strvc	r1, [pc, #-523]	; 79 <errno+0x75>
     280:	fc000000 	stc2	0, cr0, [r0], {-0}
     284:	750c0001 	strvc	r0, [ip, #-1]
     288:	96000000 	strls	r0, [r0], -r0
     28c:	0d000002 	stceq	0, cr0, [r0, #-8]
     290:	00000060 	andeq	r0, r0, r0, rrx
     294:	750c0077 	strvc	r0, [ip, #-119]	; 0xffffff89
     298:	a6000000 	strge	r0, [r0], -r0
     29c:	0d000002 	stceq	0, cr0, [r0, #-8]
     2a0:	00000060 	andeq	r0, r0, r0, rrx
     2a4:	27160002 	ldrcs	r0, [r6, -r2]
     2a8:	0b000001 	bleq	2b4 <errno+0x2b0>
     2ac:	02170313 	andseq	r0, r7, #1275068416	; 0x4c000000
     2b0:	02000000 	andeq	r0, r0, #0
     2b4:	0006ec03 	andeq	lr, r6, r3, lsl #24
     2b8:	131f0c00 	tstne	pc, #0, 24
     2bc:	00000075 	andeq	r0, r0, r5, ror r0
     2c0:	00036a03 	andeq	r6, r3, r3, lsl #20
     2c4:	13210c00 			; <UNDEFINED> instruction: 0x13210c00
     2c8:	00000075 	andeq	r0, r0, r5, ror r0
     2cc:	00000003 	andeq	r0, r0, r3
     2d0:	13230c00 			; <UNDEFINED> instruction: 0x13230c00
     2d4:	00000081 	andeq	r0, r0, r1, lsl #1
     2d8:	00026117 	andeq	r6, r2, r7, lsl r1
     2dc:	210d0200 	mrscs	r0, SP_fiq
     2e0:	000002e4 	andeq	r0, r0, r4, ror #5
     2e4:	02a60418 	adceq	r0, r6, #24, 8	; 0x18000000
     2e8:	4c080000 	stcmi	0, cr0, [r8], {-0}
     2ec:	0700000e 	streq	r0, [r0, -lr]
     2f0:	00006004 	andeq	r6, r0, r4
     2f4:	060e0d00 	streq	r0, [lr], -r0, lsl #26
     2f8:	000003b7 			; <UNDEFINED> instruction: 0x000003b7
     2fc:	0001c809 	andeq	ip, r1, r9, lsl #16
     300:	8a090000 	bhi	240308 <__bss_end__+0x218258>
     304:	0100000b 	tsteq	r0, fp
     308:	0002cb09 	andeq	ip, r2, r9, lsl #22
     30c:	87090200 	strhi	r0, [r9, -r0, lsl #4]
     310:	03000006 	movweq	r0, #6
     314:	0007aa09 	andeq	sl, r7, r9, lsl #20
     318:	fd090400 	stc2	4, cr0, [r9, #-0]
     31c:	05000001 	streq	r0, [r0, #-1]
     320:	0006bc09 	andeq	fp, r6, r9, lsl #24
     324:	50090600 	andpl	r0, r9, r0, lsl #12
     328:	07000002 	streq	r0, [r0, -r2]
     32c:	00018909 	andeq	r8, r1, r9, lsl #18
     330:	0a090800 	beq	242338 <__bss_end__+0x21a288>
     334:	09000001 	stmdbeq	r0, {r0}
     338:	00062609 	andeq	r2, r6, r9, lsl #12
     33c:	02090a00 	andeq	r0, r9, #0, 20
     340:	0b000004 	bleq	358 <errno+0x354>
     344:	0007a009 	andeq	sl, r7, r9
     348:	17090c00 	strne	r0, [r9, -r0, lsl #24]
     34c:	0d000007 	stceq	0, cr0, [r0, #-28]	; 0xffffffe4
     350:	0005b109 	andeq	fp, r5, r9, lsl #2
     354:	55090e00 	strpl	r0, [r9, #-3584]	; 0xfffff200
     358:	0f00000b 	svceq	0x0000000b
     35c:	00099709 	andeq	r9, r9, r9, lsl #14
     360:	dc091000 	stcle	0, cr1, [r9], {-0}
     364:	11000002 	tstne	r0, r2
     368:	00059a09 	andeq	r9, r5, r9, lsl #20
     36c:	80091200 	andhi	r1, r9, r0, lsl #4
     370:	1300000b 	movwne	r0, #11
     374:	0002aa09 	andeq	sl, r2, r9, lsl #20
     378:	5c091400 	cfstrspl	mvf1, [r9], {-0}
     37c:	15000001 	strne	r0, [r0, #-1]
     380:	00072b09 	andeq	r2, r7, r9, lsl #22
     384:	4e091600 	cfmadd32mi	mvax0, mvfx1, mvfx9, mvfx0
     388:	17000003 	strne	r0, [r0, -r3]
     38c:	00029a09 	andeq	r9, r2, r9, lsl #20
     390:	a8091800 	stmdage	r9, {fp, ip}
     394:	19000003 	stmdbne	r0, {r0, r1}
     398:	00095409 	andeq	r5, r9, r9, lsl #8
     39c:	97091a00 	strls	r1, [r9, -r0, lsl #20]
     3a0:	1b000003 	blne	3b4 <errno+0x3b0>
     3a4:	00067409 	andeq	r7, r6, r9, lsl #8
     3a8:	7d091c00 	stcvc	12, cr1, [r9, #-0]
     3ac:	1d000005 	stcne	0, cr0, [r0, #-20]	; 0xffffffec
     3b0:	00006c09 	andeq	r6, r0, r9, lsl #24
     3b4:	02001e00 	andeq	r1, r0, #0, 28
     3b8:	02b90704 	adcseq	r0, r9, #4, 14	; 0x100000
     3bc:	7e080000 	cdpvc	0, 0, cr0, cr8, cr0, {0}
     3c0:	07000000 	streq	r0, [r0, -r0]
     3c4:	00006004 	andeq	r6, r0, r4
     3c8:	060e0e00 	streq	r0, [lr], -r0, lsl #28
     3cc:	00000437 	andeq	r0, r0, r7, lsr r4
     3d0:	00011a09 	andeq	r1, r1, r9, lsl #20
     3d4:	3a090000 	bcc	2403dc <__bss_end__+0x21832c>
     3d8:	01000002 	tsteq	r0, r2
     3dc:	0004be09 	andeq	fp, r4, r9, lsl #28
     3e0:	9b090200 	blls	240be8 <__bss_end__+0x218b38>
     3e4:	03000001 	movweq	r0, #1
     3e8:	0004e109 	andeq	lr, r4, r9, lsl #2
     3ec:	b4090400 	strlt	r0, [r9], #-1024	; 0xfffffc00
     3f0:	05000001 	streq	r0, [r0, #-1]
     3f4:	000b0f09 	andeq	r0, fp, r9, lsl #30
     3f8:	3f090600 	svccc	0x00090600
     3fc:	07000008 	streq	r0, [r0, -r8]
     400:	00058a09 	andeq	r8, r5, r9, lsl #20
     404:	c3090800 	movwgt	r0, #38912	; 0x9800
     408:	09000009 	stmdbeq	r0, {r0, r3}
     40c:	0007d109 	andeq	sp, r7, r9, lsl #2
     410:	e3090a00 	movw	r0, #39424	; 0x9a00
     414:	0b000001 	bleq	420 <errno+0x41c>
     418:	00043d09 	andeq	r3, r4, r9, lsl #26
     41c:	99090c00 	stmdbls	r9, {sl, fp}
     420:	0d000008 	stceq	0, cr0, [r0, #-32]	; 0xffffffe0
     424:	0007fd09 	andeq	pc, r7, r9, lsl #26
     428:	74090e00 	strvc	r0, [r9], #-3584	; 0xfffff200
     42c:	0f00000b 	svceq	0x0000000b
     430:	0008c309 	andeq	ip, r8, r9, lsl #6
     434:	03001000 	movweq	r1, #0
     438:	00000513 	andeq	r0, r0, r3, lsl r5
     43c:	7513270e 	ldrvc	r2, [r3, #-1806]	; 0xfffff8f2
     440:	0e000000 	cdpeq	0, 0, cr0, cr0, cr0, {0}
     444:	0000047c 	andeq	r0, r0, ip, ror r4
     448:	10290e08 	eorne	r0, r9, r8, lsl #28
     44c:	0000046b 	andeq	r0, r0, fp, ror #8
     450:	000f890f 	andeq	r8, pc, pc, lsl #18
     454:	122a0e00 	eorne	r0, sl, #0, 28
     458:	00000437 	andeq	r0, r0, r7, lsr r4
     45c:	6e651400 	cdpvs	4, 6, cr1, cr5, cr0, {0}
     460:	2b0e0064 	blcs	3805f8 <__bss_end__+0x358548>
     464:	00043712 	andeq	r3, r4, r2, lsl r7
     468:	03000400 	movweq	r0, #1024	; 0x400
     46c:	0000047c 	andeq	r0, r0, ip, ror r4
     470:	43032c0e 	movwmi	r2, #15374	; 0x3c0e
     474:	0e000004 	cdpeq	0, 0, cr0, cr0, cr4, {0}
     478:	0000048c 	andeq	r0, r0, ip, lsl #9
     47c:	102e0e08 	eorne	r0, lr, r8, lsl #28
     480:	000004b9 			; <UNDEFINED> instruction: 0x000004b9
     484:	000f6f0f 	andeq	r6, pc, pc, lsl #30
     488:	102f0e00 	eorne	r0, pc, r0, lsl #28
     48c:	00000075 	andeq	r0, r0, r5, ror r0
     490:	09220f00 	stmdbeq	r2!, {r8, r9, sl, fp}
     494:	300e0000 	andcc	r0, lr, r0
     498:	00002c10 	andeq	r2, r0, r0, lsl ip
     49c:	af0f0400 	svcge	0x000f0400
     4a0:	0e000000 	cdpeq	0, 0, cr0, cr0, cr0, {0}
     4a4:	002c1031 	eoreq	r1, ip, r1, lsr r0
     4a8:	0f050000 	svceq	0x00050000
     4ac:	00000502 	andeq	r0, r0, r2, lsl #10
     4b0:	b910320e 	ldmdblt	r0, {r1, r2, r3, r9, ip, sp}
     4b4:	06000004 	streq	r0, [r0], -r4
     4b8:	002c0c00 	eoreq	r0, ip, r0, lsl #24
     4bc:	04c90000 	strbeq	r0, [r9], #0
     4c0:	600d0000 	andvs	r0, sp, r0
     4c4:	01000000 	mrseq	r0, (UNDEF: 0)
     4c8:	048c0300 	streq	r0, [ip], #768	; 0x300
     4cc:	330e0000 	movwcc	r0, #57344	; 0xe000
     4d0:	00047703 	andeq	r7, r4, r3, lsl #14
     4d4:	03161300 	tsteq	r6, #0, 6
     4d8:	07840000 	streq	r0, [r4, r0]
     4dc:	a710390e 	ldrge	r3, [r0, -lr, lsl #18]
     4e0:	0f000005 	svceq	0x00000005
     4e4:	00000473 	andeq	r0, r0, r3, ror r4
     4e8:	75173a0e 	ldrvc	r3, [r7, #-2574]	; 0xfffff5f2
     4ec:	00000000 	andeq	r0, r0, r0
     4f0:	00003e0f 	andeq	r3, r0, pc, lsl #28
     4f4:	173b0e00 	ldrne	r0, [fp, -r0, lsl #28]!
     4f8:	000002b4 			; <UNDEFINED> instruction: 0x000002b4
     4fc:	03c30f04 	biceq	r0, r3, #4, 30
     500:	3c0e0000 	stccc	0, cr0, [lr], {-0}
     504:	00007517 	andeq	r7, r0, r7, lsl r5
     508:	010f0800 	tsteq	pc, r0, lsl #16
     50c:	0e00000b 	cdpeq	0, 0, cr0, cr0, cr11, {0}
     510:	0075173d 	rsbseq	r1, r5, sp, lsr r7
     514:	0f0c0000 	svceq	0x000c0000
     518:	00000230 	andeq	r0, r0, r0, lsr r2
     51c:	e4173e0e 	ldr	r3, [r7], #-3598	; 0xfffff1f2
     520:	10000002 	andne	r0, r0, r2
     524:	0008120f 	andeq	r1, r8, pc, lsl #4
     528:	173f0e00 	ldrne	r0, [pc, -r0, lsl #28]!
     52c:	0000046b 	andeq	r0, r0, fp, ror #8
     530:	02860f14 	addeq	r0, r6, #20, 30	; 0x50
     534:	400e0000 	andmi	r0, lr, r0
     538:	00046b17 	andeq	r6, r4, r7, lsl fp
     53c:	5a0f1c00 	bpl	3c7544 <__bss_end__+0x39f494>
     540:	0e000003 	cdpeq	0, 0, cr0, cr0, cr3, {0}
     544:	046b1741 	strbteq	r1, [fp], #-1857	; 0xfffff8bf
     548:	0f240000 	svceq	0x00240000
     54c:	000007ed 	andeq	r0, r0, sp, ror #15
     550:	6b17420e 	blvs	5d0d90 <__bss_end__+0x5a8ce0>
     554:	2c000004 	stccs	0, cr0, [r0], {4}
     558:	0008330f 	andeq	r3, r8, pc, lsl #6
     55c:	17430e00 	strbne	r0, [r3, -r0, lsl #28]
     560:	0000046b 	andeq	r0, r0, fp, ror #8
     564:	08260f34 	stmdaeq	r6!, {r2, r4, r5, r8, r9, sl, fp}
     568:	440e0000 	strmi	r0, [lr], #-0
     56c:	00046b17 	andeq	r6, r4, r7, lsl fp
     570:	f30f3c00 			; <UNDEFINED> instruction: 0xf30f3c00
     574:	0e000008 	cdpeq	0, 0, cr0, cr0, cr8, {0}
     578:	00751745 	rsbseq	r1, r5, r5, asr #14
     57c:	0f440000 	svceq	0x00440000
     580:	00000386 	andeq	r0, r0, r6, lsl #7
     584:	c017460e 	andsgt	r4, r7, lr, lsl #12
     588:	48000002 	stmdami	r0, {r1}
     58c:	0008550f 	andeq	r5, r8, pc, lsl #10
     590:	174a0e00 	strbne	r0, [sl, -r0, lsl #28]
     594:	0000046b 	andeq	r0, r0, fp, ror #8
     598:	07790f4c 	ldrbeq	r0, [r9, -ip, asr #30]!
     59c:	4b0e0000 	blmi	3805a4 <__bss_end__+0x3584f4>
     5a0:	0005a717 	andeq	sl, r5, r7, lsl r7
     5a4:	0c005400 	cfstrseq	mvf5, [r0], {-0}
     5a8:	000004c9 	andeq	r0, r0, r9, asr #9
     5ac:	000005b7 			; <UNDEFINED> instruction: 0x000005b7
     5b0:	0000600d 	andeq	r6, r0, sp
     5b4:	0300e500 	movweq	lr, #1280	; 0x500
     5b8:	00000316 	andeq	r0, r0, r6, lsl r3
     5bc:	d5034e0e 	strle	r4, [r3, #-3598]	; 0xfffff1f2
     5c0:	02000004 	andeq	r0, r0, #4
     5c4:	04f90504 	ldrbteq	r0, [r9], #1284	; 0x504
     5c8:	75190000 	ldrvc	r0, [r9, #-0]
     5cc:	06000018 			; <UNDEFINED> instruction: 0x06000018
     5d0:	004d0504 	subeq	r0, sp, r4, lsl #10
     5d4:	07c00000 	strbeq	r0, [r0, r0]
     5d8:	00700001 	rsbseq	r0, r0, r1
     5dc:	9c010000 	stcls	0, cr0, [r1], {-0}
     5e0:	00000630 	andeq	r0, r0, r0, lsr r6
     5e4:	00127f1a 	andseq	r7, r2, sl, lsl pc
     5e8:	0e040600 	cfmadd32eq	mvax0, mvfx0, mvfx4, mvfx0
     5ec:	0000004d 	andeq	r0, r0, sp, asr #32
     5f0:	1a649102 	bne	1924a00 <__bss_end__+0x18fc950>
     5f4:	00001290 	muleq	r0, r0, r2
     5f8:	301a0406 	andscc	r0, sl, r6, lsl #8
     5fc:	02000006 	andeq	r0, r0, #6
     600:	bf0b6091 	svclt	0x000b6091
     604:	0600000f 	streq	r0, [r0], -pc
     608:	06481406 	strbeq	r1, [r8], -r6, lsl #8
     60c:	91020000 	mrsls	r0, (UNDEF: 2)
     610:	07690b74 			; <UNDEFINED> instruction: 0x07690b74
     614:	08060000 	stmdaeq	r6, {}	; <UNPREDICTABLE>
     618:	0000810f 	andeq	r8, r0, pc, lsl #2
     61c:	70910200 	addsvc	r0, r1, r0, lsl #4
     620:	0001660b 	andeq	r6, r1, fp, lsl #12
     624:	10090600 	andne	r0, r9, r0, lsl #12
     628:	000001aa 	andeq	r0, r0, sl, lsr #3
     62c:	006c9102 	rsbeq	r9, ip, r2, lsl #2
     630:	06360418 			; <UNDEFINED> instruction: 0x06360418
     634:	04180000 	ldreq	r0, [r8], #-0
     638:	0000063c 	andeq	r0, r0, ip, lsr r6
     63c:	80080102 	andhi	r0, r8, r2, lsl #2
     640:	0a000008 	beq	668 <errno+0x664>
     644:	0000063c 	andeq	r0, r0, ip, lsr r6
     648:	05b70418 	ldreq	r0, [r7, #1048]!	; 0x418
     64c:	761b0000 	ldrvc	r0, [fp], -r0
     650:	05000003 	streq	r0, [r0, #-3]
     654:	aa010fc6 	bge	44574 <__bss_end__+0x1c4c4>
     658:	b0000001 	andlt	r0, r0, r1
     65c:	10000106 	andne	r0, r0, r6, lsl #2
     660:	01000001 	tsteq	r0, r1
     664:	00074a9c 	muleq	r7, ip, sl
     668:	050a1c00 	streq	r1, [sl, #-3072]	; 0xfffff400
     66c:	c6050000 	strgt	r0, [r5], -r0
     670:	02cc1c0f 	sbceq	r1, ip, #3840	; 0xf00
     674:	91020000 	mrsls	r0, (UNDEF: 2)
     678:	01f21c54 	mvnseq	r1, r4, asr ip
     67c:	c6050000 	strgt	r0, [r5], -r0
     680:	0075300f 	rsbseq	r3, r5, pc
     684:	91020000 	mrsls	r0, (UNDEF: 2)
     688:	04d61c50 	ldrbeq	r1, [r6], #3152	; 0xc50
     68c:	c6050000 	strgt	r0, [r5], -r0
     690:	002c470f 	eoreq	r4, ip, pc, lsl #14
     694:	91020000 	mrsls	r0, (UNDEF: 2)
     698:	03241c4f 			; <UNDEFINED> instruction: 0x03241c4f
     69c:	c6050000 	strgt	r0, [r5], -r0
     6a0:	02cc5e0f 	sbceq	r5, ip, #15, 28	; 0xf0
     6a4:	91020000 	mrsls	r0, (UNDEF: 2)
     6a8:	04541c48 	ldrbeq	r1, [r4], #-3144	; 0xfffff3b8
     6ac:	c6050000 	strgt	r0, [r5], -r0
     6b0:	0075720f 	rsbseq	r7, r5, pc, lsl #4
     6b4:	91020000 	mrsls	r0, (UNDEF: 2)
     6b8:	070d1c00 	streq	r1, [sp, -r0, lsl #24]
     6bc:	c6050000 	strgt	r0, [r5], -r0
     6c0:	002c880f 	eoreq	r8, ip, pc, lsl #16
     6c4:	91020000 	mrsls	r0, (UNDEF: 2)
     6c8:	030f1c04 	movweq	r1, #64516	; 0xfc04
     6cc:	c6050000 	strgt	r0, [r5], -r0
     6d0:	01e1a40f 	mvneq	sl, pc, lsl #8
     6d4:	91020000 	mrsls	r0, (UNDEF: 2)
     6d8:	02931d08 	addseq	r1, r3, #8, 26	; 0x200
     6dc:	c8050000 	stmdagt	r5, {}	; <UNPREDICTABLE>
     6e0:	01aa0d0f 			; <UNDEFINED> instruction: 0x01aa0d0f
     6e4:	91020000 	mrsls	r0, (UNDEF: 2)
     6e8:	61741e74 	cmnvs	r4, r4, ror lr
     6ec:	c9050067 	stmdbgt	r5, {r0, r1, r2, r5, r6}
     6f0:	020a150f 	andeq	r1, sl, #62914560	; 0x3c00000
     6f4:	91020000 	mrsls	r0, (UNDEF: 2)
     6f8:	04321d70 	ldrteq	r1, [r2], #-3440	; 0xfffff290
     6fc:	ca050000 	bgt	140704 <__bss_end__+0x118654>
     700:	020a150f 	andeq	r1, sl, #62914560	; 0x3c00000
     704:	91020000 	mrsls	r0, (UNDEF: 2)
     708:	726d1e6c 	rsbvc	r1, sp, #108, 28	; 0x6c0
     70c:	cb050030 	blgt	1407d4 <__bss_end__+0x118724>
     710:	00750c0f 	rsbseq	r0, r5, pc, lsl #24
     714:	91020000 	mrsls	r0, (UNDEF: 2)
     718:	726d1e68 	rsbvc	r1, sp, #104, 28	; 0x680
     71c:	cc050031 	stcgt	0, cr0, [r5], {49}	; 0x31
     720:	00750c0f 	rsbseq	r0, r5, pc, lsl #24
     724:	91020000 	mrsls	r0, (UNDEF: 2)
     728:	726d1e64 	rsbvc	r1, sp, #100, 28	; 0x640
     72c:	cd050032 	stcgt	0, cr0, [r5, #-200]	; 0xffffff38
     730:	00750c0f 	rsbseq	r0, r5, pc, lsl #24
     734:	91020000 	mrsls	r0, (UNDEF: 2)
     738:	726d1e60 	rsbvc	r1, sp, #96, 28	; 0x600
     73c:	ce050033 	mcrgt	0, 0, r0, cr5, cr3, {1}
     740:	00750c0f 	rsbseq	r0, r5, pc, lsl #24
     744:	91020000 	mrsls	r0, (UNDEF: 2)
     748:	c71f005c 			; <UNDEFINED> instruction: 0xc71f005c
     74c:	04000005 	streq	r0, [r0], #-5
     750:	020a28bb 	andeq	r2, sl, #12255232	; 0xbb0000
     754:	050c0000 	streq	r0, [ip, #-0]
     758:	01a40001 			; <UNDEFINED> instruction: 0x01a40001
     75c:	9c010000 	stcls	0, cr0, [r1], {-0}
     760:	0000080a 	andeq	r0, r0, sl, lsl #16
     764:	0011b41a 	andseq	fp, r1, sl, lsl r4
     768:	43bb0400 			; <UNDEFINED> instruction: 0x43bb0400
     76c:	00000081 	andeq	r0, r0, r1, lsl #1
     770:	1a5c9102 	bne	1724b80 <__bss_end__+0x16fcad0>
     774:	00000520 	andeq	r0, r0, r0, lsr #10
     778:	0a5cbb04 	beq	172f390 <__bss_end__+0x17072e0>
     77c:	02000002 	andeq	r0, r0, #2
     780:	6d205891 	stcvs	8, cr5, [r0, #-580]!	; 0xfffffdbc
     784:	04003072 	streq	r3, [r0], #-114	; 0xffffff8e
     788:	080a44bc 	stmdaeq	sl, {r2, r3, r4, r5, r7, sl, lr}
     78c:	91020000 	mrsls	r0, (UNDEF: 2)
     790:	726d2054 	rsbvc	r2, sp, #84	; 0x54
     794:	bc040031 	stclt	0, cr0, [r4], {49}	; 0x31
     798:	00080a54 	andeq	r0, r8, r4, asr sl
     79c:	50910200 	addspl	r0, r1, r0, lsl #4
     7a0:	32726d20 	rsbscc	r6, r2, #32, 26	; 0x800
     7a4:	64bc0400 	ldrtvs	r0, [ip], #1024	; 0x400
     7a8:	0000080a 	andeq	r0, r0, sl, lsl #16
     7ac:	20009102 	andcs	r9, r0, r2, lsl #2
     7b0:	0033726d 	eorseq	r7, r3, sp, ror #4
     7b4:	0a74bc04 	beq	1d2f7cc <__bss_end__+0x1d0771c>
     7b8:	02000008 	andeq	r0, r0, #8
     7bc:	bf0b0491 	svclt	0x000b0491
     7c0:	0400000f 	streq	r0, [r0], #-15
     7c4:	020a18be 	andeq	r1, sl, #12451840	; 0xbe0000
     7c8:	91020000 	mrsls	r0, (UNDEF: 2)
     7cc:	092b0b74 	stmdbeq	fp!, {r2, r4, r5, r6, r8, r9, fp}
     7d0:	bf040000 	svclt	0x00040000
     7d4:	0000750f 	andeq	r7, r0, pc, lsl #10
     7d8:	70910200 	addsvc	r0, r1, r0, lsl #4
     7dc:	0009300b 	andeq	r3, r9, fp
     7e0:	0fc00400 	svceq	0x00c00400
     7e4:	00000075 	andeq	r0, r0, r5, ror r0
     7e8:	0b6c9102 	bleq	1b24bf8 <__bss_end__+0x1afcb48>
     7ec:	00000935 	andeq	r0, r0, r5, lsr r9
     7f0:	750fc104 	strvc	ip, [pc, #-260]	; 6f4 <errno+0x6f0>
     7f4:	02000000 	andeq	r0, r0, #0
     7f8:	3a0b6891 	bcc	2daa44 <__bss_end__+0x2b2994>
     7fc:	04000009 	streq	r0, [r0], #-9
     800:	00750fc2 	rsbseq	r0, r5, r2, asr #31
     804:	91020000 	mrsls	r0, (UNDEF: 2)
     808:	04180064 	ldreq	r0, [r8], #-100	; 0xffffff9c
     80c:	00000075 	andeq	r0, r0, r5, ror r0
     810:	00095e21 	andeq	r5, r9, r1, lsr #28
     814:	14920300 	ldrne	r0, [r2], #768	; 0x300
     818:	00010460 	andeq	r0, r1, r0, ror #8
     81c:	000000ac 	andeq	r0, r0, ip, lsr #1
     820:	091f9c01 	ldmdbeq	pc, {r0, sl, fp, ip, pc}	; <UNPREDICTABLE>
     824:	73200000 	nopvc	{0}	; <UNPREDICTABLE>
     828:	03007379 	movweq	r7, #889	; 0x379
     82c:	00753092 			; <UNDEFINED> instruction: 0x00753092
     830:	91020000 	mrsls	r0, (UNDEF: 2)
     834:	11b41a6c 			; <UNDEFINED> instruction: 0x11b41a6c
     838:	92030000 	andls	r0, r3, #0
     83c:	0000753f 	andeq	r7, r0, pc, lsr r5
     840:	68910200 	ldmvs	r1, {r9}
     844:	0009b91a 	andeq	fp, r9, sl, lsl r9
     848:	50920300 	addspl	r0, r2, r0, lsl #6
     84c:	0000080a 	andeq	r0, r0, sl, lsl #16
     850:	1a649102 	bne	1924c60 <__bss_end__+0x18fcbb0>
     854:	00000890 	muleq	r0, r0, r8
     858:	75659203 	strbvc	r9, [r5, #-515]!	; 0xfffffdfd
     85c:	02000000 	andeq	r0, r0, #0
     860:	da1a6091 	ble	698aac <__bss_end__+0x6709fc>
     864:	03000001 	movweq	r0, #1
     868:	080a3193 	stmdaeq	sl, {r0, r1, r4, r7, r8, ip, sp}
     86c:	91020000 	mrsls	r0, (UNDEF: 2)
     870:	085d1a00 	ldmdaeq	sp, {r9, fp, ip}^
     874:	93030000 	movwls	r0, #12288	; 0x3000
     878:	00080a46 	andeq	r0, r8, r6, asr #20
     87c:	04910200 	ldreq	r0, [r1], #512	; 0x200
     880:	0000e31a 	andeq	lr, r0, sl, lsl r3
     884:	5d930300 	ldcpl	3, cr0, [r3]
     888:	0000080a 	andeq	r0, r0, sl, lsl #16
     88c:	1a089102 	bne	224c9c <__bss_end__+0x1fcbec>
     890:	000000ee 	andeq	r0, r0, lr, ror #1
     894:	0a749303 	beq	1d254a8 <__bss_end__+0x1cfd3f8>
     898:	02000008 	andeq	r0, r0, #8
     89c:	851a0c91 	ldrhi	r0, [sl, #-3217]	; 0xfffff36f
     8a0:	03000008 	movweq	r0, #8
     8a4:	080a8b93 	stmdaeq	sl, {r0, r1, r4, r7, r8, r9, fp, pc}
     8a8:	91020000 	mrsls	r0, (UNDEF: 2)
     8ac:	00451a10 	subeq	r1, r5, r0, lsl sl
     8b0:	94030000 	strls	r0, [r3], #-0
     8b4:	0000753f 	andeq	r7, r0, pc, lsr r5
     8b8:	14910200 	ldrne	r0, [r1], #512	; 0x200
     8bc:	0003bb0b 	andeq	fp, r3, fp, lsl #22
     8c0:	18960300 	ldmne	r6, {r8, r9}
     8c4:	00000075 	andeq	r0, r0, r5, ror r0
     8c8:	bf0b5001 	svclt	0x000b5001
     8cc:	0300000f 	movweq	r0, #15
     8d0:	00751897 			; <UNDEFINED> instruction: 0x00751897
     8d4:	51010000 	mrspl	r0, (UNDEF: 1)
     8d8:	00092b0b 	andeq	r2, r9, fp, lsl #22
     8dc:	189a0300 	ldmne	sl, {r8, r9}
     8e0:	00000075 	andeq	r0, r0, r5, ror r0
     8e4:	300b5201 	andcc	r5, fp, r1, lsl #4
     8e8:	03000009 	movweq	r0, #9
     8ec:	0075189b 			; <UNDEFINED> instruction: 0x0075189b
     8f0:	53010000 	movwpl	r0, #4096	; 0x1000
     8f4:	0009350b 	andeq	r3, r9, fp, lsl #10
     8f8:	189c0300 	ldmne	ip, {r8, r9}
     8fc:	00000075 	andeq	r0, r0, r5, ror r0
     900:	3a0b5401 	bcc	2d590c <__bss_end__+0x2ad85c>
     904:	03000009 	movweq	r0, #9
     908:	0075189d 			; <UNDEFINED> instruction: 0x0075189d
     90c:	55010000 	strpl	r0, [r1, #-0]
     910:	0008af0b 	andeq	sl, r8, fp, lsl #30
     914:	18a10300 	stmiane	r1!, {r8, r9}
     918:	00000075 	andeq	r0, r0, r5, ror r0
     91c:	22005701 	andcs	r5, r0, #262144	; 0x40000
     920:	00000548 	andeq	r0, r0, r8, asr #10
     924:	281a4c02 	ldmdacs	sl, {r1, sl, fp, lr}
     928:	38000104 	stmdacc	r0, {r2, r8}
     92c:	01000000 	mrseq	r0, (UNDEF: 0)
     930:	0009529c 	muleq	r9, ip, r2
     934:	00692000 	rsbeq	r2, r9, r0
     938:	4d2a4c02 	stcmi	12, cr4, [sl, #-8]!
     93c:	02000000 	andeq	r0, r0, #0
     940:	d91a7491 	ldmdble	sl, {r0, r4, r7, sl, ip, sp, lr}
     944:	02000009 	andeq	r0, r0, #9
     948:	0081374c 	addeq	r3, r1, ip, asr #14
     94c:	91020000 	mrsls	r0, (UNDEF: 2)
     950:	7e220070 	mcrvc	0, 1, r0, cr2, cr0, {3}
     954:	02000001 	andeq	r0, r0, #1
     958:	03ec1a33 	mvneq	r1, #208896	; 0x33000
     95c:	003c0001 	eorseq	r0, ip, r1
     960:	9c010000 	stcls	0, cr0, [r1], {-0}
     964:	00000984 	andeq	r0, r0, r4, lsl #19
     968:	02006920 	andeq	r6, r0, #32, 18	; 0x80000
     96c:	004d2933 	subeq	r2, sp, r3, lsr r9
     970:	91020000 	mrsls	r0, (UNDEF: 2)
     974:	726d2074 	rsbvc	r2, sp, #116	; 0x74
     978:	36330200 	ldrtcc	r0, [r3], -r0, lsl #4
     97c:	00000075 	andeq	r0, r0, r5, ror r0
     980:	00709102 	rsbseq	r9, r0, r2, lsl #2
     984:	00049d23 	andeq	r9, r4, r3, lsr #26
     988:	25290200 	strcs	r0, [r9, #-512]!	; 0xfffffe00
     98c:	000002e4 	andeq	r0, r0, r4, ror #5
     990:	000103c8 	andeq	r0, r1, r8, asr #7
     994:	00000024 	andeq	r0, r0, r4, lsr #32
     998:	32249c01 	eorcc	r9, r4, #256	; 0x100
     99c:	01000006 	tsteq	r0, r6
     9a0:	540101d5 	strpl	r0, [r1], #-469	; 0xfffffe2b
     9a4:	98000000 	stmdals	r0, {}	; <UNPREDICTABLE>
     9a8:	30000103 	andcc	r0, r0, r3, lsl #2
     9ac:	01000000 	mrseq	r0, (UNDEF: 0)
     9b0:	0009d69c 	muleq	r9, ip, r6
     9b4:	040d1c00 	streq	r1, [sp], #-3072	; 0xfffff400
     9b8:	d5010000 	strle	r0, [r1, #-0]
     9bc:	020a3001 	andeq	r3, sl, #1
     9c0:	91020000 	mrsls	r0, (UNDEF: 2)
     9c4:	65721e6c 	ldrbvs	r1, [r2, #-3692]!	; 0xfffff194
     9c8:	d6010074 			; <UNDEFINED> instruction: 0xd6010074
     9cc:	00541101 	subseq	r1, r4, r1, lsl #2
     9d0:	91020000 	mrsls	r0, (UNDEF: 2)
     9d4:	85240074 	strhi	r0, [r4, #-116]!	; 0xffffff8c
     9d8:	01000007 	tsteq	r0, r7
     9dc:	54010160 	strpl	r0, [r1], #-352	; 0xfffffea0
     9e0:	68000000 	stmdavs	r0, {}	; <UNPREDICTABLE>
     9e4:	30000103 	andcc	r0, r0, r3, lsl #2
     9e8:	01000000 	mrseq	r0, (UNDEF: 0)
     9ec:	000a129c 	muleq	sl, ip, r2
     9f0:	040d1c00 	streq	r1, [sp], #-3072	; 0xfffff400
     9f4:	60010000 	andvs	r0, r1, r0
     9f8:	020a2f01 	andeq	r2, sl, #1, 30
     9fc:	91020000 	mrsls	r0, (UNDEF: 2)
     a00:	65721e6c 	ldrbvs	r1, [r2, #-3692]!	; 0xfffff194
     a04:	61010074 	tstvs	r1, r4, ror r0
     a08:	00541101 	subseq	r1, r4, r1, lsl #2
     a0c:	91020000 	mrsls	r0, (UNDEF: 2)
     a10:	5e1b0074 	mrcpl	0, 0, r0, cr11, cr4, {3}
     a14:	01000004 	tsteq	r0, r4
     a18:	0a01013e 	beq	40f18 <__bss_end__+0x18e68>
     a1c:	40000002 	andmi	r0, r0, r2
     a20:	28000102 	stmdacs	r0, {r1, r8}
     a24:	01000001 	tsteq	r0, r1
     a28:	000a8d9c 	muleq	sl, ip, sp
     a2c:	0e571c00 	cdpeq	12, 5, cr1, cr7, cr0, {0}
     a30:	3e010000 	cdpcc	0, 0, cr0, cr1, cr0, {0}
     a34:	00542201 	subseq	r2, r4, r1, lsl #4
     a38:	91020000 	mrsls	r0, (UNDEF: 2)
     a3c:	08181c6c 	ldmdaeq	r8, {r2, r3, r5, r6, sl, fp, ip}
     a40:	3e010000 	cdpcc	0, 0, cr0, cr1, cr0, {0}
     a44:	00543501 	subseq	r3, r4, r1, lsl #10
     a48:	91020000 	mrsls	r0, (UNDEF: 2)
     a4c:	00a51c68 	adceq	r1, r5, r8, ror #24
     a50:	3e010000 	cdpcc	0, 0, cr0, cr1, cr0, {0}
     a54:	00545001 	subseq	r5, r4, r1
     a58:	91020000 	mrsls	r0, (UNDEF: 2)
     a5c:	06471c64 	strbeq	r1, [r7], -r4, ror #24
     a60:	3e010000 	cdpcc	0, 0, cr0, cr1, cr0, {0}
     a64:	00546701 	subseq	r6, r4, r1, lsl #14
     a68:	91020000 	mrsls	r0, (UNDEF: 2)
     a6c:	040d1d60 	streq	r1, [sp], #-3424	; 0xfffff2a0
     a70:	3f010000 	svccc	0x00010000
     a74:	020a1801 	andeq	r1, sl, #65536	; 0x10000
     a78:	91020000 	mrsls	r0, (UNDEF: 2)
     a7c:	09a32574 	stmibeq	r3!, {r2, r4, r5, r6, r8, sl, sp}
     a80:	0a9d0000 	beq	fe740a88 <__bss_end__+0xfe7189d8>
     a84:	03050000 	movweq	r0, #20480	; 0x5000
     a88:	000163ec 	andeq	r6, r1, ip, ror #7
     a8c:	06430c00 	strbeq	r0, [r3], -r0, lsl #24
     a90:	0a9d0000 	beq	fe740a98 <__bss_end__+0xfe7189e8>
     a94:	600d0000 	andvs	r0, sp, r0
     a98:	14000000 	strne	r0, [r0], #-0
     a9c:	0a8d0a00 	beq	fe3432a4 <__bss_end__+0xfe31b1f4>
     aa0:	e71f0000 	ldr	r0, [pc, -r0]
     aa4:	01000005 	tsteq	r0, r5
     aa8:	01e1017b 	mvneq	r0, fp, ror r1
     aac:	01180000 	tsteq	r8, r0
     ab0:	01280001 			; <UNDEFINED> instruction: 0x01280001
     ab4:	9c010000 	stcls	0, cr0, [r1], {-0}
     ab8:	00000b17 	andeq	r0, r0, r7, lsl fp
     abc:	000ba31a 	andeq	sl, fp, sl, lsl r3
     ac0:	207b0100 	rsbscs	r0, fp, r0, lsl #2
     ac4:	00000054 	andeq	r0, r0, r4, asr r0
     ac8:	1a6c9102 	bne	1b24ed8 <__bss_end__+0x1afce28>
     acc:	00000340 	andeq	r0, r0, r0, asr #6
     ad0:	54407b01 	strbpl	r7, [r0], #-2817	; 0xfffff4ff
     ad4:	02000000 	andeq	r0, r0, #0
     ad8:	2d1a6891 	ldccs	8, cr6, [sl, #-580]	; 0xfffffdbc
     adc:	01000003 	tsteq	r0, r3
     ae0:	00545b7b 	subseq	r5, r4, fp, ror fp
     ae4:	91020000 	mrsls	r0, (UNDEF: 2)
     ae8:	03011a64 	movweq	r1, #6756	; 0x1a64
     aec:	7b010000 	blvc	40af4 <__bss_end__+0x18a44>
     af0:	00005475 	andeq	r5, r0, r5, ror r4
     af4:	60910200 	addsvs	r0, r1, r0, lsl #4
     af8:	0008b40b 	andeq	fp, r8, fp, lsl #8
     afc:	167c0100 	ldrbtne	r0, [ip], -r0, lsl #2
     b00:	000001e1 	andeq	r0, r0, r1, ror #3
     b04:	25749102 	ldrbcs	r9, [r4, #-258]!	; 0xfffffefe
     b08:	000009a3 	andeq	r0, r0, r3, lsr #19
     b0c:	00000b27 	andeq	r0, r0, r7, lsr #22
     b10:	63d80305 	bicsvs	r0, r8, #335544320	; 0x14000000
     b14:	0c000001 	stceq	0, cr0, [r0], {1}
     b18:	00000643 	andeq	r0, r0, r3, asr #12
     b1c:	00000b27 	andeq	r0, r0, r7, lsr #22
     b20:	0000600d 	andeq	r6, r0, sp
     b24:	0a001200 	beq	532c <errno+0x5328>
     b28:	00000b17 	andeq	r0, r0, r7, lsl fp
     b2c:	00051800 	andeq	r1, r5, r0, lsl #16
     b30:	7c000400 	cfstrsvc	mvf0, [r0], {-0}
     b34:	04000002 	streq	r0, [r0], #-2
     b38:	000c8701 	andeq	r8, ip, r1, lsl #14
     b3c:	0de70c00 	stcleq	12, cr0, [r7]
     b40:	0da00000 	stceq	0, cr0, [r0]
     b44:	00000000 	andeq	r0, r0, r0
     b48:	00540000 	subseq	r0, r4, r0
     b4c:	05780000 	ldrbeq	r0, [r8, #-0]!
     b50:	01020000 	mrseq	r0, (UNDEF: 2)
     b54:	00087906 	andeq	r7, r8, r6, lsl #18
     b58:	09700300 	ldmdbeq	r0!, {r8, r9}^
     b5c:	26020000 	strcs	r0, [r2], -r0
     b60:	00003825 	andeq	r3, r0, r5, lsr #16
     b64:	08010200 	stmdaeq	r1, {r9}
     b68:	00000877 	andeq	r0, r0, r7, ror r8
     b6c:	99050202 	stmdbls	r5, {r1, r9}
     b70:	02000006 	andeq	r0, r0, #6
     b74:	09840702 	stmibeq	r4, {r1, r8, r9, sl}
     b78:	04040000 	streq	r0, [r4], #-0
     b7c:	746e6905 	strbtvc	r6, [lr], #-2309	; 0xfffff6fb
     b80:	02e80300 	rsceq	r0, r8, #0, 6
     b84:	3d020000 	stccc	0, cr0, [r2, #-0]
     b88:	00006025 	andeq	r6, r0, r5, lsr #32
     b8c:	07040200 	streq	r0, [r4, -r0, lsl #4]
     b90:	000002be 			; <UNDEFINED> instruction: 0x000002be
     b94:	f4050802 	vst2.8	{d0-d1}, [r5], r2
     b98:	02000004 	andeq	r0, r0, #4
     b9c:	02b40708 	adcseq	r0, r4, #8, 14	; 0x200000
     ba0:	26030000 	strcs	r0, [r3], -r0
     ba4:	02000002 	andeq	r0, r0, #2
     ba8:	00541571 	subseq	r1, r4, r1, ror r5
     bac:	3e030000 	cdpcc	0, 0, cr0, cr3, cr0, {0}
     bb0:	02000005 	andeq	r0, r0, #5
     bb4:	00751380 	rsbseq	r1, r5, r0, lsl #7
     bb8:	cc050000 	stcgt	0, cr0, [r5], {-0}
     bbc:	07000003 	streq	r0, [r0, -r3]
     bc0:	00006004 	andeq	r6, r0, r4
     bc4:	0e080300 	cdpeq	3, 0, cr0, cr8, cr0, {0}
     bc8:	000000c4 	andeq	r0, r0, r4, asr #1
     bcc:	0009de06 	andeq	sp, r9, r6, lsl #28
     bd0:	0a060000 	beq	180bd8 <__bss_end__+0x158b28>
     bd4:	01000002 	tsteq	r0, r2
     bd8:	0006d806 	andeq	sp, r6, r6, lsl #16
     bdc:	4e060200 	cdpmi	2, 0, cr0, cr6, cr0, {0}
     be0:	03000006 	movweq	r0, #6
     be4:	0009f106 	andeq	pc, r9, r6, lsl #2
     be8:	d7060400 	strle	r0, [r6, -r0, lsl #8]
     bec:	05000008 	streq	r0, [r0, #-8]
     bf0:	0b450300 	bleq	11417f8 <__bss_end__+0x1119748>
     bf4:	13030000 	movwne	r0, #12288	; 0x3000
     bf8:	00008d03 	andeq	r8, r0, r3, lsl #26
     bfc:	00c40700 	sbceq	r0, r4, r0, lsl #14
     c00:	e9080000 	stmdb	r8, {}	; <UNPREDICTABLE>
     c04:	03000003 	movweq	r0, #3
     c08:	00d05915 	sbcseq	r5, r0, r5, lsl r9
     c0c:	03050000 	movweq	r0, #20480	; 0x5000
     c10:	00000000 	andeq	r0, r0, r0
     c14:	000d9305 	andeq	r9, sp, r5, lsl #6
     c18:	60040700 	andvs	r0, r4, r0, lsl #14
     c1c:	04000000 	streq	r0, [r0], #-0
     c20:	01060e09 	tsteq	r6, r9, lsl #28
     c24:	b6060000 	strlt	r0, [r6], -r0
     c28:	0500000b 	streq	r0, [r0, #-11]
     c2c:	000c5c06 	andeq	r5, ip, r6, lsl #24
     c30:	05000600 	streq	r0, [r0, #-1536]	; 0xfffffa00
     c34:	00000c33 	andeq	r0, r0, r3, lsr ip
     c38:	00600407 	rsbeq	r0, r0, r7, lsl #8
     c3c:	34050000 	strcc	r0, [r5], #-0
     c40:	00012b06 	andeq	r2, r1, r6, lsl #22
     c44:	0c090600 	stceq	6, cr0, [r9], {-0}
     c48:	06070000 	streq	r0, [r7], -r0
     c4c:	00000bf4 	strdeq	r0, [r0], -r4
     c50:	0d520602 	ldcleq	6, cr0, [r2, #-8]
     c54:	00780000 	rsbseq	r0, r8, r0
     c58:	00005409 	andeq	r5, r0, r9, lsl #8
     c5c:	00013b00 	andeq	r3, r1, r0, lsl #22
     c60:	00600a00 	rsbeq	r0, r0, r0, lsl #20
     c64:	00000000 	andeq	r0, r0, r0
     c68:	00040d0b 	andeq	r0, r4, fp, lsl #26
     c6c:	38060400 	stmdacc	r6, {sl}
     c70:	01580801 	cmpeq	r8, r1, lsl #16
     c74:	3a0c0000 	bcc	300c7c <__bss_end__+0x2d8bcc>
     c78:	06000003 	streq	r0, [r0], -r3
     c7c:	2b110139 	blcs	441168 <__bss_end__+0x4190b8>
     c80:	00000001 	andeq	r0, r0, r1
     c84:	02730d00 	rsbseq	r0, r3, #0, 26
     c88:	3b060000 	blcc	180c90 <__bss_end__+0x158be0>
     c8c:	013b2101 	teqeq	fp, r1, lsl #2
     c90:	5c0e0000 	stcpl	0, cr0, [lr], {-0}
     c94:	00000000 	andeq	r0, r0, r0
     c98:	100b0702 	andne	r0, fp, r2, lsl #14
     c9c:	000001d4 	ldrdeq	r0, [r0], -r4
     ca0:	6761740f 	strbvs	r7, [r1, -pc, lsl #8]!
     ca4:	180c0700 	stmdane	ip, {r8, r9, sl}
     ca8:	00000158 	andeq	r0, r0, r8, asr r1
     cac:	736d0f00 	cmnvc	sp, #0, 30
     cb0:	0d070067 	stceq	0, cr0, [r7, #-412]	; 0xfffffe64
     cb4:	0001d40f 	andeq	sp, r1, pc, lsl #8
     cb8:	7b100400 	blvc	401cc0 <__bss_end__+0x3d9c10>
     cbc:	07000009 	streq	r0, [r0, -r9]
     cc0:	00750f0e 	rsbseq	r0, r5, lr, lsl #30
     cc4:	01e40000 	mvneq	r0, r0
     cc8:	0004af10 	andeq	sl, r4, r0, lsl pc
     ccc:	0f0f0700 	svceq	0x000f0700
     cd0:	000001e4 	andeq	r0, r0, r4, ror #3
     cd4:	071001e8 	ldreq	r0, [r0, -r8, ror #3]
     cd8:	07000006 	streq	r0, [r0, -r6]
     cdc:	00810f10 	addeq	r0, r1, r0, lsl pc
     ce0:	01f40000 	mvnseq	r0, r0
     ce4:	0006cb10 	andeq	ip, r6, r0, lsl fp
     ce8:	0f110700 	svceq	0x00110700
     cec:	00000081 	andeq	r0, r0, r1, lsl #1
     cf0:	f41001f8 			; <UNDEFINED> instruction: 0xf41001f8
     cf4:	0700000a 	streq	r0, [r0, -sl]
     cf8:	00750f12 	rsbseq	r0, r5, r2, lsl pc
     cfc:	01fc0000 	mvnseq	r0, r0
     d00:	00750900 	rsbseq	r0, r5, r0, lsl #18
     d04:	01e40000 	mvneq	r0, r0
     d08:	600a0000 	andvs	r0, sl, r0
     d0c:	77000000 	strvc	r0, [r0, -r0]
     d10:	00750900 	rsbseq	r0, r5, r0, lsl #18
     d14:	01f40000 	mvnseq	r0, r0
     d18:	600a0000 	andvs	r0, sl, r0
     d1c:	02000000 	andeq	r0, r0, #0
     d20:	01271100 			; <UNDEFINED> instruction: 0x01271100
     d24:	13070000 	movwne	r0, #28672	; 0x7000
     d28:	00016503 	andeq	r6, r1, r3, lsl #10
     d2c:	03020000 	movweq	r0, #8192	; 0x2000
     d30:	000006ec 	andeq	r0, r0, ip, ror #13
     d34:	75131f08 	ldrvc	r1, [r3, #-3848]	; 0xfffff0f8
     d38:	03000000 	movweq	r0, #0
     d3c:	0000036a 	andeq	r0, r0, sl, ror #6
     d40:	75132108 	ldrvc	r2, [r3, #-264]	; 0xfffffef8
     d44:	12000000 	andne	r0, r0, #0
     d48:	00000261 	andeq	r0, r0, r1, ror #4
     d4c:	26210d0c 	strtcs	r0, [r1], -ip, lsl #26
     d50:	13000002 	movwne	r0, #2
     d54:	0001f404 	andeq	pc, r1, r4, lsl #8
     d58:	0e4c0500 	cdpeq	5, 4, cr0, cr12, cr0, {0}
     d5c:	04070000 	streq	r0, [r7], #-0
     d60:	00000060 	andeq	r0, r0, r0, rrx
     d64:	f9060e09 			; <UNDEFINED> instruction: 0xf9060e09
     d68:	06000002 	streq	r0, [r0], -r2
     d6c:	000001c8 	andeq	r0, r0, r8, asr #3
     d70:	0b8a0600 	bleq	fe282578 <__bss_end__+0xfe25a4c8>
     d74:	06010000 	streq	r0, [r1], -r0
     d78:	000002cb 	andeq	r0, r0, fp, asr #5
     d7c:	06870602 	streq	r0, [r7], r2, lsl #12
     d80:	06030000 	streq	r0, [r3], -r0
     d84:	000007aa 	andeq	r0, r0, sl, lsr #15
     d88:	01fd0604 	mvnseq	r0, r4, lsl #12
     d8c:	06050000 	streq	r0, [r5], -r0
     d90:	000006bc 			; <UNDEFINED> instruction: 0x000006bc
     d94:	02500606 	subseq	r0, r0, #6291456	; 0x600000
     d98:	06070000 	streq	r0, [r7], -r0
     d9c:	00000189 	andeq	r0, r0, r9, lsl #3
     da0:	010a0608 	tsteq	sl, r8, lsl #12
     da4:	06090000 	streq	r0, [r9], -r0
     da8:	00000626 	andeq	r0, r0, r6, lsr #12
     dac:	0402060a 	streq	r0, [r2], #-1546	; 0xfffff9f6
     db0:	060b0000 	streq	r0, [fp], -r0
     db4:	000007a0 	andeq	r0, r0, r0, lsr #15
     db8:	0717060c 	ldreq	r0, [r7, -ip, lsl #12]
     dbc:	060d0000 	streq	r0, [sp], -r0
     dc0:	000005b1 			; <UNDEFINED> instruction: 0x000005b1
     dc4:	0b55060e 	bleq	1542604 <__bss_end__+0x151a554>
     dc8:	060f0000 	streq	r0, [pc], -r0
     dcc:	00000997 	muleq	r0, r7, r9
     dd0:	02dc0610 	sbcseq	r0, ip, #16, 12	; 0x1000000
     dd4:	06110000 	ldreq	r0, [r1], -r0
     dd8:	0000059a 	muleq	r0, sl, r5
     ddc:	0b800612 	bleq	fe00262c <__bss_end__+0xfdfda57c>
     de0:	06130000 	ldreq	r0, [r3], -r0
     de4:	000002aa 	andeq	r0, r0, sl, lsr #5
     de8:	015c0614 	cmpeq	ip, r4, lsl r6
     dec:	06150000 	ldreq	r0, [r5], -r0
     df0:	0000072b 	andeq	r0, r0, fp, lsr #14
     df4:	034e0616 	movteq	r0, #58902	; 0xe616
     df8:	06170000 	ldreq	r0, [r7], -r0
     dfc:	0000029a 	muleq	r0, sl, r2
     e00:	03a80618 			; <UNDEFINED> instruction: 0x03a80618
     e04:	06190000 	ldreq	r0, [r9], -r0
     e08:	00000954 	andeq	r0, r0, r4, asr r9
     e0c:	0397061a 	orrseq	r0, r7, #27262976	; 0x1a00000
     e10:	061b0000 	ldreq	r0, [fp], -r0
     e14:	00000674 	andeq	r0, r0, r4, ror r6
     e18:	057d061c 	ldrbeq	r0, [sp, #-1564]!	; 0xfffff9e4
     e1c:	061d0000 	ldreq	r0, [sp], -r0
     e20:	0000006c 	andeq	r0, r0, ip, rrx
     e24:	4205001e 	andmi	r0, r5, #30
     e28:	0700000e 	streq	r0, [r0, -lr]
     e2c:	00006004 	andeq	r6, r0, r4
     e30:	060e0a00 	streq	r0, [lr], -r0, lsl #20
     e34:	0000032a 	andeq	r0, r0, sl, lsr #6
     e38:	000be406 	andeq	lr, fp, r6, lsl #8
     e3c:	7e061e00 	cdpvc	14, 0, cr1, cr6, cr0, {0}
     e40:	1f00000d 	svcne	0x0000000d
     e44:	000d6406 	andeq	r6, sp, r6, lsl #8
     e48:	1c062000 	stcne	0, cr2, [r6], {-0}
     e4c:	2100000c 	tstcs	r0, ip
     e50:	000c4206 	andeq	r4, ip, r6, lsl #4
     e54:	02002200 	andeq	r2, r0, #0, 4
     e58:	02b90704 	adcseq	r0, r9, #4, 14	; 0x100000
     e5c:	13030000 	movwne	r0, #12288	; 0x3000
     e60:	0b000005 	bleq	e7c <errno+0xe78>
     e64:	00751327 	rsbseq	r1, r5, r7, lsr #6
     e68:	7c140000 	ldcvc	0, cr0, [r4], {-0}
     e6c:	08000004 	stmdaeq	r0, {r2}
     e70:	6510290b 	ldrvs	r2, [r0, #-2315]	; 0xfffff6f5
     e74:	15000003 	strne	r0, [r0, #-3]
     e78:	00000f89 	andeq	r0, r0, r9, lsl #31
     e7c:	31122a0b 	tstcc	r2, fp, lsl #20
     e80:	00000003 	andeq	r0, r0, r3
     e84:	646e650f 	strbtvs	r6, [lr], #-1295	; 0xfffffaf1
     e88:	122b0b00 	eorne	r0, fp, #0, 22
     e8c:	00000331 	andeq	r0, r0, r1, lsr r3
     e90:	7c030004 	stcvc	0, cr0, [r3], {4}
     e94:	0b000004 	bleq	eac <errno+0xea8>
     e98:	033d032c 	teqeq	sp, #44, 6	; 0xb0000000
     e9c:	8c140000 	ldchi	0, cr0, [r4], {-0}
     ea0:	08000004 	stmdaeq	r0, {r2}
     ea4:	b3102e0b 	tstlt	r0, #11, 28	; 0xb0
     ea8:	15000003 	strne	r0, [r0, #-3]
     eac:	00000f6f 	andeq	r0, r0, pc, ror #30
     eb0:	75102f0b 	ldrvc	r2, [r0, #-3851]	; 0xfffff0f5
     eb4:	00000000 	andeq	r0, r0, r0
     eb8:	00092215 	andeq	r2, r9, r5, lsl r2
     ebc:	10300b00 	eorsne	r0, r0, r0, lsl #22
     ec0:	0000002c 	andeq	r0, r0, ip, lsr #32
     ec4:	00af1504 	adceq	r1, pc, r4, lsl #10
     ec8:	310b0000 	mrscc	r0, (UNDEF: 11)
     ecc:	00002c10 	andeq	r2, r0, r0, lsl ip
     ed0:	02150500 	andseq	r0, r5, #0, 10
     ed4:	0b000005 	bleq	ef0 <errno+0xeec>
     ed8:	03b31032 			; <UNDEFINED> instruction: 0x03b31032
     edc:	00060000 	andeq	r0, r6, r0
     ee0:	00002c09 	andeq	r2, r0, r9, lsl #24
     ee4:	0003c300 	andeq	ip, r3, r0, lsl #6
     ee8:	00600a00 	rsbeq	r0, r0, r0, lsl #20
     eec:	00010000 	andeq	r0, r1, r0
     ef0:	00048c03 	andeq	r8, r4, r3, lsl #24
     ef4:	03330b00 	teqeq	r3, #0, 22
     ef8:	00000371 	andeq	r0, r0, r1, ror r3
     efc:	0003160e 	andeq	r1, r3, lr, lsl #12
     f00:	0b078400 	bleq	1e1f08 <__bss_end__+0x1b9e58>
     f04:	04a11039 	strteq	r1, [r1], #57	; 0x39
     f08:	73150000 	tstvc	r5, #0
     f0c:	0b000004 	bleq	f24 <errno+0xf20>
     f10:	0075173a 	rsbseq	r1, r5, sl, lsr r7
     f14:	15000000 	strne	r0, [r0, #-0]
     f18:	0000003e 	andeq	r0, r0, lr, lsr r0
     f1c:	02173b0b 	andseq	r3, r7, #11264	; 0x2c00
     f20:	04000002 	streq	r0, [r0], #-2
     f24:	0003c315 	andeq	ip, r3, r5, lsl r3
     f28:	173c0b00 	ldrne	r0, [ip, -r0, lsl #22]!
     f2c:	00000075 	andeq	r0, r0, r5, ror r0
     f30:	0b011508 	bleq	46358 <__bss_end__+0x1e2a8>
     f34:	3d0b0000 	stccc	0, cr0, [fp, #-0]
     f38:	00007517 	andeq	r7, r0, r7, lsl r5
     f3c:	30150c00 	andscc	r0, r5, r0, lsl #24
     f40:	0b000002 	bleq	f50 <errno+0xf4c>
     f44:	0226173e 	eoreq	r1, r6, #16252928	; 0xf80000
     f48:	15100000 	ldrne	r0, [r0, #-0]
     f4c:	00000812 	andeq	r0, r0, r2, lsl r8
     f50:	65173f0b 	ldrvs	r3, [r7, #-3851]	; 0xfffff0f5
     f54:	14000003 	strne	r0, [r0], #-3
     f58:	00028615 	andeq	r8, r2, r5, lsl r6
     f5c:	17400b00 	strbne	r0, [r0, -r0, lsl #22]
     f60:	00000365 	andeq	r0, r0, r5, ror #6
     f64:	035a151c 	cmpeq	sl, #28, 10	; 0x7000000
     f68:	410b0000 	mrsmi	r0, (UNDEF: 11)
     f6c:	00036517 	andeq	r6, r3, r7, lsl r5
     f70:	ed152400 	cfldrs	mvf2, [r5, #-0]
     f74:	0b000007 	bleq	f98 <errno+0xf94>
     f78:	03651742 	cmneq	r5, #17301504	; 0x1080000
     f7c:	152c0000 	strne	r0, [ip, #-0]!
     f80:	00000833 	andeq	r0, r0, r3, lsr r8
     f84:	6517430b 	ldrvs	r4, [r7, #-779]	; 0xfffffcf5
     f88:	34000003 	strcc	r0, [r0], #-3
     f8c:	00082615 	andeq	r2, r8, r5, lsl r6
     f90:	17440b00 	strbne	r0, [r4, -r0, lsl #22]
     f94:	00000365 	andeq	r0, r0, r5, ror #6
     f98:	08f3153c 	ldmeq	r3!, {r2, r3, r4, r5, r8, sl, ip}^
     f9c:	450b0000 	strmi	r0, [fp, #-0]
     fa0:	00007517 	andeq	r7, r0, r7, lsl r5
     fa4:	86154400 	ldrhi	r4, [r5], -r0, lsl #8
     fa8:	0b000003 	bleq	fbc <errno+0xfb8>
     fac:	020e1746 	andeq	r1, lr, #18350080	; 0x1180000
     fb0:	15480000 	strbne	r0, [r8, #-0]
     fb4:	00000855 	andeq	r0, r0, r5, asr r8
     fb8:	65174a0b 	ldrvs	r4, [r7, #-2571]	; 0xfffff5f5
     fbc:	4c000003 	stcmi	0, cr0, [r0], {3}
     fc0:	00077915 	andeq	r7, r7, r5, lsl r9
     fc4:	174b0b00 	strbne	r0, [fp, -r0, lsl #22]
     fc8:	000004a1 	andeq	r0, r0, r1, lsr #9
     fcc:	c3090054 	movwgt	r0, #36948	; 0x9054
     fd0:	b1000003 	tstlt	r0, r3
     fd4:	0a000004 	beq	fec <errno+0xfe8>
     fd8:	00000060 	andeq	r0, r0, r0, rrx
     fdc:	160300e5 	strne	r0, [r3], -r5, ror #1
     fe0:	0b000003 	bleq	ff4 <errno+0xff0>
     fe4:	03cf034e 	biceq	r0, pc, #939524097	; 0x38000001
     fe8:	1a160000 	bne	580ff0 <__bss_end__+0x558f40>
     fec:	01000002 	tsteq	r0, r2
     ff0:	0c061a0e 			; <UNDEFINED> instruction: 0x0c061a0e
     ff4:	00000000 	andeq	r0, r0, r0
     ff8:	114117e0 	smlalttne	r1, r1, r0, r7	; <UNPREDICTABLE>
     ffc:	11010000 	mrsne	r0, (UNDEF: 1)
    1000:	0004de10 	andeq	sp, r4, r0, lsl lr
    1004:	00030500 	andeq	r0, r3, r0, lsl #10
    1008:	13000000 	movwne	r0, #0
    100c:	0004b104 	andeq	fp, r4, r4, lsl #2
    1010:	0bd31800 	bleq	ff4c7018 <__bss_end__+0xff49ef68>
    1014:	19010000 	stmdbne	r1, {}	; <UNPREDICTABLE>
    1018:	0004de10 	andeq	sp, r4, r0, lsl lr
    101c:	00000000 	andeq	r0, r0, r0
    1020:	00002400 	andeq	r2, r0, r0, lsl #8
    1024:	199c0100 	ldmibne	ip, {r8}
    1028:	00000c75 	andeq	r0, r0, r5, ror ip
    102c:	00061401 	andeq	r1, r6, r1, lsl #8
    1030:	30000000 	andcc	r0, r0, r0
    1034:	01000000 	mrseq	r0, (UNDEF: 0)
    1038:	69621a9c 	stmdbvs	r2!, {r2, r3, r4, r7, r9, fp, ip}^
    103c:	27140100 	ldrcs	r0, [r4, -r0, lsl #2]
    1040:	000004de 	ldrdeq	r0, [r0], -lr
    1044:	00749102 	rsbseq	r9, r4, r2, lsl #2
    1048:	00002200 	andeq	r2, r0, r0, lsl #4
    104c:	1a000200 	bne	1854 <errno+0x1850>
    1050:	04000004 	streq	r0, [r0], #-4
    1054:	0007d201 	andeq	sp, r7, r1, lsl #4
    1058:	01083000 	mrseq	r3, (UNDEF: 8)
    105c:	01084000 	mrseq	r4, (UNDEF: 8)
    1060:	000e5d00 	andeq	r5, lr, r0, lsl #26
    1064:	000da000 	andeq	sl, sp, r0
    1068:	000ecc00 	andeq	ip, lr, r0, lsl #24
    106c:	5d800100 	stfpls	f0, [r0]
    1070:	04000006 	streq	r0, [r0], #-6
    1074:	00042e00 	andeq	r2, r4, r0, lsl #28
    1078:	87010400 	strhi	r0, [r1, -r0, lsl #8]
    107c:	0c00000c 	stceq	0, cr0, [r0], {12}
    1080:	00000ef2 	strdeq	r0, [r0], -r2
    1084:	00000da0 	andeq	r0, r0, r0, lsr #27
    1088:	00010840 	andeq	r0, r1, r0, asr #16
    108c:	0000017c 	andeq	r0, r0, ip, ror r1
    1090:	00000873 	andeq	r0, r0, r3, ror r8
    1094:	79060102 	stmdbvc	r6, {r1, r8}
    1098:	03000008 	movweq	r0, #8
    109c:	00000970 	andeq	r0, r0, r0, ror r9
    10a0:	38252602 	stmdacc	r5!, {r1, r9, sl, sp}
    10a4:	02000000 	andeq	r0, r0, #0
    10a8:	08770801 	ldmdaeq	r7!, {r0, fp}^
    10ac:	02020000 	andeq	r0, r2, #0
    10b0:	00069905 	andeq	r9, r6, r5, lsl #18
    10b4:	07020200 	streq	r0, [r2, -r0, lsl #4]
    10b8:	00000984 	andeq	r0, r0, r4, lsl #19
    10bc:	69050404 	stmdbvs	r5, {r2, sl}
    10c0:	0300746e 	movweq	r7, #1134	; 0x46e
    10c4:	000002e8 	andeq	r0, r0, r8, ror #5
    10c8:	60253d02 	eorvs	r3, r5, r2, lsl #26
    10cc:	02000000 	andeq	r0, r0, #0
    10d0:	02be0704 	adcseq	r0, lr, #4, 14	; 0x100000
    10d4:	08020000 	stmdaeq	r2, {}	; <UNPREDICTABLE>
    10d8:	0004f405 	andeq	pc, r4, r5, lsl #8
    10dc:	07080200 	streq	r0, [r8, -r0, lsl #4]
    10e0:	000002b4 			; <UNDEFINED> instruction: 0x000002b4
    10e4:	00022603 	andeq	r2, r2, r3, lsl #12
    10e8:	15710200 	ldrbne	r0, [r1, #-512]!	; 0xfffffe00
    10ec:	00000054 	andeq	r0, r0, r4, asr r0
    10f0:	00053e03 	andeq	r3, r5, r3, lsl #28
    10f4:	13800200 	orrne	r0, r0, #0, 4
    10f8:	00000075 	andeq	r0, r0, r5, ror r0
    10fc:	0003cc05 	andeq	ip, r3, r5, lsl #24
    1100:	60040700 	andvs	r0, r4, r0, lsl #14
    1104:	03000000 	movweq	r0, #0
    1108:	00c40e08 	sbceq	r0, r4, r8, lsl #28
    110c:	de060000 	cdple	0, 0, cr0, cr6, cr0, {0}
    1110:	00000009 	andeq	r0, r0, r9
    1114:	00020a06 	andeq	r0, r2, r6, lsl #20
    1118:	d8060100 	stmdale	r6, {r8}
    111c:	02000006 	andeq	r0, r0, #6
    1120:	00064e06 	andeq	r4, r6, r6, lsl #28
    1124:	f1060300 			; <UNDEFINED> instruction: 0xf1060300
    1128:	04000009 	streq	r0, [r0], #-9
    112c:	0008d706 	andeq	sp, r8, r6, lsl #14
    1130:	03000500 	movweq	r0, #1280	; 0x500
    1134:	00000b45 	andeq	r0, r0, r5, asr #22
    1138:	8d031303 	stchi	3, cr1, [r3, #-12]
    113c:	07000000 	streq	r0, [r0, -r0]
    1140:	000000c4 	andeq	r0, r0, r4, asr #1
    1144:	0003e908 	andeq	lr, r3, r8, lsl #18
    1148:	59150300 	ldmdbpl	r5, {r8, r9}
    114c:	000000d0 	ldrdeq	r0, [r0], -r0	; <UNPREDICTABLE>
    1150:	64040305 	strvs	r0, [r4], #-773	; 0xfffffcfb
    1154:	54090001 	strpl	r0, [r9], #-1
    1158:	f7000000 			; <UNDEFINED> instruction: 0xf7000000
    115c:	0a000000 	beq	1164 <errno+0x1160>
    1160:	00000060 	andeq	r0, r0, r0, rrx
    1164:	0d0b0000 	stceq	0, cr0, [fp, #-0]
    1168:	04000004 	streq	r0, [r0], #-4
    116c:	08013804 	stmdaeq	r1, {r2, fp, ip, sp}
    1170:	00000114 	andeq	r0, r0, r4, lsl r1
    1174:	00033a0c 	andeq	r3, r3, ip, lsl #20
    1178:	01390400 	teqeq	r9, r0, lsl #8
    117c:	0000e711 	andeq	lr, r0, r1, lsl r7
    1180:	0d000000 	stceq	0, cr0, [r0, #-0]
    1184:	00000273 	andeq	r0, r0, r3, ror r2
    1188:	21013b04 	tstcs	r1, r4, lsl #22
    118c:	000000f7 	strdeq	r0, [r0], -r7
    1190:	00005c0e 	andeq	r5, r0, lr, lsl #24
    1194:	05020000 	streq	r0, [r2, #-0]
    1198:	0190100b 	orrseq	r1, r0, fp
    119c:	740f0000 	strvc	r0, [pc], #-0	; 11a4 <errno+0x11a0>
    11a0:	05006761 	streq	r6, [r0, #-1889]	; 0xfffff89f
    11a4:	0114180c 	tsteq	r4, ip, lsl #16
    11a8:	0f000000 	svceq	0x00000000
    11ac:	0067736d 	rsbeq	r7, r7, sp, ror #6
    11b0:	900f0d05 	andls	r0, pc, r5, lsl #26
    11b4:	04000001 	streq	r0, [r0], #-1
    11b8:	00097b10 	andeq	r7, r9, r0, lsl fp
    11bc:	0f0e0500 	svceq	0x000e0500
    11c0:	00000075 	andeq	r0, r0, r5, ror r0
    11c4:	af1001e4 	svcge	0x001001e4
    11c8:	05000004 	streq	r0, [r0, #-4]
    11cc:	01a00f0f 	lsleq	r0, pc, #30
    11d0:	01e80000 	mvneq	r0, r0
    11d4:	00060710 	andeq	r0, r6, r0, lsl r7
    11d8:	0f100500 	svceq	0x00100500
    11dc:	00000081 	andeq	r0, r0, r1, lsl #1
    11e0:	cb1001f4 	blgt	4019b8 <__bss_end__+0x3d9908>
    11e4:	05000006 	streq	r0, [r0, #-6]
    11e8:	00810f11 	addeq	r0, r1, r1, lsl pc
    11ec:	01f80000 	mvnseq	r0, r0
    11f0:	000af410 	andeq	pc, sl, r0, lsl r4	; <UNPREDICTABLE>
    11f4:	0f120500 	svceq	0x00120500
    11f8:	00000075 	andeq	r0, r0, r5, ror r0
    11fc:	090001fc 	stmdbeq	r0, {r2, r3, r4, r5, r6, r7, r8}
    1200:	00000075 	andeq	r0, r0, r5, ror r0
    1204:	000001a0 	andeq	r0, r0, r0, lsr #3
    1208:	0000600a 	andeq	r6, r0, sl
    120c:	09007700 	stmdbeq	r0, {r8, r9, sl, ip, sp, lr}
    1210:	00000075 	andeq	r0, r0, r5, ror r0
    1214:	000001b0 			; <UNDEFINED> instruction: 0x000001b0
    1218:	0000600a 	andeq	r6, r0, sl
    121c:	11000200 	mrsne	r0, R8_usr
    1220:	00000127 	andeq	r0, r0, r7, lsr #2
    1224:	21031305 	tstcs	r3, r5, lsl #6
    1228:	00000001 	andeq	r0, r0, r1
    122c:	06ec0302 	strbteq	r0, [ip], r2, lsl #6
    1230:	1f060000 	svcne	0x00060000
    1234:	00007513 	andeq	r7, r0, r3, lsl r5
    1238:	036a0300 	cmneq	sl, #0, 6
    123c:	21060000 	mrscs	r0, (UNDEF: 6)
    1240:	00007513 	andeq	r7, r0, r3, lsl r5
    1244:	02611200 	rsbeq	r1, r1, #0, 4
    1248:	0d0c0000 	stceq	0, cr0, [ip, #-0]
    124c:	0001e221 	andeq	lr, r1, r1, lsr #4
    1250:	b0041300 	andlt	r1, r4, r0, lsl #6
    1254:	02000001 	andeq	r0, r0, #1
    1258:	02b90704 	adcseq	r0, r9, #4, 14	; 0x100000
    125c:	7e050000 	cdpvc	0, 0, cr0, cr5, cr0, {0}
    1260:	07000000 	streq	r0, [r0, -r0]
    1264:	00006004 	andeq	r6, r0, r4
    1268:	060e0700 	streq	r0, [lr], -r0, lsl #14
    126c:	00000268 	andeq	r0, r0, r8, ror #4
    1270:	00011a06 	andeq	r1, r1, r6, lsl #20
    1274:	3a060000 	bcc	18127c <__bss_end__+0x1591cc>
    1278:	01000002 	tsteq	r0, r2
    127c:	0004be06 	andeq	fp, r4, r6, lsl #28
    1280:	9b060200 	blls	181a88 <__bss_end__+0x1599d8>
    1284:	03000001 	movweq	r0, #1
    1288:	0004e106 	andeq	lr, r4, r6, lsl #2
    128c:	b4060400 	strlt	r0, [r6], #-1024	; 0xfffffc00
    1290:	05000001 	streq	r0, [r0, #-1]
    1294:	000b0f06 	andeq	r0, fp, r6, lsl #30
    1298:	3f060600 	svccc	0x00060600
    129c:	07000008 	streq	r0, [r0, -r8]
    12a0:	00058a06 	andeq	r8, r5, r6, lsl #20
    12a4:	c3060800 	movwgt	r0, #26624	; 0x6800
    12a8:	09000009 	stmdbeq	r0, {r0, r3}
    12ac:	0007d106 	andeq	sp, r7, r6, lsl #2
    12b0:	e3060a00 	movw	r0, #27136	; 0x6a00
    12b4:	0b000001 	bleq	12c0 <errno+0x12bc>
    12b8:	00043d06 	andeq	r3, r4, r6, lsl #26
    12bc:	99060c00 	stmdbls	r6, {sl, fp}
    12c0:	0d000008 	stceq	0, cr0, [r0, #-32]	; 0xffffffe0
    12c4:	0007fd06 	andeq	pc, r7, r6, lsl #26
    12c8:	74060e00 	strvc	r0, [r6], #-3584	; 0xfffff200
    12cc:	0f00000b 	svceq	0x0000000b
    12d0:	0008c306 	andeq	ip, r8, r6, lsl #6
    12d4:	03001000 	movweq	r1, #0
    12d8:	00000513 	andeq	r0, r0, r3, lsl r5
    12dc:	75132707 	ldrvc	r2, [r3, #-1799]	; 0xfffff8f9
    12e0:	14000000 	strne	r0, [r0], #-0
    12e4:	0000047c 	andeq	r0, r0, ip, ror r4
    12e8:	10290708 	eorne	r0, r9, r8, lsl #14
    12ec:	0000029c 	muleq	r0, ip, r2
    12f0:	000f8915 	andeq	r8, pc, r5, lsl r9	; <UNPREDICTABLE>
    12f4:	122a0700 	eorne	r0, sl, #0, 14
    12f8:	00000268 	andeq	r0, r0, r8, ror #4
    12fc:	6e650f00 	cdpvs	15, 6, cr0, cr5, cr0, {0}
    1300:	2b070064 	blcs	1c1498 <__bss_end__+0x1993e8>
    1304:	00026812 	andeq	r6, r2, r2, lsl r8
    1308:	03000400 	movweq	r0, #1024	; 0x400
    130c:	0000047c 	andeq	r0, r0, ip, ror r4
    1310:	74032c07 	strvc	r2, [r3], #-3079	; 0xfffff3f9
    1314:	14000002 	strne	r0, [r0], #-2
    1318:	0000048c 	andeq	r0, r0, ip, lsl #9
    131c:	102e0708 	eorne	r0, lr, r8, lsl #14
    1320:	000002ea 	andeq	r0, r0, sl, ror #5
    1324:	000f6f15 	andeq	r6, pc, r5, lsl pc	; <UNPREDICTABLE>
    1328:	102f0700 	eorne	r0, pc, r0, lsl #14
    132c:	00000075 	andeq	r0, r0, r5, ror r0
    1330:	09221500 	stmdbeq	r2!, {r8, sl, ip}
    1334:	30070000 	andcc	r0, r7, r0
    1338:	00002c10 	andeq	r2, r0, r0, lsl ip
    133c:	af150400 	svcge	0x00150400
    1340:	07000000 	streq	r0, [r0, -r0]
    1344:	002c1031 	eoreq	r1, ip, r1, lsr r0
    1348:	15050000 	strne	r0, [r5, #-0]
    134c:	00000502 	andeq	r0, r0, r2, lsl #10
    1350:	ea103207 	b	40db74 <__bss_end__+0x3e5ac4>
    1354:	06000002 	streq	r0, [r0], -r2
    1358:	002c0900 	eoreq	r0, ip, r0, lsl #18
    135c:	02fa0000 	rscseq	r0, sl, #0
    1360:	600a0000 	andvs	r0, sl, r0
    1364:	01000000 	mrseq	r0, (UNDEF: 0)
    1368:	048c0300 	streq	r0, [ip], #768	; 0x300
    136c:	33070000 	movwcc	r0, #28672	; 0x7000
    1370:	0002a803 	andeq	sl, r2, r3, lsl #16
    1374:	03160e00 	tsteq	r6, #0, 28
    1378:	07840000 	streq	r0, [r4, r0]
    137c:	d8103907 	ldmdale	r0, {r0, r1, r2, r8, fp, ip, sp}
    1380:	15000003 	strne	r0, [r0, #-3]
    1384:	00000473 	andeq	r0, r0, r3, ror r4
    1388:	75173a07 	ldrvc	r3, [r7, #-2567]	; 0xfffff5f9
    138c:	00000000 	andeq	r0, r0, r0
    1390:	00003e15 	andeq	r3, r0, r5, lsl lr
    1394:	173b0700 	ldrne	r0, [fp, -r0, lsl #14]!
    1398:	000001be 			; <UNDEFINED> instruction: 0x000001be
    139c:	03c31504 	biceq	r1, r3, #4, 10	; 0x1000000
    13a0:	3c070000 	stccc	0, cr0, [r7], {-0}
    13a4:	00007517 	andeq	r7, r0, r7, lsl r5
    13a8:	01150800 	tsteq	r5, r0, lsl #16
    13ac:	0700000b 	streq	r0, [r0, -fp]
    13b0:	0075173d 	rsbseq	r1, r5, sp, lsr r7
    13b4:	150c0000 	strne	r0, [ip, #-0]
    13b8:	00000230 	andeq	r0, r0, r0, lsr r2
    13bc:	e2173e07 	ands	r3, r7, #7, 28	; 0x70
    13c0:	10000001 	andne	r0, r0, r1
    13c4:	00081215 	andeq	r1, r8, r5, lsl r2
    13c8:	173f0700 	ldrne	r0, [pc, -r0, lsl #14]!
    13cc:	0000029c 	muleq	r0, ip, r2
    13d0:	02861514 	addeq	r1, r6, #20, 10	; 0x5000000
    13d4:	40070000 	andmi	r0, r7, r0
    13d8:	00029c17 	andeq	r9, r2, r7, lsl ip
    13dc:	5a151c00 	bpl	5483e4 <__bss_end__+0x520334>
    13e0:	07000003 	streq	r0, [r0, -r3]
    13e4:	029c1741 	addseq	r1, ip, #17039360	; 0x1040000
    13e8:	15240000 	strne	r0, [r4, #-0]!
    13ec:	000007ed 	andeq	r0, r0, sp, ror #15
    13f0:	9c174207 	lfmls	f4, 4, [r7], {7}
    13f4:	2c000002 	stccs	0, cr0, [r0], {2}
    13f8:	00083315 	andeq	r3, r8, r5, lsl r3
    13fc:	17430700 	strbne	r0, [r3, -r0, lsl #14]
    1400:	0000029c 	muleq	r0, ip, r2
    1404:	08261534 	stmdaeq	r6!, {r2, r4, r5, r8, sl, ip}
    1408:	44070000 	strmi	r0, [r7], #-0
    140c:	00029c17 	andeq	r9, r2, r7, lsl ip
    1410:	f3153c00 			; <UNDEFINED> instruction: 0xf3153c00
    1414:	07000008 	streq	r0, [r0, -r8]
    1418:	00751745 	rsbseq	r1, r5, r5, asr #14
    141c:	15440000 	strbne	r0, [r4, #-0]
    1420:	00000386 	andeq	r0, r0, r6, lsl #7
    1424:	ca174607 	bgt	5d2c48 <__bss_end__+0x5aab98>
    1428:	48000001 	stmdami	r0, {r0}
    142c:	00085515 	andeq	r5, r8, r5, lsl r5
    1430:	174a0700 	strbne	r0, [sl, -r0, lsl #14]
    1434:	0000029c 	muleq	r0, ip, r2
    1438:	0779154c 	ldrbeq	r1, [r9, -ip, asr #10]!
    143c:	4b070000 	blmi	1c1444 <__bss_end__+0x199394>
    1440:	0003d817 	andeq	sp, r3, r7, lsl r8
    1444:	09005400 	stmdbeq	r0, {sl, ip, lr}
    1448:	000002fa 	strdeq	r0, [r0], -sl
    144c:	000003e8 	andeq	r0, r0, r8, ror #7
    1450:	0000600a 	andeq	r6, r0, sl
    1454:	0300e500 	movweq	lr, #1280	; 0x500
    1458:	00000316 	andeq	r0, r0, r6, lsl r3
    145c:	06034e07 	streq	r4, [r3], -r7, lsl #28
    1460:	16000003 	strne	r0, [r0], -r3
    1464:	05200804 	streq	r0, [r0, #-2052]!	; 0xfffff7fc
    1468:	00000422 	andeq	r0, r0, r2, lsr #8
    146c:	000fa017 	andeq	sl, pc, r7, lsl r0	; <UNPREDICTABLE>
    1470:	0e210800 	cdpeq	8, 2, cr0, cr1, cr0, {0}
    1474:	00000422 	andeq	r0, r0, r2, lsr #8
    1478:	000f7517 	andeq	r7, pc, r7, lsl r5	; <UNPREDICTABLE>
    147c:	0f220800 	svceq	0x00220800
    1480:	00000429 	andeq	r0, r0, r9, lsr #8
    1484:	000ee117 	andeq	lr, lr, r7, lsl r1
    1488:	10230800 	eorne	r0, r3, r0, lsl #16
    148c:	0000042c 	andeq	r0, r0, ip, lsr #8
    1490:	05040200 	streq	r0, [r4, #-512]	; 0xfffffe00
    1494:	000004f9 	strdeq	r0, [r0], -r9
    1498:	13190418 	tstne	r9, #24, 8	; 0x18000000
    149c:	00042b04 	andeq	r2, r4, r4, lsl #22
    14a0:	08081a00 	stmdaeq	r8, {r9, fp, ip}
    14a4:	0456091e 	ldrbeq	r0, [r6], #-2334	; 0xfffff6e2
    14a8:	8f150000 	svchi	0x00150000
    14ac:	0800000f 	stmdaeq	r0, {r0, r1, r2, r3}
    14b0:	004d091f 	subeq	r0, sp, pc, lsl r9
    14b4:	15000000 	strne	r0, [r0, #-0]
    14b8:	00000fcc 	andeq	r0, r0, ip, asr #31
    14bc:	f4072408 	vst3.8	{d2-d4}, [r7], r8
    14c0:	04000003 	streq	r0, [r0], #-3
    14c4:	101b0300 	andsne	r0, fp, r0, lsl #6
    14c8:	25080000 	strcs	r0, [r8, #-0]
    14cc:	00043203 	andeq	r3, r4, r3, lsl #4
    14d0:	0f580300 	svceq	0x00580300
    14d4:	1d090000 	stcne	0, cr0, [r9, #-0]
    14d8:	0000601c 	andeq	r6, r0, ip, lsl r0
    14dc:	10430300 	subne	r0, r3, r0, lsl #6
    14e0:	22090000 	andcs	r0, r9, #0
    14e4:	0001e817 	andeq	lr, r1, r7, lsl r8
    14e8:	0ee70300 	cdpeq	3, 14, cr0, cr7, cr0, {0}
    14ec:	250a0000 	strcs	r0, [sl, #-0]
    14f0:	0004621e 	andeq	r6, r4, lr, lsl r2
    14f4:	102d0300 	eorne	r0, sp, r0, lsl #6
    14f8:	2f0a0000 	svccs	0x000a0000
    14fc:	0004621e 	andeq	r6, r4, lr, lsl r2
    1500:	0f960300 	svceq	0x00960300
    1504:	320a0000 	andcc	r0, sl, #0
    1508:	0004621e 	andeq	r6, r4, lr, lsl r2
    150c:	0a201a00 	beq	807d14 <__bss_end__+0x7dfc64>
    1510:	05100938 	ldreq	r0, [r0, #-2360]	; 0xfffff6c8
    1514:	7b150000 	blvc	54151c <__bss_end__+0x51946c>
    1518:	0a00000f 	beq	155c <errno+0x1558>
    151c:	047a1139 	ldrbteq	r1, [sl], #-313	; 0xfffffec7
    1520:	15000000 	strne	r0, [r0, #-0]
    1524:	00000fe3 	andeq	r0, r0, r3, ror #31
    1528:	92113a0a 	andsls	r3, r1, #40960	; 0xa000
    152c:	04000004 	streq	r0, [r0], #-4
    1530:	000fff15 	andeq	pc, pc, r5, lsl pc	; <UNPREDICTABLE>
    1534:	113b0a00 	teqne	fp, r0, lsl #20
    1538:	00000486 	andeq	r0, r0, r6, lsl #9
    153c:	0f6d1508 	svceq	0x006d1508
    1540:	3c0a0000 	stccc	0, cr0, [sl], {-0}
    1544:	00048611 	andeq	r8, r4, r1, lsl r6
    1548:	f6150c00 			; <UNDEFINED> instruction: 0xf6150c00
    154c:	0a00000f 	beq	1590 <errno+0x158c>
    1550:	047a113d 	ldrbteq	r1, [sl], #-317	; 0xfffffec3
    1554:	15100000 	ldrne	r0, [r0, #-0]
    1558:	00000f50 	andeq	r0, r0, r0, asr pc
    155c:	7a113e0a 	bvc	450d8c <__bss_end__+0x428cdc>
    1560:	14000004 	strne	r0, [r0], #-4
    1564:	000fc415 	andeq	ip, pc, r5, lsl r4	; <UNPREDICTABLE>
    1568:	113f0a00 	teqne	pc, r0, lsl #20
    156c:	0000047a 	andeq	r0, r0, sl, ror r4
    1570:	10131518 	andsne	r1, r3, r8, lsl r5
    1574:	400a0000 	andmi	r0, sl, r0
    1578:	00047a11 	andeq	r7, r4, r1, lsl sl
    157c:	03001c00 	movweq	r1, #3072	; 0xc00
    1580:	00000fa6 	andeq	r0, r0, r6, lsr #31
    1584:	9e03410a 	adflss	f4, f3, #2.0
    1588:	03000004 	movweq	r0, #4
    158c:	00000fb1 			; <UNDEFINED> instruction: 0x00000fb1
    1590:	10140b0b 	andsne	r0, r4, fp, lsl #22
    1594:	03000005 	movweq	r0, #5
    1598:	00000ed8 	ldrdeq	r0, [r0], -r8
    159c:	86140c0b 	ldrhi	r0, [r4], -fp, lsl #24
    15a0:	09000004 	stmdbeq	r0, {r2}
    15a4:	00000060 	andeq	r0, r0, r0, rrx
    15a8:	0000053f 	andeq	r0, r0, pc, lsr r5
    15ac:	8212001b 	andshi	r0, r2, #27
    15b0:	0100000f 	tsteq	r0, pc
    15b4:	05341514 	ldreq	r1, [r4, #-1300]!	; 0xfffffaec
    15b8:	38120000 	ldmdacc	r2, {}	; <UNPREDICTABLE>
    15bc:	01000010 	tsteq	r0, r0, lsl r0
    15c0:	05341515 	ldreq	r1, [r4, #-1301]!	; 0xfffffaeb
    15c4:	07120000 	ldreq	r0, [r2, -r0]
    15c8:	01000010 	tsteq	r0, r0, lsl r0
    15cc:	05341516 	ldreq	r1, [r4, #-1302]!	; 0xfffffaea
    15d0:	ec120000 	ldc	0, cr0, [r2], {-0}
    15d4:	0100000f 	tsteq	r0, pc
    15d8:	05341517 	ldreq	r1, [r4, #-1303]!	; 0xfffffae9
    15dc:	d11c0000 	tstle	ip, r0
    15e0:	0100000f 	tsteq	r0, pc
    15e4:	08400625 	stmdaeq	r0, {r0, r2, r5, r9, sl}^
    15e8:	017c0001 	cmneq	ip, r1
    15ec:	9c010000 	stcls	0, cr0, [r1], {-0}
    15f0:	00000622 	andeq	r0, r0, r2, lsr #12
    15f4:	000fba1d 	andeq	fp, pc, sp, lsl sl	; <UNPREDICTABLE>
    15f8:	27250100 	strcs	r0, [r5, -r0, lsl #2]!
    15fc:	00000622 	andeq	r0, r0, r2, lsr #12
    1600:	7efc9103 	nrmvce	f1, f3
    1604:	000f8308 	andeq	r8, pc, r8, lsl #6
    1608:	1b270100 	blne	9c1a10 <__bss_end__+0x999960>
    160c:	0000046e 	andeq	r0, r0, lr, ror #8
    1610:	08749102 	ldmdaeq	r4!, {r1, r8, ip, pc}^
    1614:	00001039 	andeq	r1, r0, r9, lsr r0
    1618:	6e1b2801 	cdpvs	8, 1, cr2, cr11, cr1, {0}
    161c:	02000004 	andeq	r0, r0, #4
    1620:	08087091 	stmdaeq	r8, {r0, r4, r7, ip, sp, lr}
    1624:	01000010 	tsteq	r0, r0, lsl r0
    1628:	046e1b29 	strbteq	r1, [lr], #-2857	; 0xfffff4d7
    162c:	91020000 	mrsls	r0, (UNDEF: 2)
    1630:	0fed086c 	svceq	0x00ed086c
    1634:	2a010000 	bcs	4163c <__bss_end__+0x1958c>
    1638:	00046e1b 	andeq	r6, r4, fp, lsl lr
    163c:	68910200 	ldmvs	r1, {r9}
    1640:	00102208 	andseq	r2, r0, r8, lsl #4
    1644:	0e3b0100 	rsfeqe	f0, f3, f0
    1648:	0000051c 	andeq	r0, r0, ip, lsl r5
    164c:	1a489102 	bne	1225a5c <__bss_end__+0x11fd9ac>
    1650:	05450148 	strbeq	r0, [r5, #-328]	; 0xfffffeb8
    1654:	00000611 	andeq	r0, r0, r1, lsl r6
    1658:	00129015 	andseq	r9, r2, r5, lsl r0
    165c:	1b460100 	blne	1181a64 <__bss_end__+0x11599b4>
    1660:	00000638 	andeq	r0, r0, r8, lsr r6
    1664:	11061500 	tstne	r6, r0, lsl #10
    1668:	47010000 	strmi	r0, [r1, -r0]
    166c:	0006381b 	andeq	r3, r6, fp, lsl r8
    1670:	eb150800 	bl	543678 <__bss_end__+0x51b5c8>
    1674:	01000011 	tsteq	r0, r1, lsl r0
    1678:	06541048 	ldrbeq	r1, [r4], -r8, asr #32
    167c:	00100000 	andseq	r0, r0, r0
    1680:	000fbf08 	andeq	fp, pc, r8, lsl #30
    1684:	07490100 	strbeq	r0, [r9, -r0, lsl #2]
    1688:	000005e0 	andeq	r0, r0, r0, ror #11
    168c:	7f809103 	svcvc	0x00809103
    1690:	e8041300 	stmda	r4, {r8, r9, ip}
    1694:	09000003 	stmdbeq	r0, {r0, r1}
    1698:	00000643 	andeq	r0, r0, r3, asr #12
    169c:	00000638 	andeq	r0, r0, r8, lsr r6
    16a0:	0000600a 	andeq	r6, r0, sl
    16a4:	07000100 	streq	r0, [r0, -r0, lsl #2]
    16a8:	00000628 	andeq	r0, r0, r8, lsr #12
    16ac:	064f0413 			; <UNDEFINED> instruction: 0x064f0413
    16b0:	3d070000 	stccc	0, cr0, [r7, #-0]
    16b4:	02000006 	andeq	r0, r0, #6
    16b8:	08800801 	stmeq	r0, {r0, fp}
    16bc:	48070000 	stmdami	r7, {}	; <UNPREDICTABLE>
    16c0:	1e000006 	cdpne	0, 0, cr0, cr0, cr6, {0}
    16c4:	00000456 	andeq	r0, r0, r6, asr r4
    16c8:	0000600a 	andeq	r6, r0, sl
    16cc:	00000600 	andeq	r0, r0, r0, lsl #12
    16d0:	0000114f 	andeq	r1, r0, pc, asr #2
    16d4:	05d70004 	ldrbeq	r0, [r7, #4]
    16d8:	01040000 	mrseq	r0, (UNDEF: 4)
    16dc:	00000c87 	andeq	r0, r0, r7, lsl #25
    16e0:	0013480c 	andseq	r4, r3, ip, lsl #16
    16e4:	000da000 	andeq	sl, sp, r0
    16e8:	0109bc00 	tsteq	r9, r0, lsl #24
    16ec:	000eec00 	andeq	lr, lr, r0, lsl #24
    16f0:	000b0d00 	andeq	r0, fp, r0, lsl #26
    16f4:	06010200 	streq	r0, [r1], -r0, lsl #4
    16f8:	00000879 	andeq	r0, r0, r9, ror r8
    16fc:	99050202 	stmdbls	r5, {r1, r9}
    1700:	03000006 	movweq	r0, #6
    1704:	6e690504 	cdpvs	5, 6, cr0, cr9, cr4, {0}
    1708:	08020074 	stmdaeq	r2, {r2, r4, r5, r6}
    170c:	0004f405 	andeq	pc, r4, r5, lsl #8
    1710:	08010200 	stmdaeq	r1, {r9}
    1714:	00000877 	andeq	r0, r0, r7, ror r8
    1718:	84070202 	strhi	r0, [r7], #-514	; 0xfffffdfe
    171c:	04000009 	streq	r0, [r0], #-9
    1720:	00000f58 	andeq	r0, r0, r8, asr pc
    1724:	5b1c1d06 	blpl	708b44 <__bss_end__+0x6e0a94>
    1728:	02000000 	andeq	r0, r0, #0
    172c:	02be0704 	adcseq	r0, lr, #4, 14	; 0x100000
    1730:	08020000 	stmdaeq	r2, {}	; <UNPREDICTABLE>
    1734:	0002b407 	andeq	fp, r2, r7, lsl #8
    1738:	05040200 	streq	r0, [r4, #-512]	; 0xfffffe00
    173c:	000004f9 	strdeq	r0, [r0], -r9
    1740:	00104304 	andseq	r4, r0, r4, lsl #6
    1744:	17220600 	strne	r0, [r2, -r0, lsl #12]!
    1748:	0000007c 	andeq	r0, r0, ip, ror r0
    174c:	b9070402 	stmdblt	r7, {r1, sl}
    1750:	04000002 	streq	r0, [r0], #-2
    1754:	000010c5 	andeq	r1, r0, r5, asr #1
    1758:	701f1107 	andsvc	r1, pc, r7, lsl #2
    175c:	04000000 	streq	r0, [r0], #-0
    1760:	00000970 	andeq	r0, r0, r0, ror r9
    1764:	41252608 			; <UNDEFINED> instruction: 0x41252608
    1768:	04000000 	streq	r0, [r0], #-0
    176c:	000002e8 	andeq	r0, r0, r8, ror #5
    1770:	5b253d08 	blpl	950b98 <__bss_end__+0x928ae8>
    1774:	04000000 	streq	r0, [r0], #-0
    1778:	00000226 	andeq	r0, r0, r6, lsr #4
    177c:	9b157108 	blls	55dba4 <__bss_end__+0x535af4>
    1780:	04000000 	streq	r0, [r0], #-0
    1784:	0000053e 	andeq	r0, r0, lr, lsr r5
    1788:	a7138008 	ldrge	r8, [r3, -r8]
    178c:	05000000 	streq	r0, [r0, #-0]
    1790:	00330405 	eorseq	r0, r3, r5, lsl #8
    1794:	11160000 	tstne	r6, r0
    1798:	00012b0e 	andeq	r2, r1, lr, lsl #22
    179c:	02f40600 	rscseq	r0, r4, #0, 12
    17a0:	067f0000 	ldrbteq	r0, [pc], -r0
    17a4:	0000016c 	andeq	r0, r0, ip, ror #2
    17a8:	0219067e 	andseq	r0, r9, #132120576	; 0x7e00000
    17ac:	067d0000 	ldrbteq	r0, [sp], -r0
    17b0:	00000868 	andeq	r0, r0, r8, ror #16
    17b4:	09ac067c 	stmibeq	ip!, {r2, r3, r4, r5, r6, r9, sl}
    17b8:	067b0000 	ldrbteq	r0, [fp], -r0
    17bc:	00000666 	andeq	r0, r0, r6, ror #12
    17c0:	014e067a 	hvceq	57450	; 0xe06a
    17c4:	06790000 	ldrbteq	r0, [r9], -r0
    17c8:	00000554 	andeq	r0, r0, r4, asr r5
    17cc:	06f80678 			; <UNDEFINED> instruction: 0x06f80678
    17d0:	06770000 	ldrbteq	r0, [r7], -r0
    17d4:	00000b2a 	andeq	r0, r0, sl, lsr #22
    17d8:	03d70676 	bicseq	r0, r7, #123731968	; 0x7600000
    17dc:	06750000 	ldrbteq	r0, [r5], -r0
    17e0:	000006a3 	andeq	r0, r0, r3, lsr #13
    17e4:	00b80674 	adcseq	r0, r8, r4, ror r6
    17e8:	06730000 	ldrbteq	r0, [r3], -r0
    17ec:	00000136 	andeq	r0, r0, r6, lsr r1
    17f0:	05630772 	strbeq	r0, [r3, #-1906]!	; 0xfffff88e
    17f4:	ffff0000 			; <UNDEFINED> instruction: 0xffff0000
    17f8:	08007fff 	stmdaeq	r0, {r0, r1, r2, r3, r4, r5, r6, r7, r8, r9, sl, fp, ip, sp, lr}
    17fc:	000003cc 	andeq	r0, r0, ip, asr #7
    1800:	005b0407 	subseq	r0, fp, r7, lsl #8
    1804:	08090000 	stmdaeq	r9, {}	; <UNPREDICTABLE>
    1808:	0001620e 	andeq	r6, r1, lr, lsl #4
    180c:	09de0900 	ldmibeq	lr, {r8, fp}^
    1810:	09000000 	stmdbeq	r0, {}	; <UNPREDICTABLE>
    1814:	0000020a 	andeq	r0, r0, sl, lsl #4
    1818:	06d80901 	ldrbeq	r0, [r8], r1, lsl #18
    181c:	09020000 	stmdbeq	r2, {}	; <UNPREDICTABLE>
    1820:	0000064e 	andeq	r0, r0, lr, asr #12
    1824:	09f10903 	ldmibeq	r1!, {r0, r1, r8, fp}^
    1828:	09040000 	stmdbeq	r4, {}	; <UNPREDICTABLE>
    182c:	000008d7 	ldrdeq	r0, [r0], -r7
    1830:	45040005 	strmi	r0, [r4, #-5]
    1834:	0900000b 	stmdbeq	r0, {r0, r1, r3}
    1838:	012b0313 			; <UNDEFINED> instruction: 0x012b0313
    183c:	620a0000 	andvs	r0, sl, #0
    1840:	0b000001 	bleq	184c <errno+0x1848>
    1844:	000003e9 	andeq	r0, r0, r9, ror #7
    1848:	6e591509 	cdpvs	5, 5, cr1, cr9, cr9, {0}
    184c:	05000001 	streq	r0, [r0, #-1]
    1850:	00000003 	andeq	r0, r0, r3
    1854:	0d930800 	ldceq	8, cr0, [r3]
    1858:	04070000 	streq	r0, [r7], #-0
    185c:	0000005b 	andeq	r0, r0, fp, asr r0
    1860:	a40e090a 	strge	r0, [lr], #-2314	; 0xfffff6f6
    1864:	09000001 	stmdbeq	r0, {r0}
    1868:	00000bb6 			; <UNDEFINED> instruction: 0x00000bb6
    186c:	0c5c0905 	mrrceq	9, 0, r0, ip, cr5	; <UNPREDICTABLE>
    1870:	00060000 	andeq	r0, r6, r0
    1874:	000c3308 	andeq	r3, ip, r8, lsl #6
    1878:	5b040700 	blpl	103480 <__bss_end__+0xdb3d0>
    187c:	0b000000 	bleq	1884 <errno+0x1880>
    1880:	01c90634 	biceq	r0, r9, r4, lsr r6
    1884:	09090000 	stmdbeq	r9, {}	; <UNPREDICTABLE>
    1888:	0700000c 	streq	r0, [r0, -ip]
    188c:	000bf409 	andeq	pc, fp, r9, lsl #8
    1890:	52090200 	andpl	r0, r9, #0, 4
    1894:	7800000d 	stmdavc	r0, {r0, r2, r3}
    1898:	009b0c00 	addseq	r0, fp, r0, lsl #24
    189c:	01d90000 	bicseq	r0, r9, r0
    18a0:	5b0d0000 	blpl	3418a8 <__bss_end__+0x3197f8>
    18a4:	00000000 	andeq	r0, r0, r0
    18a8:	040d0e00 	streq	r0, [sp], #-3584	; 0xfffff200
    18ac:	0c040000 	stceq	0, cr0, [r4], {-0}
    18b0:	f6080138 			; <UNDEFINED> instruction: 0xf6080138
    18b4:	0f000001 	svceq	0x00000001
    18b8:	0000033a 	andeq	r0, r0, sl, lsr r3
    18bc:	1101390c 	tstne	r1, ip, lsl #18
    18c0:	000001c9 	andeq	r0, r0, r9, asr #3
    18c4:	73100000 	tstvc	r0, #0
    18c8:	0c000002 	stceq	0, cr0, [r0], {2}
    18cc:	d921013b 	stmdble	r1!, {r0, r1, r3, r4, r5, r8}
    18d0:	11000001 	tstne	r0, r1
    18d4:	0000005c 	andeq	r0, r0, ip, asr r0
    18d8:	0b0d0200 	bleq	3420e0 <__bss_end__+0x31a030>
    18dc:	00027210 	andeq	r7, r2, r0, lsl r2
    18e0:	61741200 	cmnvs	r4, r0, lsl #4
    18e4:	0c0d0067 	stceq	0, cr0, [sp], {103}	; 0x67
    18e8:	0001f618 	andeq	pc, r1, r8, lsl r6	; <UNPREDICTABLE>
    18ec:	6d120000 	ldcvs	0, cr0, [r2, #-0]
    18f0:	0d006773 	stceq	7, cr6, [r0, #-460]	; 0xfffffe34
    18f4:	02720f0d 	rsbseq	r0, r2, #13, 30	; 0x34
    18f8:	13040000 	movwne	r0, #16384	; 0x4000
    18fc:	0000097b 	andeq	r0, r0, fp, ror r9
    1900:	a70f0e0d 	strge	r0, [pc, -sp, lsl #28]
    1904:	e4000000 	str	r0, [r0], #-0
    1908:	04af1301 	strteq	r1, [pc], #769	; 1910 <errno+0x190c>
    190c:	0f0d0000 	svceq	0x000d0000
    1910:	0002820f 	andeq	r8, r2, pc, lsl #4
    1914:	1301e800 	movwne	lr, #6144	; 0x1800
    1918:	00000607 	andeq	r0, r0, r7, lsl #12
    191c:	b30f100d 	movwlt	r1, #61453	; 0xf00d
    1920:	f4000000 	vst4.8	{d0-d3}, [r0], r0
    1924:	06cb1301 	strbeq	r1, [fp], r1, lsl #6
    1928:	110d0000 	mrsne	r0, (UNDEF: 13)
    192c:	0000b30f 	andeq	fp, r0, pc, lsl #6
    1930:	1301f800 	movwne	pc, #6144	; 0x1800	; <UNPREDICTABLE>
    1934:	00000af4 	strdeq	r0, [r0], -r4
    1938:	a70f120d 	strge	r1, [pc, -sp, lsl #4]
    193c:	fc000000 	stc2	0, cr0, [r0], {-0}
    1940:	a70c0001 	strge	r0, [ip, -r1]
    1944:	82000000 	andhi	r0, r0, #0
    1948:	0d000002 	stceq	0, cr0, [r0, #-8]
    194c:	0000005b 	andeq	r0, r0, fp, asr r0
    1950:	a70c0077 	smlsdxge	ip, r7, r0, r0
    1954:	92000000 	andls	r0, r0, #0
    1958:	0d000002 	stceq	0, cr0, [r0, #-8]
    195c:	0000005b 	andeq	r0, r0, fp, asr r0
    1960:	27140002 	ldrcs	r0, [r4, -r2]
    1964:	0d000001 	stceq	0, cr0, [r0, #-4]
    1968:	02030313 	andeq	r0, r3, #1275068416	; 0x4c000000
    196c:	02000000 	andeq	r0, r0, #0
    1970:	0006ec04 	andeq	lr, r6, r4, lsl #24
    1974:	131f0e00 	tstne	pc, #0, 28
    1978:	000000a7 	andeq	r0, r0, r7, lsr #1
    197c:	00036a04 	andeq	r6, r3, r4, lsl #20
    1980:	13210e00 			; <UNDEFINED> instruction: 0x13210e00
    1984:	000000a7 	andeq	r0, r0, r7, lsr #1
    1988:	00026115 	andeq	r6, r2, r5, lsl r1
    198c:	210d0100 	mrscs	r0, (UNDEF: 29)
    1990:	000002c4 	andeq	r0, r0, r4, asr #5
    1994:	02920416 	addseq	r0, r2, #369098752	; 0x16000000
    1998:	4c080000 	stcmi	0, cr0, [r8], {-0}
    199c:	0700000e 	streq	r0, [r0, -lr]
    19a0:	00005b04 	andeq	r5, r0, r4, lsl #22
    19a4:	060e0f00 	streq	r0, [lr], -r0, lsl #30
    19a8:	00000397 	muleq	r0, r7, r3
    19ac:	0001c809 	andeq	ip, r1, r9, lsl #16
    19b0:	8a090000 	bhi	2419b8 <__bss_end__+0x219908>
    19b4:	0100000b 	tsteq	r0, fp
    19b8:	0002cb09 	andeq	ip, r2, r9, lsl #22
    19bc:	87090200 	strhi	r0, [r9, -r0, lsl #4]
    19c0:	03000006 	movweq	r0, #6
    19c4:	0007aa09 	andeq	sl, r7, r9, lsl #20
    19c8:	fd090400 	stc2	4, cr0, [r9, #-0]
    19cc:	05000001 	streq	r0, [r0, #-1]
    19d0:	0006bc09 	andeq	fp, r6, r9, lsl #24
    19d4:	50090600 	andpl	r0, r9, r0, lsl #12
    19d8:	07000002 	streq	r0, [r0, -r2]
    19dc:	00018909 	andeq	r8, r1, r9, lsl #18
    19e0:	0a090800 	beq	2439e8 <__bss_end__+0x21b938>
    19e4:	09000001 	stmdbeq	r0, {r0}
    19e8:	00062609 	andeq	r2, r6, r9, lsl #12
    19ec:	02090a00 	andeq	r0, r9, #0, 20
    19f0:	0b000004 	bleq	1a08 <errno+0x1a04>
    19f4:	0007a009 	andeq	sl, r7, r9
    19f8:	17090c00 	strne	r0, [r9, -r0, lsl #24]
    19fc:	0d000007 	stceq	0, cr0, [r0, #-28]	; 0xffffffe4
    1a00:	0005b109 	andeq	fp, r5, r9, lsl #2
    1a04:	55090e00 	strpl	r0, [r9, #-3584]	; 0xfffff200
    1a08:	0f00000b 	svceq	0x0000000b
    1a0c:	00099709 	andeq	r9, r9, r9, lsl #14
    1a10:	dc091000 	stcle	0, cr1, [r9], {-0}
    1a14:	11000002 	tstne	r0, r2
    1a18:	00059a09 	andeq	r9, r5, r9, lsl #20
    1a1c:	80091200 	andhi	r1, r9, r0, lsl #4
    1a20:	1300000b 	movwne	r0, #11
    1a24:	0002aa09 	andeq	sl, r2, r9, lsl #20
    1a28:	5c091400 	cfstrspl	mvf1, [r9], {-0}
    1a2c:	15000001 	strne	r0, [r0, #-1]
    1a30:	00072b09 	andeq	r2, r7, r9, lsl #22
    1a34:	4e091600 	cfmadd32mi	mvax0, mvfx1, mvfx9, mvfx0
    1a38:	17000003 	strne	r0, [r0, -r3]
    1a3c:	00029a09 	andeq	r9, r2, r9, lsl #20
    1a40:	a8091800 	stmdage	r9, {fp, ip}
    1a44:	19000003 	stmdbne	r0, {r0, r1}
    1a48:	00095409 	andeq	r5, r9, r9, lsl #8
    1a4c:	97091a00 	strls	r1, [r9, -r0, lsl #20]
    1a50:	1b000003 	blne	1a64 <errno+0x1a60>
    1a54:	00067409 	andeq	r7, r6, r9, lsl #8
    1a58:	7d091c00 	stcvc	12, cr1, [r9, #-0]
    1a5c:	1d000005 	stcne	0, cr0, [r0, #-20]	; 0xffffffec
    1a60:	00006c09 	andeq	r6, r0, r9, lsl #24
    1a64:	08001e00 	stmdaeq	r0, {r9, sl, fp, ip}
    1a68:	00000e42 	andeq	r0, r0, r2, asr #28
    1a6c:	005b0407 	subseq	r0, fp, r7, lsl #8
    1a70:	0e100000 	cdpeq	0, 1, cr0, cr0, cr0, {0}
    1a74:	0003c806 	andeq	ip, r3, r6, lsl #16
    1a78:	0be40900 	bleq	ff903e80 <__bss_end__+0xff8dbdd0>
    1a7c:	091e0000 	ldmdbeq	lr, {}	; <UNPREDICTABLE>
    1a80:	00000d7e 	andeq	r0, r0, lr, ror sp
    1a84:	0d64091f 			; <UNDEFINED> instruction: 0x0d64091f
    1a88:	09200000 	stmdbeq	r0!, {}	; <UNPREDICTABLE>
    1a8c:	00000c1c 	andeq	r0, r0, ip, lsl ip
    1a90:	0c420921 	mcrreq	9, 2, r0, r2, cr1	; <UNPREDICTABLE>
    1a94:	00220000 	eoreq	r0, r2, r0
    1a98:	00007e08 	andeq	r7, r0, r8, lsl #28
    1a9c:	5b040700 	blpl	1036a4 <__bss_end__+0xdb5f4>
    1aa0:	11000000 	mrsne	r0, (UNDEF: 0)
    1aa4:	0441060e 	strbeq	r0, [r1], #-1550	; 0xfffff9f2
    1aa8:	1a090000 	bne	241ab0 <__bss_end__+0x219a00>
    1aac:	00000001 	andeq	r0, r0, r1
    1ab0:	00023a09 	andeq	r3, r2, r9, lsl #20
    1ab4:	be090100 	adflte	f0, f1, f0
    1ab8:	02000004 	andeq	r0, r0, #4
    1abc:	00019b09 	andeq	r9, r1, r9, lsl #22
    1ac0:	e1090300 	mrs	r0, (UNDEF: 57)
    1ac4:	04000004 	streq	r0, [r0], #-4
    1ac8:	0001b409 	andeq	fp, r1, r9, lsl #8
    1acc:	0f090500 	svceq	0x00090500
    1ad0:	0600000b 	streq	r0, [r0], -fp
    1ad4:	00083f09 	andeq	r3, r8, r9, lsl #30
    1ad8:	8a090700 	bhi	2436e0 <__bss_end__+0x21b630>
    1adc:	08000005 	stmdaeq	r0, {r0, r2}
    1ae0:	0009c309 	andeq	ip, r9, r9, lsl #6
    1ae4:	d1090900 	tstle	r9, r0, lsl #18
    1ae8:	0a000007 	beq	1b0c <errno+0x1b08>
    1aec:	0001e309 	andeq	lr, r1, r9, lsl #6
    1af0:	3d090b00 	vstrcc	d0, [r9, #-0]
    1af4:	0c000004 	stceq	0, cr0, [r0], {4}
    1af8:	00089909 	andeq	r9, r8, r9, lsl #18
    1afc:	fd090d00 	stc2	13, cr0, [r9, #-0]
    1b00:	0e000007 	cdpeq	0, 0, cr0, cr0, cr7, {0}
    1b04:	000b7409 	andeq	r7, fp, r9, lsl #8
    1b08:	c3090f00 	movwgt	r0, #40704	; 0x9f00
    1b0c:	10000008 	andne	r0, r0, r8
    1b10:	05130400 	ldreq	r0, [r3, #-1024]	; 0xfffffc00
    1b14:	27110000 	ldrcs	r0, [r1, -r0]
    1b18:	0000a713 	andeq	sl, r0, r3, lsl r7
    1b1c:	047c1700 	ldrbteq	r1, [ip], #-1792	; 0xfffff900
    1b20:	11080000 	mrsne	r0, (UNDEF: 8)
    1b24:	04751029 	ldrbteq	r1, [r5], #-41	; 0xffffffd7
    1b28:	89180000 	ldmdbhi	r8, {}	; <UNPREDICTABLE>
    1b2c:	1100000f 	tstne	r0, pc
    1b30:	0441122a 	strbeq	r1, [r1], #-554	; 0xfffffdd6
    1b34:	12000000 	andne	r0, r0, #0
    1b38:	00646e65 	rsbeq	r6, r4, r5, ror #28
    1b3c:	41122b11 	tstmi	r2, r1, lsl fp
    1b40:	04000004 	streq	r0, [r0], #-4
    1b44:	047c0400 	ldrbteq	r0, [ip], #-1024	; 0xfffffc00
    1b48:	2c110000 	ldccs	0, cr0, [r1], {-0}
    1b4c:	00044d03 	andeq	r4, r4, r3, lsl #26
    1b50:	048c1700 	streq	r1, [ip], #1792	; 0x700
    1b54:	11080000 	mrsne	r0, (UNDEF: 8)
    1b58:	04c3102e 	strbeq	r1, [r3], #46	; 0x2e
    1b5c:	6f180000 	svcvs	0x00180000
    1b60:	1100000f 	tstne	r0, pc
    1b64:	00a7102f 	adceq	r1, r7, pc, lsr #32
    1b68:	18000000 	stmdane	r0, {}	; <UNPREDICTABLE>
    1b6c:	00000922 	andeq	r0, r0, r2, lsr #18
    1b70:	8f103011 	svchi	0x00103011
    1b74:	04000000 	streq	r0, [r0], #-0
    1b78:	0000af18 	andeq	sl, r0, r8, lsl pc
    1b7c:	10311100 	eorsne	r1, r1, r0, lsl #2
    1b80:	0000008f 	andeq	r0, r0, pc, lsl #1
    1b84:	05021805 	streq	r1, [r2, #-2053]	; 0xfffff7fb
    1b88:	32110000 	andscc	r0, r1, #0
    1b8c:	0004c310 	andeq	ip, r4, r0, lsl r3
    1b90:	0c000600 	stceq	6, cr0, [r0], {-0}
    1b94:	0000008f 	andeq	r0, r0, pc, lsl #1
    1b98:	000004d3 	ldrdeq	r0, [r0], -r3
    1b9c:	00005b0d 	andeq	r5, r0, sp, lsl #22
    1ba0:	04000100 	streq	r0, [r0], #-256	; 0xffffff00
    1ba4:	0000048c 	andeq	r0, r0, ip, lsl #9
    1ba8:	81033311 	tsthi	r3, r1, lsl r3
    1bac:	11000004 	tstne	r0, r4
    1bb0:	00000316 	andeq	r0, r0, r6, lsl r3
    1bb4:	39110784 	ldmdbcc	r1, {r2, r7, r8, r9, sl}
    1bb8:	0005b110 	andeq	fp, r5, r0, lsl r1
    1bbc:	04731800 	ldrbteq	r1, [r3], #-2048	; 0xfffff800
    1bc0:	3a110000 	bcc	441bc8 <__bss_end__+0x419b18>
    1bc4:	0000a717 	andeq	sl, r0, r7, lsl r7
    1bc8:	3e180000 	cdpcc	0, 1, cr0, cr8, cr0, {0}
    1bcc:	11000000 	mrsne	r0, (UNDEF: 0)
    1bd0:	02a0173b 	adceq	r1, r0, #15466496	; 0xec0000
    1bd4:	18040000 	stmdane	r4, {}	; <UNPREDICTABLE>
    1bd8:	000003c3 	andeq	r0, r0, r3, asr #7
    1bdc:	a7173c11 			; <UNDEFINED> instruction: 0xa7173c11
    1be0:	08000000 	stmdaeq	r0, {}	; <UNPREDICTABLE>
    1be4:	000b0118 	andeq	r0, fp, r8, lsl r1
    1be8:	173d1100 	ldrne	r1, [sp, -r0, lsl #2]!
    1bec:	000000a7 	andeq	r0, r0, r7, lsr #1
    1bf0:	0230180c 	eorseq	r1, r0, #12, 16	; 0xc0000
    1bf4:	3e110000 	cdpcc	0, 1, cr0, cr1, cr0, {0}
    1bf8:	0002c417 	andeq	ip, r2, r7, lsl r4
    1bfc:	12181000 	andsne	r1, r8, #0
    1c00:	11000008 	tstne	r0, r8
    1c04:	0475173f 	ldrbteq	r1, [r5], #-1855	; 0xfffff8c1
    1c08:	18140000 	ldmdane	r4, {}	; <UNPREDICTABLE>
    1c0c:	00000286 	andeq	r0, r0, r6, lsl #5
    1c10:	75174011 	ldrvc	r4, [r7, #-17]	; 0xffffffef
    1c14:	1c000004 	stcne	0, cr0, [r0], {4}
    1c18:	00035a18 	andeq	r5, r3, r8, lsl sl
    1c1c:	17411100 	strbne	r1, [r1, -r0, lsl #2]
    1c20:	00000475 	andeq	r0, r0, r5, ror r4
    1c24:	07ed1824 	strbeq	r1, [sp, r4, lsr #16]!
    1c28:	42110000 	andsmi	r0, r1, #0
    1c2c:	00047517 	andeq	r7, r4, r7, lsl r5
    1c30:	33182c00 	tstcc	r8, #0, 24
    1c34:	11000008 	tstne	r0, r8
    1c38:	04751743 	ldrbteq	r1, [r5], #-1859	; 0xfffff8bd
    1c3c:	18340000 	ldmdane	r4!, {}	; <UNPREDICTABLE>
    1c40:	00000826 	andeq	r0, r0, r6, lsr #16
    1c44:	75174411 	ldrvc	r4, [r7, #-1041]	; 0xfffffbef
    1c48:	3c000004 	stccc	0, cr0, [r0], {4}
    1c4c:	0008f318 	andeq	pc, r8, r8, lsl r3	; <UNPREDICTABLE>
    1c50:	17451100 	strbne	r1, [r5, -r0, lsl #2]
    1c54:	000000a7 	andeq	r0, r0, r7, lsr #1
    1c58:	03861844 	orreq	r1, r6, #68, 16	; 0x440000
    1c5c:	46110000 	ldrmi	r0, [r1], -r0
    1c60:	0002ac17 	andeq	sl, r2, r7, lsl ip
    1c64:	55184800 	ldrpl	r4, [r8, #-2048]	; 0xfffff800
    1c68:	11000008 	tstne	r0, r8
    1c6c:	0475174a 	ldrbteq	r1, [r5], #-1866	; 0xfffff8b6
    1c70:	184c0000 	stmdane	ip, {}^	; <UNPREDICTABLE>
    1c74:	00000779 	andeq	r0, r0, r9, ror r7
    1c78:	b1174b11 	tstlt	r7, r1, lsl fp
    1c7c:	54000005 	strpl	r0, [r0], #-5
    1c80:	04d30c00 	ldrbeq	r0, [r3], #3072	; 0xc00
    1c84:	05c10000 	strbeq	r0, [r1]
    1c88:	5b0d0000 	blpl	341c90 <__bss_end__+0x319be0>
    1c8c:	e5000000 	str	r0, [r0, #-0]
    1c90:	03160400 	tsteq	r6, #0, 8
    1c94:	4e110000 	cdpmi	0, 1, cr0, cr1, cr0, {0}
    1c98:	0004df03 	andeq	sp, r4, r3, lsl #30
    1c9c:	12041900 	andne	r1, r4, #0, 18
    1ca0:	05fb0520 	ldrbeq	r0, [fp, #1312]!	; 0x520
    1ca4:	a01a0000 	andsge	r0, sl, r0
    1ca8:	1200000f 	andne	r0, r0, #15
    1cac:	00690e21 	rsbeq	r0, r9, r1, lsr #28
    1cb0:	751a0000 	ldrvc	r0, [sl, #-0]
    1cb4:	1200000f 	andne	r0, r0, #15
    1cb8:	05fb0f22 	ldrbeq	r0, [fp, #3874]!	; 0xf22
    1cbc:	e11a0000 	tst	sl, r0
    1cc0:	1200000e 	andne	r0, r0, #14
    1cc4:	05fe1023 	ldrbeq	r1, [lr, #35]!	; 0x23
    1cc8:	1b000000 	blne	1cd0 <errno+0x1ccc>
    1ccc:	04161c04 	ldreq	r1, [r6], #-3076	; 0xfffff3fc
    1cd0:	000005fd 	strdeq	r0, [r0], -sp
    1cd4:	1e12081d 	mrcne	8, 0, r0, cr2, cr13, {0}
    1cd8:	00062809 	andeq	r2, r6, r9, lsl #16
    1cdc:	0f8f1800 	svceq	0x008f1800
    1ce0:	1f120000 	svcne	0x00120000
    1ce4:	00003309 	andeq	r3, r0, r9, lsl #6
    1ce8:	cc180000 	ldcgt	0, cr0, [r8], {-0}
    1cec:	1200000f 	andne	r0, r0, #15
    1cf0:	05cd0724 	strbeq	r0, [sp, #1828]	; 0x724
    1cf4:	00040000 	andeq	r0, r4, r0
    1cf8:	00101b04 	andseq	r1, r0, r4, lsl #22
    1cfc:	03251200 			; <UNDEFINED> instruction: 0x03251200
    1d00:	00000604 	andeq	r0, r0, r4, lsl #12
    1d04:	0006280a 	andeq	r2, r6, sl, lsl #16
    1d08:	10590400 	subsne	r0, r9, r0, lsl #8
    1d0c:	8e130000 	cdphi	0, 1, cr0, cr3, cr0, {0}
    1d10:	0006450e 	andeq	r4, r6, lr, lsl #10
    1d14:	06501e00 	ldrbeq	r1, [r0], -r0, lsl #28
    1d18:	331f0000 	tstcc	pc, #0
    1d1c:	00000000 	andeq	r0, r0, r0
    1d20:	00149504 	andseq	r9, r4, r4, lsl #10
    1d24:	0d9c1300 	ldceq	3, cr1, [ip]
    1d28:	0000065c 	andeq	r0, r0, ip, asr r6
    1d2c:	00003320 	andeq	r3, r0, r0, lsr #6
    1d30:	00066b00 	andeq	r6, r6, r0, lsl #22
    1d34:	00331f00 	eorseq	r1, r3, r0, lsl #30
    1d38:	04000000 	streq	r0, [r0], #-0
    1d3c:	00000ee7 	andeq	r0, r0, r7, ror #29
    1d40:	4f1e2514 	svcmi	0x001e2514
    1d44:	04000000 	streq	r0, [r0], #-0
    1d48:	0000102d 	andeq	r1, r0, sp, lsr #32
    1d4c:	4f1e2f14 	svcmi	0x001e2f14
    1d50:	04000000 	streq	r0, [r0], #-0
    1d54:	00000f96 	muleq	r0, r6, pc	; <UNPREDICTABLE>
    1d58:	4f1e3214 	svcmi	0x001e3214
    1d5c:	1d000000 	stcne	0, cr0, [r0, #-0]
    1d60:	09381420 	ldmdbeq	r8!, {r5, sl, ip}
    1d64:	00000701 	andeq	r0, r0, r1, lsl #14
    1d68:	000f7b18 	andeq	r7, pc, r8, lsl fp	; <UNPREDICTABLE>
    1d6c:	11391400 	teqne	r9, r0, lsl #8
    1d70:	0000066b 	andeq	r0, r0, fp, ror #12
    1d74:	0fe31800 	svceq	0x00e31800
    1d78:	3a140000 	bcc	501d80 <__bss_end__+0x4d9cd0>
    1d7c:	00068311 	andeq	r8, r6, r1, lsl r3
    1d80:	ff180400 			; <UNDEFINED> instruction: 0xff180400
    1d84:	1400000f 	strne	r0, [r0], #-15
    1d88:	0677113b 			; <UNDEFINED> instruction: 0x0677113b
    1d8c:	18080000 	stmdane	r8, {}	; <UNPREDICTABLE>
    1d90:	00000f6d 	andeq	r0, r0, sp, ror #30
    1d94:	77113c14 			; <UNDEFINED> instruction: 0x77113c14
    1d98:	0c000006 	stceq	0, cr0, [r0], {6}
    1d9c:	000ff618 	andeq	pc, pc, r8, lsl r6	; <UNPREDICTABLE>
    1da0:	113d1400 	teqne	sp, r0, lsl #8
    1da4:	0000066b 	andeq	r0, r0, fp, ror #12
    1da8:	0f501810 	svceq	0x00501810
    1dac:	3e140000 	cdpcc	0, 1, cr0, cr4, cr0, {0}
    1db0:	00066b11 	andeq	r6, r6, r1, lsl fp
    1db4:	c4181400 	ldrgt	r1, [r8], #-1024	; 0xfffffc00
    1db8:	1400000f 	strne	r0, [r0], #-15
    1dbc:	066b113f 			; <UNDEFINED> instruction: 0x066b113f
    1dc0:	18180000 	ldmdane	r8, {}	; <UNPREDICTABLE>
    1dc4:	00001013 	andeq	r1, r0, r3, lsl r0
    1dc8:	6b114014 	blvs	451e20 <__bss_end__+0x429d70>
    1dcc:	1c000006 	stcne	0, cr0, [r0], {6}
    1dd0:	0fa60400 	svceq	0x00a60400
    1dd4:	41140000 	tstmi	r4, r0
    1dd8:	00068f03 	andeq	r8, r6, r3, lsl #30
    1ddc:	0fb10400 	svceq	0x00b10400
    1de0:	0b150000 	bleq	541de8 <__bss_end__+0x519d38>
    1de4:	00070114 	andeq	r0, r7, r4, lsl r1
    1de8:	072a0c00 	streq	r0, [sl, -r0, lsl #24]!
    1dec:	072a0000 	streq	r0, [sl, -r0]!
    1df0:	5b210000 	blpl	841df8 <__bss_end__+0x819d48>
    1df4:	ff000000 			; <UNDEFINED> instruction: 0xff000000
    1df8:	0102003f 	tsteq	r2, pc, lsr r0
    1dfc:	00088008 	andeq	r8, r8, r8
    1e00:	072a0a00 	streq	r0, [sl, -r0, lsl #20]!
    1e04:	3d220000 	stccc	0, cr0, [r2, #-0]
    1e08:	05000013 	streq	r0, [r0, #-19]	; 0xffffffed
    1e0c:	07190d16 			; <UNDEFINED> instruction: 0x07190d16
    1e10:	05100000 	ldreq	r0, [r0, #-0]
    1e14:	02400003 	subeq	r0, r0, #3
    1e18:	05041d00 	streq	r1, [r4, #-3328]	; 0xfffff300
    1e1c:	07600919 			; <UNDEFINED> instruction: 0x07600919
    1e20:	d1180000 	tstle	r8, r0
    1e24:	05000011 	streq	r0, [r0, #-17]	; 0xffffffef
    1e28:	00701b1a 	rsbseq	r1, r0, sl, lsl fp
    1e2c:	00000000 	andeq	r0, r0, r0
    1e30:	0012f604 	andseq	pc, r2, r4, lsl #12
    1e34:	031b0500 	tsteq	fp, #0, 10
    1e38:	00000749 	andeq	r0, r0, r9, asr #14
    1e3c:	31050c1d 	tstcc	r5, sp, lsl ip
    1e40:	00079d05 	andeq	r9, r7, r5, lsl #26
    1e44:	112f1800 			; <UNDEFINED> instruction: 0x112f1800
    1e48:	32050000 	andcc	r0, r5, #0
    1e4c:	0000831c 	andeq	r8, r0, ip, lsl r3
    1e50:	2a180000 	bcs	601e58 <__bss_end__+0x5d9da8>
    1e54:	05000011 	streq	r0, [r0, #-17]	; 0xffffffef
    1e58:	00831c33 	addeq	r1, r3, r3, lsr ip
    1e5c:	18040000 	stmdane	r4, {}	; <UNPREDICTABLE>
    1e60:	000010f2 	strdeq	r1, [r0], -r2
    1e64:	9d133405 	cfldrsls	mvf3, [r3, #-20]	; 0xffffffec
    1e68:	08000007 	stmdaeq	r0, {r0, r1, r2}
    1e6c:	0d041600 	stceq	6, cr1, [r4, #-0]
    1e70:	1d000007 	stcne	0, cr0, [r0, #-28]	; 0xffffffe4
    1e74:	05380518 	ldreq	r0, [r8, #-1304]!	; 0xfffffae8
    1e78:	000007fb 	strdeq	r0, [r0], -fp
    1e7c:	00126618 	andseq	r6, r2, r8, lsl r6
    1e80:	0f3a0500 	svceq	0x003a0500
    1e84:	000005fb 	strdeq	r0, [r0], -fp
    1e88:	11241800 			; <UNDEFINED> instruction: 0x11241800
    1e8c:	3c050000 	stccc	0, cr0, [r5], {-0}
    1e90:	0000831c 	andeq	r8, r0, ip, lsl r3
    1e94:	4a180400 	bmi	602e9c <__bss_end__+0x5dadec>
    1e98:	05000011 	streq	r0, [r0, #-17]	; 0xffffffef
    1e9c:	00831c3e 	addeq	r1, r3, lr, lsr ip
    1ea0:	18080000 	stmdane	r8, {}	; <UNPREDICTABLE>
    1ea4:	00001423 	andeq	r1, r0, r3, lsr #8
    1ea8:	831c4005 	tsthi	ip, #5
    1eac:	0c000000 	stceq	0, cr0, [r0], {-0}
    1eb0:	00101518 	andseq	r1, r0, r8, lsl r5
    1eb4:	1c420500 	cfstr64ne	mvdx0, [r2], {-0}
    1eb8:	00000083 	andeq	r0, r0, r3, lsl #1
    1ebc:	0fe51810 	svceq	0x00e51810
    1ec0:	44050000 	strmi	r0, [r5], #-0
    1ec4:	0000831c 	andeq	r8, r0, ip, lsl r3
    1ec8:	1d001400 	cfstrsne	mvf1, [r0, #-0]
    1ecc:	081e0550 	ldmdaeq	lr, {r4, r6, r8, sl}
    1ed0:	000008ae 	andeq	r0, r0, lr, lsr #17
    1ed4:	00148818 	andseq	r8, r4, r8, lsl r8
    1ed8:	111f0500 	tstne	pc, r0, lsl #10
    1edc:	000008ae 	andeq	r0, r0, lr, lsr #17
    1ee0:	11411800 	cmpne	r1, r0, lsl #16
    1ee4:	22050000 	andcs	r0, r5, #0
    1ee8:	0008b914 	andeq	fp, r8, r4, lsl r9
    1eec:	c2180400 	andsgt	r0, r8, #0, 8
    1ef0:	05000011 	streq	r0, [r0, #-17]	; 0xffffffef
    1ef4:	00701b2c 	rsbseq	r1, r0, ip, lsr #22
    1ef8:	18080000 	stmdane	r8, {}	; <UNPREDICTABLE>
    1efc:	000014bc 			; <UNDEFINED> instruction: 0x000014bc
    1f00:	b30f2d05 	movwlt	r2, #64773	; 0xfd05
    1f04:	0c000000 	stceq	0, cr0, [r0], {-0}
    1f08:	0010d818 	andseq	sp, r0, r8, lsl r8
    1f0c:	152e0500 	strne	r0, [lr, #-1280]!	; 0xfffffb00
    1f10:	000002c4 	andeq	r0, r0, r4, asr #5
    1f14:	119b1810 	orrsne	r1, fp, r0, lsl r8
    1f18:	35050000 	strcc	r0, [r5, #-0]
    1f1c:	00076c07 	andeq	r6, r7, r7, lsl #24
    1f20:	74121400 	ldrvc	r1, [r2], #-1024	; 0xfffffc00
    1f24:	0500736c 	streq	r7, [r0, #-876]	; 0xfffffc94
    1f28:	07a30745 	streq	r0, [r3, r5, asr #14]!
    1f2c:	18200000 	stmdane	r0!, {}	; <UNPREDICTABLE>
    1f30:	00001290 	muleq	r0, r0, r2
    1f34:	bf184805 	svclt	0x00184805
    1f38:	38000008 	stmdacc	r0, {r3}
    1f3c:	00127f18 	andseq	r7, r2, r8, lsl pc
    1f40:	09490500 	stmdbeq	r9, {r8, sl}^
    1f44:	00000033 	andeq	r0, r0, r3, lsr r0
    1f48:	11eb183c 	mvnne	r1, ip, lsr r8
    1f4c:	4c050000 	stcmi	0, cr0, [r5], {-0}
    1f50:	0008c513 	andeq	ip, r8, r3, lsl r5
    1f54:	06184000 	ldreq	r4, [r8], -r0
    1f58:	05000011 	streq	r0, [r0, #-17]	; 0xffffffef
    1f5c:	08bf184f 	ldmeq	pc!, {r0, r1, r2, r3, r6, fp, ip}	; <UNPREDICTABLE>
    1f60:	18440000 	stmdane	r4, {}^	; <UNPREDICTABLE>
    1f64:	00001065 	andeq	r1, r0, r5, rrx
    1f68:	cb1a5205 	blgt	696784 <__bss_end__+0x66e6d4>
    1f6c:	48000008 	stmdami	r0, {r3}
    1f70:	0014a118 	andseq	sl, r4, r8, lsl r1
    1f74:	1e530500 	cdpne	5, 5, cr0, cr3, cr0, {0}
    1f78:	000008d1 	ldrdeq	r0, [r0], -r1
    1f7c:	0416004c 	ldreq	r0, [r6], #-76	; 0xffffffb4
    1f80:	00000731 	andeq	r0, r0, r1, lsr r7
    1f84:	0008ae0a 	andeq	sl, r8, sl, lsl #28
    1f88:	c1041600 	tstgt	r4, r0, lsl #12
    1f8c:	16000005 	strne	r0, [r0], -r5
    1f90:	0008b404 	andeq	fp, r8, r4, lsl #8
    1f94:	34041600 	strcc	r1, [r4], #-1536	; 0xfffffa00
    1f98:	16000006 	strne	r0, [r0], -r6
    1f9c:	00063904 	andeq	r3, r6, r4, lsl #18
    1fa0:	50041600 	andpl	r1, r4, r0, lsl #12
    1fa4:	23000006 	movwcs	r0, #6
    1fa8:	00766e65 	rsbseq	r6, r6, r5, ror #28
    1fac:	fb035405 	blx	d6fca <__bss_end__+0xaef1a>
    1fb0:	05000007 	streq	r0, [r0, #-7]
    1fb4:	02800003 	addeq	r0, r0, #3
    1fb8:	11562400 	cmpne	r6, r0, lsl #8
    1fbc:	b5050000 	strlt	r0, [r5, #-0]
    1fc0:	00330c01 	eorseq	r0, r3, r1, lsl #24
    1fc4:	185c0000 	ldmdane	ip, {}^	; <UNPREDICTABLE>
    1fc8:	004c0001 	subeq	r0, ip, r1
    1fcc:	9c010000 	stcls	0, cr0, [r1], {-0}
    1fd0:	0010bb25 	andseq	fp, r0, r5, lsr #22
    1fd4:	01a30500 			; <UNDEFINED> instruction: 0x01a30500
    1fd8:	0117d80d 	tsteq	r7, sp, lsl #16
    1fdc:	00008400 	andeq	r8, r0, r0, lsl #8
    1fe0:	269c0100 	ldrcs	r0, [ip], r0, lsl #2
    1fe4:	0000141f 	andeq	r1, r0, pc, lsl r4
    1fe8:	21019905 	tstcs	r1, r5, lsl #18
    1fec:	00000083 	andeq	r0, r0, r3, lsl #1
    1ff0:	00011694 	muleq	r1, r4, r6
    1ff4:	00000144 	andeq	r0, r0, r4, asr #2
    1ff8:	09cf9c01 	stmibeq	pc, {r0, sl, fp, ip, pc}^	; <UNPREDICTABLE>
    1ffc:	b9270000 	stmdblt	r7!, {}	; <UNPREDICTABLE>
    2000:	05000011 	streq	r0, [r0, #-17]	; 0xffffffef
    2004:	83440199 	movthi	r0, #16793	; 0x4199
    2008:	02000000 	andeq	r0, r0, #0
    200c:	15275491 	strne	r5, [r7, #-1169]!	; 0xfffffb6f
    2010:	05000010 	streq	r0, [r0, #-16]
    2014:	83610199 	cmnhi	r1, #1073741862	; 0x40000026
    2018:	02000000 	andeq	r0, r0, #0
    201c:	a8285091 	stmdage	r8!, {r0, r4, r7, ip, lr}
    2020:	5c000116 	stfpls	f0, [r0], {22}
    2024:	7a000000 	bvc	202c <errno+0x2028>
    2028:	29000009 	stmdbcs	r0, {r0, r3}
    202c:	05006e5f 	streq	r6, [r0, #-3679]	; 0xfffff1a1
    2030:	5b0e019c 	blpl	3826a8 <__bss_end__+0x35a5f8>
    2034:	02000000 	andeq	r0, r0, #0
    2038:	5f296c91 	svcpl	0x00296c91
    203c:	9c050062 	stcls	0, cr0, [r5], {98}	; 0x62
    2040:	00830e01 	addeq	r0, r3, r1, lsl #28
    2044:	91020000 	mrsls	r0, (UNDEF: 2)
    2048:	0c280068 	stceq	0, cr0, [r8], #-416	; 0xfffffe60
    204c:	5c000117 	stfpls	f0, [r0], {23}
    2050:	a6000000 	strge	r0, [r0], -r0
    2054:	29000009 	stmdbcs	r0, {r0, r3}
    2058:	05006e5f 	streq	r6, [r0, #-3679]	; 0xfffff1a1
    205c:	330e019e 	movwcc	r0, #57758	; 0xe19e
    2060:	02000000 	andeq	r0, r0, #0
    2064:	5f296491 	svcpl	0x00296491
    2068:	9e050062 	cdpls	0, 0, cr0, cr5, cr2, {3}
    206c:	00830e01 	addeq	r0, r3, r1, lsl #28
    2070:	91020000 	mrsls	r0, (UNDEF: 2)
    2074:	6c2a0060 	stcvs	0, cr0, [sl], #-384	; 0xfffffe80
    2078:	5c000117 	stfpls	f0, [r0], {23}
    207c:	29000000 	stmdbcs	r0, {}	; <UNPREDICTABLE>
    2080:	05006e5f 	streq	r6, [r0, #-3679]	; 0xfffff1a1
    2084:	830e01a0 	movwhi	r0, #57760	; 0xe1a0
    2088:	02000000 	andeq	r0, r0, #0
    208c:	5f295c91 	svcpl	0x00295c91
    2090:	a0050062 	andge	r0, r5, r2, rrx
    2094:	00830e01 	addeq	r0, r3, r1, lsl #28
    2098:	91020000 	mrsls	r0, (UNDEF: 2)
    209c:	2b000058 	blcs	2204 <errno+0x2200>
    20a0:	0000120b 	andeq	r1, r0, fp, lsl #4
    20a4:	19018e05 	stmdbne	r1, {r0, r2, r9, sl, fp, pc}
    20a8:	000009fb 	strdeq	r0, [r0], -fp
    20ac:	00011670 	andeq	r1, r1, r0, ror r6
    20b0:	00000024 	andeq	r0, r0, r4, lsr #32
    20b4:	09fb9c01 	ldmibeq	fp!, {r0, sl, fp, ip, pc}^
    20b8:	ce270000 	cdpgt	0, 2, cr0, cr7, cr0, {0}
    20bc:	05000012 	streq	r0, [r0, #-18]	; 0xffffffee
    20c0:	0114018f 	tsteq	r4, pc, lsl #3
    20c4:	0200000a 	andeq	r0, r0, #10
    20c8:	16007491 			; <UNDEFINED> instruction: 0x16007491
    20cc:	00076004 	andeq	r6, r7, r4
    20d0:	41041600 	tstmi	r4, r0, lsl #12
    20d4:	26000000 	strcs	r0, [r0], -r0
    20d8:	000013a5 	andeq	r1, r0, r5, lsr #7
    20dc:	17018905 	strne	r8, [r1, -r5, lsl #18]
    20e0:	00000a01 	andeq	r0, r0, r1, lsl #20
    20e4:	0001163c 	andeq	r1, r1, ip, lsr r6
    20e8:	00000034 	andeq	r0, r0, r4, lsr r0
    20ec:	0a339c01 	beq	ce90f8 <__bss_end__+0xcc1048>
    20f0:	ce270000 	cdpgt	0, 2, cr0, cr7, cr0, {0}
    20f4:	05000012 	streq	r0, [r0, #-18]	; 0xffffffee
    20f8:	013a0189 	teqeq	sl, r9, lsl #3
    20fc:	0200000a 	andeq	r0, r0, #10
    2100:	2b007491 	blcs	1f34c <__bss_start+0x82bc>
    2104:	0000142f 	andeq	r1, r0, pc, lsr #8
    2108:	17017d05 	strne	r7, [r1, -r5, lsl #26]
    210c:	00000a01 	andeq	r0, r0, r1, lsl #20
    2110:	00011604 	andeq	r1, r1, r4, lsl #12
    2114:	00000038 	andeq	r0, r0, r8, lsr r0
    2118:	0a6f9c01 	beq	1be9124 <__bss_end__+0x1bc1074>
    211c:	d1270000 			; <UNDEFINED> instruction: 0xd1270000
    2120:	05000011 	streq	r0, [r0, #-17]	; 0xffffffef
    2124:	703f017d 	eorsvc	r0, pc, sp, ror r1	; <UNPREDICTABLE>
    2128:	02000000 	andeq	r0, r0, #0
    212c:	142c6c91 	strtne	r6, [ip], #-3217	; 0xfffff36f
    2130:	05000013 	streq	r0, [r0, #-19]	; 0xffffffed
    2134:	701b017f 	andsvc	r0, fp, pc, ror r1
    2138:	02000000 	andeq	r0, r0, #0
    213c:	26007491 			; <UNDEFINED> instruction: 0x26007491
    2140:	000012c0 	andeq	r1, r0, r0, asr #5
    2144:	1e017405 	cdpne	4, 0, cr7, cr1, cr5, {0}
    2148:	00000070 	andeq	r0, r0, r0, ror r0
    214c:	0001157c 	andeq	r1, r1, ip, ror r5
    2150:	00000088 	andeq	r0, r0, r8, lsl #1
    2154:	0ad39c01 	beq	ff4e9160 <__bss_end__+0xff4c10b0>
    2158:	ce270000 	cdpgt	0, 2, cr0, cr7, cr0, {0}
    215c:	05000012 	streq	r0, [r0, #-18]	; 0xffffffee
    2160:	01460174 	hvceq	24596	; 0x6014
    2164:	0200000a 	andeq	r0, r0, #10
    2168:	d12c6491 			; <UNDEFINED> instruction: 0xd12c6491
    216c:	05000011 	streq	r0, [r0, #-17]	; 0xffffffef
    2170:	701b0176 	andsvc	r0, fp, r6, ror r1
    2174:	02000000 	andeq	r0, r0, #0
    2178:	942a7491 	strtls	r7, [sl], #-1169	; 0xfffffb6f
    217c:	64000115 	strvs	r0, [r0], #-277	; 0xfffffeeb
    2180:	29000000 	stmdbcs	r0, {}	; <UNPREDICTABLE>
    2184:	05006e5f 	streq	r6, [r0, #-3679]	; 0xfffff1a1
    2188:	700c017a 	andvc	r0, ip, sl, ror r1
    218c:	02000000 	andeq	r0, r0, #0
    2190:	5f297091 	svcpl	0x00297091
    2194:	7a050062 	bvc	142324 <__bss_end__+0x11a274>
    2198:	00830c01 	addeq	r0, r3, r1, lsl #24
    219c:	91020000 	mrsls	r0, (UNDEF: 2)
    21a0:	2d00006c 	stccs	0, cr0, [r0, #-432]	; 0xfffffe50
    21a4:	00001242 	andeq	r1, r0, r2, asr #4
    21a8:	0d016705 	stceq	7, cr6, [r1, #-20]	; 0xffffffec
    21ac:	000114c0 	andeq	r1, r1, r0, asr #9
    21b0:	000000bc 	strheq	r0, [r0], -ip
    21b4:	0b2b9c01 	bleq	ae91c0 <__bss_end__+0xac1110>
    21b8:	ce270000 	cdpgt	0, 2, cr0, cr7, cr0, {0}
    21bc:	05000012 	streq	r0, [r0, #-18]	; 0xffffffee
    21c0:	012a0167 			; <UNDEFINED> instruction: 0x012a0167
    21c4:	0200000a 	andeq	r0, r0, #10
    21c8:	74296491 	strtvc	r6, [r9], #-1169	; 0xfffffb6f
    21cc:	0500736c 	streq	r7, [r0, #-876]	; 0xfffffc94
    21d0:	01140169 	tsteq	r4, r9, ror #2
    21d4:	0200000a 	andeq	r0, r0, #10
    21d8:	ad2c7491 	cfstrsge	mvf7, [ip, #-580]!	; 0xfffffdbc
    21dc:	05000014 	streq	r0, [r0, #-20]	; 0xffffffec
    21e0:	0114016b 	tsteq	r4, fp, ror #2
    21e4:	0200000a 	andeq	r0, r0, #10
    21e8:	6c2c7091 	stcvs	0, cr7, [ip], #-580	; 0xfffffdbc
    21ec:	05000012 	streq	r0, [r0, #-18]	; 0xffffffee
    21f0:	fb16016e 	blx	5827b2 <__bss_end__+0x55a702>
    21f4:	02000009 	andeq	r0, r0, #9
    21f8:	25006c91 	strcs	r6, [r0, #-3217]	; 0xfffff36f
    21fc:	00001334 	andeq	r1, r0, r4, lsr r3
    2200:	0d016005 	stceq	0, cr6, [r1, #-20]	; 0xffffffec
    2204:	00011490 	muleq	r1, r0, r4
    2208:	00000030 	andeq	r0, r0, r0, lsr r0
    220c:	d92d9c01 	pushle	{r0, sl, fp, ip, pc}
    2210:	05000012 	streq	r0, [r0, #-18]	; 0xffffffee
    2214:	6c0d0150 	stfvss	f0, [sp], {80}	; 0x50
    2218:	24000113 	strcs	r0, [r0], #-275	; 0xfffffeed
    221c:	01000001 	tsteq	r0, r1
    2220:	000b8e9c 	muleq	fp, ip, lr
    2224:	11a32700 			; <UNDEFINED> instruction: 0x11a32700
    2228:	50050000 	andpl	r0, r5, r0
    222c:	079d2501 	ldreq	r2, [sp, r1, lsl #10]
    2230:	91020000 	mrsls	r0, (UNDEF: 2)
    2234:	13e02a6c 	mvnne	r2, #108, 20	; 0x6c000
    2238:	00640001 	rsbeq	r0, r4, r1
    223c:	5f290000 	svcpl	0x00290000
    2240:	5905006e 	stmdbpl	r5, {r1, r2, r3, r5, r6}
    2244:	066b1b01 	strbteq	r1, [fp], -r1, lsl #22
    2248:	91020000 	mrsls	r0, (UNDEF: 2)
    224c:	625f2974 	subsvs	r2, pc, #116, 18	; 0x1d0000
    2250:	01590500 	cmpeq	r9, r0, lsl #10
    2254:	00066b1b 	andeq	r6, r6, fp, lsl fp
    2258:	70910200 	addsvc	r0, r1, r0, lsl #4
    225c:	cf2d0000 	svcgt	0x002d0000
    2260:	05000014 	streq	r0, [r0, #-20]	; 0xffffffec
    2264:	e40d0142 	str	r0, [sp], #-322	; 0xfffffebe
    2268:	88000112 	stmdahi	r0, {r1, r4, r8}
    226c:	01000000 	mrseq	r0, (UNDEF: 0)
    2270:	000bd89c 	muleq	fp, ip, r8
    2274:	12f02a00 	rscsne	r2, r0, #0, 20
    2278:	006c0001 	rsbeq	r0, ip, r1
    227c:	68290000 	stmdavs	r9!, {}	; <UNPREDICTABLE>
    2280:	01440500 	cmpeq	r4, r0, lsl #10
    2284:	0000831d 	andeq	r8, r0, sp, lsl r3
    2288:	74910200 	ldrvc	r0, [r1], #512	; 0x200
    228c:	0112fc2a 	tsteq	r2, sl, lsr #24	; <UNPREDICTABLE>
    2290:	00003c00 	andeq	r3, r0, r0, lsl #24
    2294:	11a32c00 			; <UNDEFINED> instruction: 0x11a32c00
    2298:	45050000 	strmi	r0, [r5, #-0]
    229c:	079d1301 	ldreq	r1, [sp, r1, lsl #6]
    22a0:	91020000 	mrsls	r0, (UNDEF: 2)
    22a4:	00000070 	andeq	r0, r0, r0, ror r0
    22a8:	0012b52e 	andseq	fp, r2, lr, lsr #10
    22ac:	011a0500 	tsteq	sl, r0, lsl #10
    22b0:	0111000d 	tsteq	r1, sp
    22b4:	0001e400 	andeq	lr, r1, r0, lsl #8
    22b8:	2e9c0100 	fmlcse	f0, f4, f0
    22bc:	2700000c 	strcs	r0, [r0, -ip]
    22c0:	000011eb 	andeq	r1, r0, fp, ror #3
    22c4:	25011a05 	strcs	r1, [r1, #-2565]	; 0xfffff5fb
    22c8:	000008c5 	andeq	r0, r0, r5, asr #17
    22cc:	2a6c9102 	bcs	1b266dc <__bss_end__+0x1afe62c>
    22d0:	00011110 	andeq	r1, r1, r0, lsl r1
    22d4:	000001c0 	andeq	r0, r0, r0, asr #3
    22d8:	05006929 	streq	r6, [r0, #-2345]	; 0xfffff6d7
    22dc:	330e011c 	movwcc	r0, #57628	; 0xe11c
    22e0:	02000000 	andeq	r0, r0, #0
    22e4:	602f7491 	mlavs	pc, r1, r4, r7	; <UNPREDICTABLE>
    22e8:	2c000000 	stccs	0, cr0, [r0], {-0}
    22ec:	00001141 	andeq	r1, r0, r1, asr #2
    22f0:	1c012b05 			; <UNDEFINED> instruction: 0x1c012b05
    22f4:	000008b9 			; <UNDEFINED> instruction: 0x000008b9
    22f8:	00709102 	rsbseq	r9, r0, r2, lsl #2
    22fc:	6f2e0000 	svcvs	0x002e0000
    2300:	05000014 	streq	r0, [r0, #-20]	; 0xffffffec
    2304:	800d010d 	andhi	r0, sp, sp, lsl #2
    2308:	80000110 	andhi	r0, r0, r0, lsl r1
    230c:	01000000 	mrseq	r0, (UNDEF: 0)
    2310:	000c569c 	muleq	ip, ip, r6
    2314:	14902700 	ldrne	r2, [r0], #1792	; 0x700
    2318:	0d050000 	stceq	0, cr0, [r5, #-0]
    231c:	08ae2601 	stmiaeq	lr!, {r0, r9, sl, sp}
    2320:	91020000 	mrsls	r0, (UNDEF: 2)
    2324:	1d300074 	ldcne	0, cr0, [r0, #-464]!	; 0xfffffe30
    2328:	05000013 	streq	r0, [r0, #-19]	; 0xffffffed
    232c:	0fe406f6 	svceq	0x00e406f6
    2330:	009c0001 	addseq	r0, ip, r1
    2334:	9c010000 	stcls	0, cr0, [r1], {-0}
    2338:	00000ca9 	andeq	r0, r0, r9, lsr #25
    233c:	00127f31 	andseq	r7, r2, r1, lsr pc
    2340:	09f70500 	ldmibeq	r7!, {r8, sl}^
    2344:	00000033 	andeq	r0, r0, r3, lsr r0
    2348:	31749102 	cmncc	r4, r2, lsl #2
    234c:	00001290 	muleq	r0, r0, r2
    2350:	bf18f805 	svclt	0x0018f805
    2354:	02000008 	andeq	r0, r0, #8
    2358:	06317091 			; <UNDEFINED> instruction: 0x06317091
    235c:	05000011 	streq	r0, [r0, #-17]	; 0xffffffef
    2360:	08bf18f9 	ldmeq	pc!, {r0, r3, r4, r5, r6, r7, fp, ip}	; <UNPREDICTABLE>
    2364:	91020000 	mrsls	r0, (UNDEF: 2)
    2368:	11eb316c 	mvnne	r3, ip, ror #2
    236c:	fa050000 	blx	142374 <__bss_end__+0x11a2c4>
    2370:	0008c512 	andeq	ip, r8, r2, lsl r5
    2374:	68910200 	ldmvs	r1, {r9}
    2378:	13b93200 			; <UNDEFINED> instruction: 0x13b93200
    237c:	dd050000 	stcle	0, cr0, [r5, #-0]
    2380:	00003305 	andeq	r3, r0, r5, lsl #6
    2384:	010f2800 	tsteq	pc, r0, lsl #16
    2388:	0000bc00 	andeq	fp, r0, r0, lsl #24
    238c:	5a9c0100 	bpl	fe702794 <__bss_end__+0xfe6da6e4>
    2390:	3100000d 	tstcc	r0, sp
    2394:	00001306 	andeq	r1, r0, r6, lsl #6
    2398:	701bde05 	andsvc	sp, fp, r5, lsl #28
    239c:	02000000 	andeq	r0, r0, #0
    23a0:	aa315c91 	bge	c595ec <__bss_end__+0xc3153c>
    23a4:	05000011 	streq	r0, [r0, #-17]	; 0xffffffef
    23a8:	0a0114df 	beq	4772c <__bss_end__+0x1f67c>
    23ac:	91020000 	mrsls	r0, (UNDEF: 2)
    23b0:	72733358 	rsbsvc	r3, r3, #88, 6	; 0x60000001
    23b4:	e0050063 	and	r0, r5, r3, rrx
    23b8:	000a0114 	andeq	r0, sl, r4, lsl r1
    23bc:	54910200 	ldrpl	r0, [r1], #512	; 0x200
    23c0:	00139f31 	andseq	r9, r3, r1, lsr pc
    23c4:	18e10500 	stmiane	r1!, {r8, sl}^
    23c8:	00000083 	andeq	r0, r0, r3, lsl #1
    23cc:	0b509102 	bleq	14267dc <__bss_end__+0x13fe72c>
    23d0:	000012e7 	andeq	r1, r0, r7, ror #5
    23d4:	701be405 	andsvc	lr, fp, r5, lsl #8
    23d8:	02000000 	andeq	r0, r0, #0
    23dc:	e50b7491 	str	r7, [fp, #-1169]	; 0xfffffb6f
    23e0:	05000013 	streq	r0, [r0, #-19]	; 0xffffffed
    23e4:	0a0114e5 	beq	47780 <__bss_end__+0x1f6d0>
    23e8:	91020000 	mrsls	r0, (UNDEF: 2)
    23ec:	0fe50b70 	svceq	0x00e50b70
    23f0:	e6050000 	str	r0, [r5], -r0
    23f4:	00008318 	andeq	r8, r0, r8, lsl r3
    23f8:	6c910200 	lfmvs	f0, 4, [r1], {0}
    23fc:	0012390b 	andseq	r3, r2, fp, lsl #18
    2400:	18e70500 	stmiane	r7!, {r8, sl}^
    2404:	00000083 	andeq	r0, r0, r3, lsl #1
    2408:	0b689102 	bleq	1a26818 <__bss_end__+0x19fe768>
    240c:	00001181 	andeq	r1, r0, r1, lsl #3
    2410:	0114ee05 	tsteq	r4, r5, lsl #28
    2414:	0200000a 	andeq	r0, r0, #10
    2418:	b20b6491 	andlt	r6, fp, #-1862270976	; 0x91000000
    241c:	05000014 	streq	r0, [r0, #-20]	; 0xffffffec
    2420:	0a0114ef 	beq	477e4 <__bss_end__+0x1f734>
    2424:	91020000 	mrsls	r0, (UNDEF: 2)
    2428:	8a300060 	bhi	c025b0 <__bss_end__+0xbda500>
    242c:	05000011 	streq	r0, [r0, #-17]	; 0xffffffef
    2430:	0ec806ce 	cdpeq	6, 12, cr0, cr8, cr14, {6}
    2434:	00600001 	rsbeq	r0, r0, r1
    2438:	9c010000 	stcls	0, cr0, [r1], {-0}
    243c:	00000d80 	andeq	r0, r0, r0, lsl #27
    2440:	0011da31 	andseq	sp, r1, r1, lsr sl
    2444:	1bce0500 	blne	ff38384c <__bss_end__+0xff35b79c>
    2448:	00000033 	andeq	r0, r0, r3, lsr r0
    244c:	00749102 	rsbseq	r9, r4, r2, lsl #2
    2450:	00144134 	andseq	r4, r4, r4, lsr r1
    2454:	1ac70500 	bne	ff1c385c <__bss_end__+0xff19b7ac>
    2458:	000008d1 	ldrdeq	r0, [r0], -r1
    245c:	00010e84 	andeq	r0, r1, r4, lsl #29
    2460:	00000044 	andeq	r0, r0, r4, asr #32
    2464:	0db89c01 	ldceq	12, cr9, [r8, #4]!
    2468:	63330000 	teqvs	r3, #0
    246c:	c7050062 	strgt	r0, [r5, -r2, rrx]
    2470:	0008d14c 	andeq	sp, r8, ip, asr #2
    2474:	6c910200 	lfmvs	f0, 4, [r1], {0}
    2478:	646c6f23 	strbtvs	r6, [ip], #-3875	; 0xfffff0dd
    247c:	1ec90500 	cdpne	5, 12, cr0, cr9, cr0, {0}
    2480:	000008d1 	ldrdeq	r0, [r0], -r1
    2484:	00749102 	rsbseq	r9, r4, r2, lsl #2
    2488:	00106d34 	andseq	r6, r0, r4, lsr sp
    248c:	16c00500 	strbne	r0, [r0], r0, lsl #10
    2490:	000008cb 	andeq	r0, r0, fp, asr #17
    2494:	00010e40 	andeq	r0, r1, r0, asr #28
    2498:	00000044 	andeq	r0, r0, r4, asr #32
    249c:	0df09c01 	ldcleq	12, cr9, [r0, #4]!
    24a0:	63330000 	teqvs	r3, #0
    24a4:	c0050062 	andgt	r0, r5, r2, rrx
    24a8:	0008cb40 	andeq	ip, r8, r0, asr #22
    24ac:	6c910200 	lfmvs	f0, 4, [r1], {0}
    24b0:	646c6f23 	strbtvs	r6, [ip], #-3875	; 0xfffff0dd
    24b4:	1ac20500 	bne	ff0838bc <__bss_end__+0xff05b80c>
    24b8:	000008cb 	andeq	r0, r0, fp, asr #17
    24bc:	00749102 	rsbseq	r9, r4, r2, lsl #2
    24c0:	00109e32 	andseq	r9, r0, r2, lsr lr
    24c4:	17a20500 	strne	r0, [r2, r0, lsl #10]!
    24c8:	00000070 	andeq	r0, r0, r0, ror r0
    24cc:	00010d38 	andeq	r0, r1, r8, lsr sp
    24d0:	00000108 	andeq	r0, r0, r8, lsl #2
    24d4:	0e299c01 	cdpeq	12, 2, cr9, cr9, cr1, {0}
    24d8:	da310000 	ble	c424e0 <__bss_end__+0xc1a430>
    24dc:	05000013 	streq	r0, [r0, #-19]	; 0xffffffed
    24e0:	05fb3aa2 	ldrbeq	r3, [fp, #2722]!	; 0xaa2
    24e4:	91020000 	mrsls	r0, (UNDEF: 2)
    24e8:	11d10b6c 	bicsne	r0, r1, ip, ror #22
    24ec:	a8050000 	stmdage	r5, {}	; <UNPREDICTABLE>
    24f0:	0000701b 	andeq	r7, r0, fp, lsl r0
    24f4:	74910200 	ldrvc	r0, [r1], #512	; 0x200
    24f8:	12503200 	subsne	r3, r0, #0, 4
    24fc:	97050000 	strls	r0, [r5, -r0]
    2500:	00007017 	andeq	r7, r0, r7, lsl r0
    2504:	010cf400 	tsteq	ip, r0, lsl #8	; <UNPREDICTABLE>
    2508:	00004400 	andeq	r4, r0, r0, lsl #8
    250c:	539c0100 	orrspl	r0, ip, #0, 2
    2510:	3100000e 	tstcc	r0, lr
    2514:	000013da 	ldrdeq	r1, [r0], -sl
    2518:	fb399705 	blx	e68136 <__bss_end__+0xe40086>
    251c:	02000005 	andeq	r0, r0, #5
    2520:	35007491 	strcc	r7, [r0, #-1169]	; 0xfffffb6f
    2524:	000013ff 	strdeq	r1, [r0], -pc	; <UNPREDICTABLE>
    2528:	33058d05 	movwcc	r8, #23813	; 0x5d05
    252c:	c0000000 	andgt	r0, r0, r0
    2530:	3400010c 	strcc	r0, [r0], #-268	; 0xfffffef4
    2534:	01000000 	mrseq	r0, (UNDEF: 0)
    2538:	1229359c 	eorne	r3, r9, #156, 10	; 0x27000000
    253c:	88050000 	stmdahi	r5, {}	; <UNPREDICTABLE>
    2540:	00008314 	andeq	r8, r0, r4, lsl r3
    2544:	010c9c00 	tsteq	ip, r0, lsl #24
    2548:	00002400 	andeq	r2, r0, r0, lsl #8
    254c:	359c0100 	ldrcc	r0, [ip, #256]	; 0x100
    2550:	00001135 	andeq	r1, r0, r5, lsr r1
    2554:	b9108305 	ldmdblt	r0, {r0, r2, r8, r9, pc}
    2558:	78000008 	stmdavc	r0, {r3}
    255c:	2400010c 	strcs	r0, [r0], #-268	; 0xfffffef4
    2560:	01000000 	mrseq	r0, (UNDEF: 0)
    2564:	11df359c 			; <UNDEFINED> instruction: 0x11df359c
    2568:	7e050000 	cdpvc	0, 0, cr0, cr5, cr0, {0}
    256c:	0008c50f 	andeq	ip, r8, pc, lsl #10
    2570:	010c5400 	tsteq	ip, r0, lsl #8
    2574:	00002400 	andeq	r2, r0, r0, lsl #8
    2578:	359c0100 	ldrcc	r0, [ip, #256]	; 0x100
    257c:	000010fa 	strdeq	r1, [r0], -sl
    2580:	bf147905 	svclt	0x00147905
    2584:	30000008 	andcc	r0, r0, r8
    2588:	2400010c 	strcs	r0, [r0], #-268	; 0xfffffef4
    258c:	01000000 	mrseq	r0, (UNDEF: 0)
    2590:	1273359c 	rsbsne	r3, r3, #156, 10	; 0x27000000
    2594:	74050000 	strvc	r0, [r5], #-0
    2598:	00003305 	andeq	r3, r0, r5, lsl #6
    259c:	010c0c00 	tsteq	ip, r0, lsl #24
    25a0:	00002400 	andeq	r2, r0, r0, lsl #8
    25a4:	359c0100 	ldrcc	r0, [ip, #256]	; 0x100
    25a8:	00001284 	andeq	r1, r0, r4, lsl #5
    25ac:	bf146f05 	svclt	0x00146f05
    25b0:	e8000008 	stmda	r0, {r3}
    25b4:	2400010b 	strcs	r0, [r0], #-267	; 0xfffffef5
    25b8:	01000000 	mrseq	r0, (UNDEF: 0)
    25bc:	147c359c 	ldrbtne	r3, [ip], #-1436	; 0xfffffa64
    25c0:	6a050000 	bvs	1425c8 <__bss_end__+0x11a518>
    25c4:	0008ae0d 	andeq	sl, r8, sp, lsl #28
    25c8:	010bc400 	tsteq	fp, r0, lsl #8
    25cc:	00002400 	andeq	r2, r0, r0, lsl #8
    25d0:	369c0100 	ldrcc	r0, [ip], r0, lsl #2
    25d4:	0000110b 	andeq	r1, r0, fp, lsl #2
    25d8:	70253004 	eorvc	r3, r5, r4
    25dc:	ac000000 	stcge	0, cr0, [r0], {-0}
    25e0:	1800010b 	stmdane	r0, {r0, r1, r3, r8}
    25e4:	01000000 	mrseq	r0, (UNDEF: 0)
    25e8:	1168379c 			; <UNDEFINED> instruction: 0x1168379c
    25ec:	24040000 	strcs	r0, [r4], #-0
    25f0:	010b8814 	tsteq	fp, r4, lsl r8
    25f4:	00002400 	andeq	r2, r0, r0, lsl #8
    25f8:	3f9c0100 	svccc	0x009c0100
    25fc:	3100000f 	tstcc	r0, pc
    2600:	000011d1 	ldrdeq	r1, [r0], -r1	; <UNPREDICTABLE>
    2604:	70432404 	subvc	r2, r3, r4, lsl #8
    2608:	02000000 	andeq	r0, r0, #0
    260c:	38007491 	stmdacc	r0, {r0, r4, r7, sl, ip, sp, lr}
    2610:	00001082 	andeq	r1, r0, r2, lsl #1
    2614:	60141504 	andsvs	r1, r4, r4, lsl #10
    2618:	2800010b 	stmdacs	r0, {r0, r1, r3, r8}
    261c:	01000000 	mrseq	r0, (UNDEF: 0)
    2620:	000f659c 	muleq	pc, ip, r5	; <UNPREDICTABLE>
    2624:	65723300 	ldrbvs	r3, [r2, #-768]!	; 0xfffffd00
    2628:	15040067 	strne	r0, [r4, #-103]	; 0xffffff99
    262c:	00007046 	andeq	r7, r0, r6, asr #32
    2630:	74910200 	ldrvc	r0, [r1], #512	; 0x200
    2634:	11f03900 	mvnsne	r3, r0, lsl #18
    2638:	0e040000 	cdpeq	0, 0, cr0, cr4, cr0, {0}
    263c:	00007025 	andeq	r7, r0, r5, lsr #32
    2640:	010b3800 	tsteq	fp, r0, lsl #16
    2644:	00002800 	andeq	r2, r0, r0, lsl #16
    2648:	8f9c0100 	svchi	0x009c0100
    264c:	2300000f 	movwcs	r0, #15
    2650:	00676572 	rsbeq	r6, r7, r2, ror r5
    2654:	701b1004 	andsvc	r1, fp, r4
    2658:	02000000 	andeq	r0, r0, #0
    265c:	2d007491 	cfstrscs	mvf7, [r0, #-580]	; 0xfffffdbc
    2660:	0000145a 	andeq	r1, r0, sl, asr r4
    2664:	1a027903 	bne	a0a78 <__bss_end__+0x789c8>
    2668:	00010a8c 	andeq	r0, r1, ip, lsl #21
    266c:	000000ac 	andeq	r0, r0, ip, lsr #1
    2670:	10279c01 	eorne	r9, r7, r1, lsl #24
    2674:	743a0000 	ldrtvc	r0, [sl], #-0
    2678:	03006263 	movweq	r6, #611	; 0x263
    267c:	b3390279 	teqlt	r9, #-1879048185	; 0x90000007
    2680:	02000000 	andeq	r0, r0, #0
    2684:	90275c91 	mlals	r7, r1, ip, r5
    2688:	03000014 	movweq	r0, #20
    268c:	ae4a0279 	mcrge	2, 2, r0, cr10, cr9, {3}
    2690:	02000008 	andeq	r0, r0, #8
    2694:	ef2c5891 	svc	0x002c5891
    2698:	03000013 	movweq	r0, #19
    269c:	a70f027d 	smlsdxge	pc, sp, r2, r0	; <UNPREDICTABLE>
    26a0:	02000000 	andeq	r0, r0, #0
    26a4:	952c7491 	strls	r7, [ip, #-1169]!	; 0xfffffb6f
    26a8:	03000012 	movweq	r0, #18
    26ac:	a70f027e 	smlsdxge	pc, lr, r2, r0	; <UNPREDICTABLE>
    26b0:	02000000 	andeq	r0, r0, #0
    26b4:	f72c7091 			; <UNDEFINED> instruction: 0xf72c7091
    26b8:	03000013 	movweq	r0, #19
    26bc:	a70f027f 	smlsdxge	pc, pc, r2, r0	; <UNPREDICTABLE>
    26c0:	02000000 	andeq	r0, r0, #0
    26c4:	9d2c6c91 	stcls	12, cr6, [ip, #-580]!	; 0xfffffdbc
    26c8:	03000012 	movweq	r0, #18
    26cc:	a70f0280 	strge	r0, [pc, -r0, lsl #5]
    26d0:	02000000 	andeq	r0, r0, #0
    26d4:	a52c6891 	strge	r6, [ip, #-2193]!	; 0xfffff76f
    26d8:	03000012 	movweq	r0, #18
    26dc:	a70f0281 	strge	r0, [pc, -r1, lsl #5]
    26e0:	02000000 	andeq	r0, r0, #0
    26e4:	ad2c6491 	cfstrsge	mvf6, [ip, #-580]!	; 0xfffffdbc
    26e8:	03000012 	movweq	r0, #18
    26ec:	a70f0282 	strge	r0, [pc, -r2, lsl #5]
    26f0:	02000000 	andeq	r0, r0, #0
    26f4:	38006091 	stmdacc	r0, {r0, r4, r7, sp, lr}
    26f8:	0000095e 	andeq	r0, r0, lr, asr r9
    26fc:	e0149202 	ands	r9, r4, r2, lsl #4
    2700:	ac000109 	stfges	f0, [r0], {9}
    2704:	01000000 	mrseq	r0, (UNDEF: 0)
    2708:	0011369c 	mulseq	r1, ip, r6
    270c:	79733300 	ldmdbvc	r3!, {r8, r9, ip, sp}^
    2710:	92020073 	andls	r0, r2, #115	; 0x73
    2714:	0000a730 	andeq	sl, r0, r0, lsr r7
    2718:	6c910200 	lfmvs	f0, 4, [r1], {0}
    271c:	0011b431 	andseq	fp, r1, r1, lsr r4
    2720:	3f920200 	svccc	0x00920200
    2724:	000000a7 	andeq	r0, r0, r7, lsr #1
    2728:	31689102 	cmncc	r8, r2, lsl #2
    272c:	000009b9 			; <UNDEFINED> instruction: 0x000009b9
    2730:	36509202 	ldrbcc	r9, [r0], -r2, lsl #4
    2734:	02000011 	andeq	r0, r0, #17
    2738:	90316491 	mlasls	r1, r1, r4, r6
    273c:	02000008 	andeq	r0, r0, #8
    2740:	00a76592 	umlaleq	r6, r7, r2, r5
    2744:	91020000 	mrsls	r0, (UNDEF: 2)
    2748:	01da3160 	bicseq	r3, sl, r0, ror #2
    274c:	93020000 	movwls	r0, #8192	; 0x2000
    2750:	00113631 	andseq	r3, r1, r1, lsr r6
    2754:	00910200 	addseq	r0, r1, r0, lsl #4
    2758:	00085d31 	andeq	r5, r8, r1, lsr sp
    275c:	46930200 	ldrmi	r0, [r3], r0, lsl #4
    2760:	00001136 	andeq	r1, r0, r6, lsr r1
    2764:	31049102 	tstcc	r4, r2, lsl #2
    2768:	000000e3 	andeq	r0, r0, r3, ror #1
    276c:	365d9302 	ldrbcc	r9, [sp], -r2, lsl #6
    2770:	02000011 	andeq	r0, r0, #17
    2774:	ee310891 	mrc	8, 1, r0, cr1, cr1, {4}
    2778:	02000000 	andeq	r0, r0, #0
    277c:	11367493 	teqne	r6, r3	; <illegal shifter operand>
    2780:	91020000 	mrsls	r0, (UNDEF: 2)
    2784:	0885310c 	stmeq	r5, {r2, r3, r8, ip, sp}
    2788:	93020000 	movwls	r0, #8192	; 0x2000
    278c:	0011368b 	andseq	r3, r1, fp, lsl #13
    2790:	10910200 	addsne	r0, r1, r0, lsl #4
    2794:	00004531 	andeq	r4, r0, r1, lsr r5
    2798:	3f940200 	svccc	0x00940200
    279c:	000000a7 	andeq	r0, r0, r7, lsr #1
    27a0:	0b149102 	bleq	526bb0 <__bss_end__+0x4feb00>
    27a4:	000003bb 			; <UNDEFINED> instruction: 0x000003bb
    27a8:	a7189602 	ldrge	r9, [r8, -r2, lsl #12]
    27ac:	01000000 	mrseq	r0, (UNDEF: 0)
    27b0:	0fbf0b50 	svceq	0x00bf0b50
    27b4:	97020000 	strls	r0, [r2, -r0]
    27b8:	0000a718 	andeq	sl, r0, r8, lsl r7
    27bc:	0b510100 	bleq	1442bc4 <__bss_end__+0x141ab14>
    27c0:	0000092b 	andeq	r0, r0, fp, lsr #18
    27c4:	a7189a02 	ldrge	r9, [r8, -r2, lsl #20]
    27c8:	01000000 	mrseq	r0, (UNDEF: 0)
    27cc:	09300b52 	ldmdbeq	r0!, {r1, r4, r6, r8, r9, fp}
    27d0:	9b020000 	blls	827d8 <__bss_end__+0x5a728>
    27d4:	0000a718 	andeq	sl, r0, r8, lsl r7
    27d8:	0b530100 	bleq	14c2be0 <__bss_end__+0x149ab30>
    27dc:	00000935 	andeq	r0, r0, r5, lsr r9
    27e0:	a7189c02 	ldrge	r9, [r8, -r2, lsl #24]
    27e4:	01000000 	mrseq	r0, (UNDEF: 0)
    27e8:	093a0b54 	ldmdbeq	sl!, {r2, r4, r6, r8, r9, fp}
    27ec:	9d020000 	stcls	0, cr0, [r2, #-0]
    27f0:	0000a718 	andeq	sl, r0, r8, lsl r7
    27f4:	0b550100 	bleq	1542bfc <__bss_end__+0x151ab4c>
    27f8:	000008af 	andeq	r0, r0, pc, lsr #17
    27fc:	a718a102 	ldrge	sl, [r8, -r2, lsl #2]
    2800:	01000000 	mrseq	r0, (UNDEF: 0)
    2804:	04160057 	ldreq	r0, [r6], #-87	; 0xffffffa9
    2808:	000000a7 	andeq	r0, r0, r7, lsr #1
    280c:	00049d3b 	andeq	r9, r4, fp, lsr sp
    2810:	25290100 	strcs	r0, [r9, #-256]!	; 0xffffff00
    2814:	000002c4 	andeq	r0, r0, r4, asr #5
    2818:	000109bc 			; <UNDEFINED> instruction: 0x000109bc
    281c:	00000024 	andeq	r0, r0, r4, lsr #32
    2820:	2f009c01 	svccs	0x00009c01
    2824:	04000001 	streq	r0, [r0], #-1
    2828:	0009cc00 	andeq	ip, r9, r0, lsl #24
    282c:	87010400 	strhi	r0, [r1, -r0, lsl #8]
    2830:	0c00000c 	stceq	0, cr0, [r0], {12}
    2834:	0000157f 	andeq	r1, r0, pc, ror r5
    2838:	00000da0 	andeq	r0, r0, r0, lsr #27
    283c:	000118a8 	andeq	r1, r1, r8, lsr #17
    2840:	00000140 	andeq	r0, r0, r0, asr #2
    2844:	000013c2 	andeq	r1, r0, r2, asr #7
    2848:	0014ee02 	andseq	lr, r4, r2, lsl #28
    284c:	100a0100 	andne	r0, sl, r0, lsl #2
    2850:	00000031 	andeq	r0, r0, r1, lsr r0
    2854:	00370403 	eorseq	r0, r7, r3, lsl #8
    2858:	05040000 	streq	r0, [r4, #-0]
    285c:	00000025 	andeq	r0, r0, r5, lsr #32
    2860:	00000043 	andeq	r0, r0, r3, asr #32
    2864:	69070006 	stmdbvs	r7, {r1, r2}
    2868:	01000015 	tsteq	r0, r5, lsl r0
    286c:	00381010 	eorseq	r1, r8, r0, lsl r0
    2870:	d7070000 	strle	r0, [r7, -r0]
    2874:	01000015 	tsteq	r0, r5, lsl r0
    2878:	00381011 	eorseq	r1, r8, r1, lsl r0
    287c:	45070000 	strmi	r0, [r7, #-0]
    2880:	01000015 	tsteq	r0, r5, lsl r0
    2884:	00381012 	eorseq	r1, r8, r2, lsl r0
    2888:	58070000 	stmdapl	r7, {}	; <UNPREDICTABLE>
    288c:	01000015 	tsteq	r0, r5, lsl r0
    2890:	00381013 	eorseq	r1, r8, r3, lsl r0
    2894:	db070000 	blle	1c289c <__bss_end__+0x19a7ec>
    2898:	01000014 	tsteq	r0, r4, lsl r0
    289c:	00381019 	eorseq	r1, r8, r9, lsl r0
    28a0:	fa070000 	blx	1c28a8 <__bss_end__+0x19a7f8>
    28a4:	01000015 	tsteq	r0, r5, lsl r0
    28a8:	0038101a 	eorseq	r1, r8, sl, lsl r0
    28ac:	f6080000 			; <UNDEFINED> instruction: 0xf6080000
    28b0:	01000014 	tsteq	r0, r4, lsl r0
    28b4:	1974062d 	ldmdbne	r4!, {r0, r2, r3, r5, r9, sl}^
    28b8:	00740001 	rsbseq	r0, r4, r1
    28bc:	9c010000 	stcls	0, cr0, [r1], {-0}
    28c0:	000000c8 	andeq	r0, r0, r8, asr #1
    28c4:	0015eb09 	andseq	lr, r5, r9, lsl #22
    28c8:	092f0100 	stmdbeq	pc!, {r8}	; <UNPREDICTABLE>
    28cc:	000000c8 	andeq	r0, r0, r8, asr #1
    28d0:	0a709102 	beq	1c26ce0 <__bss_end__+0x1bfec30>
    28d4:	0001199c 	muleq	r1, ip, r9
    28d8:	0000003c 	andeq	r0, r0, ip, lsr r0
    28dc:	0100660b 	tsteq	r0, fp, lsl #12
    28e0:	00c80e32 	sbceq	r0, r8, r2, lsr lr
    28e4:	91020000 	mrsls	r0, (UNDEF: 2)
    28e8:	0c000074 	stceq	0, cr0, [r0], {116}	; 0x74
    28ec:	6e690504 	cdpvs	5, 6, cr0, cr9, cr4, {0}
    28f0:	140d0074 	strne	r0, [sp], #-116	; 0xffffff8c
    28f4:	01000015 	tsteq	r0, r5, lsl r0
    28f8:	18a8061c 	stmiane	r8!, {r2, r3, r4, r9, sl}
    28fc:	00cc0001 	sbceq	r0, ip, r1
    2900:	9c010000 	stcls	0, cr0, [r1], {-0}
    2904:	00153309 	andseq	r3, r5, r9, lsl #6
    2908:	091e0100 	ldmdbeq	lr, {r8}
    290c:	000000c8 	andeq	r0, r0, r8, asr #1
    2910:	096c9102 	stmdbeq	ip!, {r1, r8, ip, pc}^
    2914:	00001536 	andeq	r1, r0, r6, lsr r5
    2918:	c8092501 	stmdagt	r9, {r0, r8, sl, sp}
    291c:	02000000 	andeq	r0, r0, #0
    2920:	d00e6891 	mulle	lr, r1, r8
    2924:	3c000118 	stfccs	f0, [r0], {24}
    2928:	1a000000 	bne	2930 <errno+0x292c>
    292c:	0b000001 	bleq	2938 <errno+0x2934>
    2930:	21010066 	tstcs	r1, r6, rrx
    2934:	0000c80e 	andeq	ip, r0, lr, lsl #16
    2938:	74910200 	ldrvc	r0, [r1], #512	; 0x200
    293c:	19280a00 	stmdbne	r8!, {r9, fp}
    2940:	003c0001 	eorseq	r0, ip, r1
    2944:	660b0000 	strvs	r0, [fp], -r0
    2948:	0e280100 	sufeqe	f0, f0, f0
    294c:	000000c8 	andeq	r0, r0, r8, asr #1
    2950:	00709102 	rsbseq	r9, r0, r2, lsl #2
    2954:	011c0000 	tsteq	ip, r0
    2958:	00040000 	andeq	r0, r4, r0
    295c:	00000a97 	muleq	r0, r7, sl
    2960:	0c870104 	stfeqs	f0, [r7], {4}
    2964:	200c0000 	andcs	r0, ip, r0
    2968:	a0000016 	andge	r0, r0, r6, lsl r0
    296c:	e800000d 	stmda	r0, {r0, r2, r3}
    2970:	8c000119 	stfhis	f0, [r0], {25}
    2974:	ca000003 	bgt	2988 <errno+0x2984>
    2978:	02000014 	andeq	r0, r0, #20
    297c:	08790601 	ldmdaeq	r9!, {r0, r9, sl}^
    2980:	02020000 	andeq	r0, r2, #0
    2984:	00069905 	andeq	r9, r6, r5, lsl #18
    2988:	05040300 	streq	r0, [r4, #-768]	; 0xfffffd00
    298c:	00746e69 	rsbseq	r6, r4, r9, ror #28
    2990:	f4050802 	vst2.8	{d0-d1}, [r5], r2
    2994:	02000004 	andeq	r0, r0, #4
    2998:	08770801 	ldmdaeq	r7!, {r0, fp}^
    299c:	02020000 	andeq	r0, r2, #0
    29a0:	00098407 	andeq	r8, r9, r7, lsl #8
    29a4:	07040200 	streq	r0, [r4, -r0, lsl #4]
    29a8:	000002be 			; <UNDEFINED> instruction: 0x000002be
    29ac:	b4070802 	strlt	r0, [r7], #-2050	; 0xfffff7fe
    29b0:	02000002 	andeq	r0, r0, #2
    29b4:	04f90504 	ldrbteq	r0, [r9], #1284	; 0x504
    29b8:	43040000 	movwmi	r0, #16384	; 0x4000
    29bc:	02000010 	andeq	r0, r0, #16
    29c0:	00701722 	rsbseq	r1, r0, r2, lsr #14
    29c4:	04020000 	streq	r0, [r2], #-0
    29c8:	0002b907 	andeq	fp, r2, r7, lsl #18
    29cc:	10c50400 	sbcne	r0, r5, r0, lsl #8
    29d0:	11030000 	mrsne	r0, (UNDEF: 3)
    29d4:	0000641f 	andeq	r6, r0, pc, lsl r4
    29d8:	160b0500 	strne	r0, [fp], -r0, lsl #10
    29dc:	1b010000 	blne	429e4 <__bss_end__+0x1a934>
    29e0:	00011707 	andeq	r1, r1, r7, lsl #14
    29e4:	0119e800 	tsteq	r9, r0, lsl #16
    29e8:	00038c00 	andeq	r8, r3, r0, lsl #24
    29ec:	179c0100 	ldrne	r0, [ip, r0, lsl #2]
    29f0:	06000001 	streq	r0, [r0], -r1
    29f4:	000011b4 			; <UNDEFINED> instruction: 0x000011b4
    29f8:	17221b01 	strne	r1, [r2, -r1, lsl #22]!
    29fc:	02000001 	andeq	r0, r0, #1
    2a00:	63074c91 	movwvs	r4, #31889	; 0x7c91
    2a04:	2c1b0100 	ldfcss	f0, [fp], {-0}
    2a08:	00000033 	andeq	r0, r0, r3, lsr r0
    2a0c:	07489102 	strbeq	r9, [r8, -r2, lsl #2]
    2a10:	1b01006e 	blne	42bd0 <__bss_end__+0x1ab20>
    2a14:	00007742 	andeq	r7, r0, r2, asr #14
    2a18:	44910200 	ldrmi	r0, [r1], #512	; 0x200
    2a1c:	01007308 	tsteq	r0, r8, lsl #6
    2a20:	0119141d 	tsteq	r9, sp, lsl r4
    2a24:	91020000 	mrsls	r0, (UNDEF: 2)
    2a28:	006b0864 	rsbeq	r0, fp, r4, ror #16
    2a2c:	77181e01 	ldrvc	r1, [r8, -r1, lsl #28]
    2a30:	02000000 	andeq	r0, r0, #0
    2a34:	75096091 	strvc	r6, [r9, #-145]	; 0xffffff6f
    2a38:	01003233 	tsteq	r0, r3, lsr r2
    2a3c:	004f4140 	subeq	r4, pc, r0, asr #2
    2a40:	75090000 	strvc	r0, [r9, #-0]
    2a44:	01003436 	tsteq	r0, r6, lsr r4
    2a48:	00564141 	subseq	r4, r6, r1, asr #2
    2a4c:	63080000 	movwvs	r0, #32768	; 0x8000
    2a50:	01003233 	tsteq	r0, r3, lsr r2
    2a54:	00e00943 	rsceq	r0, r0, r3, asr #18
    2a58:	91020000 	mrsls	r0, (UNDEF: 2)
    2a5c:	3663085c 			; <UNDEFINED> instruction: 0x3663085c
    2a60:	6c010034 	stcvs	0, cr0, [r1], {52}	; 0x34
    2a64:	0000ec09 	andeq	lr, r0, r9, lsl #24
    2a68:	50910200 	addspl	r0, r1, r0, lsl #4
    2a6c:	0b040a00 	bleq	105274 <__bss_end__+0xdd1c4>
    2a70:	00004104 	andeq	r4, r0, r4, lsl #2
    2a74:	01360000 	teqeq	r6, r0
    2a78:	00040000 	andeq	r0, r4, r0
    2a7c:	00000b40 	andeq	r0, r0, r0, asr #22
    2a80:	0c870104 	stfeqs	f0, [r7], {4}
    2a84:	7a0c0000 	bvc	302a8c <__bss_end__+0x2da9dc>
    2a88:	a0000016 	andge	r0, r0, r6, lsl r0
    2a8c:	7400000d 	strvc	r0, [r0], #-13
    2a90:	6400011d 	strvs	r0, [r0], #-285	; 0xfffffee3
    2a94:	f500000a 			; <UNDEFINED> instruction: 0xf500000a
    2a98:	02000016 	andeq	r0, r0, #22
    2a9c:	08790601 	ldmdaeq	r9!, {r0, r9, sl}^
    2aa0:	02020000 	andeq	r0, r2, #0
    2aa4:	00069905 	andeq	r9, r6, r5, lsl #18
    2aa8:	05040300 	streq	r0, [r4, #-768]	; 0xfffffd00
    2aac:	00746e69 	rsbseq	r6, r4, r9, ror #28
    2ab0:	f4050802 	vst2.8	{d0-d1}, [r5], r2
    2ab4:	02000004 	andeq	r0, r0, #4
    2ab8:	08770801 	ldmdaeq	r7!, {r0, fp}^
    2abc:	41040000 	mrsmi	r0, (UNDEF: 4)
    2ac0:	02000000 	andeq	r0, r0, #0
    2ac4:	09840702 	stmibeq	r4, {r1, r8, r9, sl}
    2ac8:	58050000 	stmdapl	r5, {}	; <UNPREDICTABLE>
    2acc:	0200000f 	andeq	r0, r0, #15
    2ad0:	00601c1d 	rsbeq	r1, r0, sp, lsl ip
    2ad4:	04020000 	streq	r0, [r2], #-0
    2ad8:	0002be07 	andeq	fp, r2, r7, lsl #28
    2adc:	07080200 	streq	r0, [r8, -r0, lsl #4]
    2ae0:	000002b4 			; <UNDEFINED> instruction: 0x000002b4
    2ae4:	f9050402 			; <UNDEFINED> instruction: 0xf9050402
    2ae8:	05000004 	streq	r0, [r0, #-4]
    2aec:	00001043 	andeq	r1, r0, r3, asr #32
    2af0:	81172202 	tsthi	r7, r2, lsl #4
    2af4:	02000000 	andeq	r0, r0, #0
    2af8:	02b90704 	adcseq	r0, r9, #4, 14	; 0x100000
    2afc:	c5050000 	strgt	r0, [r5, #-0]
    2b00:	03000010 	movweq	r0, #16
    2b04:	00751f11 	rsbseq	r1, r5, r1, lsl pc
    2b08:	d4060000 	strle	r0, [r6], #-0
    2b0c:	01000016 	tsteq	r0, r6, lsl r0
    2b10:	011a071b 	tsteq	sl, fp, lsl r7
    2b14:	1d740000 	ldclne	0, cr0, [r4, #-0]
    2b18:	0a640001 	beq	1902b24 <__bss_end__+0x18daa74>
    2b1c:	9c010000 	stcls	0, cr0, [r1], {-0}
    2b20:	0000011a 	andeq	r0, r0, sl, lsl r1
    2b24:	0011b407 	andseq	fp, r1, r7, lsl #8
    2b28:	2b1b0100 	blcs	6c2f30 <__bss_end__+0x69ae80>
    2b2c:	0000011c 	andeq	r0, r0, ip, lsl r1
    2b30:	08649102 	stmdaeq	r4!, {r1, r8, ip, pc}^
    2b34:	00637273 	rsbeq	r7, r3, r3, ror r2
    2b38:	27461b01 	strbcs	r1, [r6, -r1, lsl #22]
    2b3c:	02000001 	andeq	r0, r0, #1
    2b40:	6e086091 	mcrvs	0, 0, r6, cr8, cr1, {4}
    2b44:	5e1b0100 	mufple	f0, f3, f0
    2b48:	00000088 	andeq	r0, r0, r8, lsl #1
    2b4c:	095c9102 	ldmdbeq	ip, {r1, r8, ip, pc}^
    2b50:	1d010064 	stcne	0, cr0, [r1, #-400]	; 0xfffffe70
    2b54:	00012d14 	andeq	r2, r1, r4, lsl sp
    2b58:	74910200 	ldrvc	r0, [r1], #512	; 0x200
    2b5c:	01007309 	tsteq	r0, r9, lsl #6
    2b60:	01331a1e 	teqeq	r3, lr, lsl sl
    2b64:	91020000 	mrsls	r0, (UNDEF: 2)
    2b68:	33750a70 	cmncc	r5, #112, 20	; 0x70000
    2b6c:	2a010032 	bcs	42c3c <__bss_end__+0x1ab8c>
    2b70:	00006041 	andeq	r6, r0, r1, asr #32
    2b74:	00770900 	rsbseq	r0, r7, r0, lsl #18
    2b78:	541a2b01 	ldrpl	r2, [sl], #-2817	; 0xfffff4ff
    2b7c:	02000000 	andeq	r0, r0, #0
    2b80:	78096c91 	stmdavc	r9, {r0, r4, r7, sl, fp, sp, lr}
    2b84:	1d2b0100 	stfnes	f0, [fp, #-0]
    2b88:	00000054 	andeq	r0, r0, r4, asr r0
    2b8c:	00689102 	rsbeq	r9, r8, r2, lsl #2
    2b90:	1a0c040b 	bne	303bc4 <__bss_end__+0x2dbb14>
    2b94:	0d000001 	stceq	0, cr0, [r0, #-4]
    2b98:	00012c04 	andeq	r2, r1, r4, lsl #24
    2b9c:	01210c00 			; <UNDEFINED> instruction: 0x01210c00
    2ba0:	0d0e0000 	stceq	0, cr0, [lr, #-0]
    2ba4:	00004104 	andeq	r4, r0, r4, lsl #2
    2ba8:	48040d00 	stmdami	r4, {r8, sl, fp}
    2bac:	00000000 	andeq	r0, r0, r0
    2bb0:	00000054 	andeq	r0, r0, r4, asr r0
    2bb4:	0bfc0004 	bleq	fff02bcc <__bss_end__+0xffedab1c>
    2bb8:	01040000 	mrseq	r0, (UNDEF: 4)
    2bbc:	00000c87 	andeq	r0, r0, r7, lsl #25
    2bc0:	0017070c 	andseq	r0, r7, ip, lsl #14
    2bc4:	000da000 	andeq	sl, sp, r0
    2bc8:	0127d800 			; <UNDEFINED> instruction: 0x0127d800
    2bcc:	00002400 	andeq	r2, r0, r0, lsl #8
    2bd0:	001dcb00 	andseq	ip, sp, r0, lsl #22
    2bd4:	16e90200 	strbtne	r0, [r9], r0, lsl #4
    2bd8:	08010000 	stmdaeq	r1, {}	; <UNPREDICTABLE>
    2bdc:	00005006 	andeq	r5, r0, r6
    2be0:	0127d800 			; <UNDEFINED> instruction: 0x0127d800
    2be4:	00002400 	andeq	r2, r0, r0, lsl #8
    2be8:	509c0100 	addspl	r0, ip, r0, lsl #2
    2bec:	03000000 	movweq	r0, #0
    2bf0:	00001700 	andeq	r1, r0, r0, lsl #14
    2bf4:	50220801 	eorpl	r0, r2, r1, lsl #16
    2bf8:	02000000 	andeq	r0, r0, #0
    2bfc:	00047091 	muleq	r4, r1, r0
    2c00:	f9050405 			; <UNDEFINED> instruction: 0xf9050405
    2c04:	00000004 	andeq	r0, r0, r4
    2c08:	00000022 	andeq	r0, r0, r2, lsr #32
    2c0c:	0c4f0002 	mcrreq	0, 0, r0, pc, cr2
    2c10:	01040000 	mrseq	r0, (UNDEF: 4)
    2c14:	00001e5c 	andeq	r1, r0, ip, asr lr
    2c18:	000127fc 	strdeq	r2, [r1], -ip
    2c1c:	0001280c 	andeq	r2, r1, ip, lsl #16
    2c20:	00001763 	andeq	r1, r0, r3, ror #14
    2c24:	00000da0 	andeq	r0, r0, r0, lsr #27
    2c28:	00000ecc 	andeq	r0, r0, ip, asr #29
    2c2c:	022f8001 	eoreq	r8, pc, #1
    2c30:	00040000 	andeq	r0, r4, r0
    2c34:	00000c63 	andeq	r0, r0, r3, ror #24
    2c38:	0c870104 	stfeqs	f0, [r7], {4}
    2c3c:	ea0c0000 	b	302c44 <__bss_end__+0x2dab94>
    2c40:	a0000017 	andge	r0, r0, r7, lsl r0
    2c44:	0c00000d 	stceq	0, cr0, [r0], {13}
    2c48:	58000128 	stmdapl	r0, {r3, r5, r8}
    2c4c:	03000000 	movweq	r0, #0
    2c50:	0200001f 	andeq	r0, r0, #31
    2c54:	08790601 	ldmdaeq	r9!, {r0, r9, sl}^
    2c58:	01020000 	mrseq	r0, (UNDEF: 2)
    2c5c:	00087708 	andeq	r7, r8, r8, lsl #14
    2c60:	05020200 	streq	r0, [r2, #-512]	; 0xfffffe00
    2c64:	00000699 	muleq	r0, r9, r6
    2c68:	84070202 	strhi	r0, [r7], #-514	; 0xfffffdfe
    2c6c:	03000009 	movweq	r0, #9
    2c70:	6e690504 	cdpvs	5, 6, cr0, cr9, cr4, {0}
    2c74:	e8040074 	stmda	r4, {r2, r4, r5, r6}
    2c78:	03000002 	movweq	r0, #2
    2c7c:	0054253d 	subseq	r2, r4, sp, lsr r5
    2c80:	04020000 	streq	r0, [r2], #-0
    2c84:	0002be07 	andeq	fp, r2, r7, lsl #28
    2c88:	05080200 	streq	r0, [r8, #-512]	; 0xfffffe00
    2c8c:	000004f4 	strdeq	r0, [r0], -r4
    2c90:	b4070802 	strlt	r0, [r7], #-2050	; 0xfffff7fe
    2c94:	04000002 	streq	r0, [r0], #-2
    2c98:	00000226 	andeq	r0, r0, r6, lsr #4
    2c9c:	48157103 	ldmdami	r5, {r0, r1, r8, ip, sp, lr}
    2ca0:	04000000 	streq	r0, [r0], #-0
    2ca4:	0000053e 	andeq	r0, r0, lr, lsr r5
    2ca8:	69138003 	ldmdbvs	r3, {r0, r1, pc}
    2cac:	05000000 	streq	r0, [r0, #-0]
    2cb0:	000003cc 	andeq	r0, r0, ip, asr #7
    2cb4:	00540407 	subseq	r0, r4, r7, lsl #8
    2cb8:	08040000 	stmdaeq	r4, {}	; <UNPREDICTABLE>
    2cbc:	0000b80e 	andeq	fp, r0, lr, lsl #16
    2cc0:	09de0600 	ldmibeq	lr, {r9, sl}^
    2cc4:	06000000 	streq	r0, [r0], -r0
    2cc8:	0000020a 	andeq	r0, r0, sl, lsl #4
    2ccc:	06d80601 	ldrbeq	r0, [r8], r1, lsl #12
    2cd0:	06020000 	streq	r0, [r2], -r0
    2cd4:	0000064e 	andeq	r0, r0, lr, asr #12
    2cd8:	09f10603 	ldmibeq	r1!, {r0, r1, r9, sl}^
    2cdc:	06040000 	streq	r0, [r4], -r0
    2ce0:	000008d7 	ldrdeq	r0, [r0], -r7
    2ce4:	45040005 	strmi	r0, [r4, #-5]
    2ce8:	0400000b 	streq	r0, [r0], #-11
    2cec:	00810313 	addeq	r0, r1, r3, lsl r3
    2cf0:	b8070000 	stmdalt	r7, {}	; <UNPREDICTABLE>
    2cf4:	08000000 	stmdaeq	r0, {}	; <UNPREDICTABLE>
    2cf8:	000003e9 	andeq	r0, r0, r9, ror #7
    2cfc:	c4591504 	ldrbgt	r1, [r9], #-1284	; 0xfffffafc
    2d00:	05000000 	streq	r0, [r0, #-0]
    2d04:	00000003 	andeq	r0, r0, r3
    2d08:	00480900 	subeq	r0, r8, r0, lsl #18
    2d0c:	00eb0000 	rsceq	r0, fp, r0
    2d10:	540a0000 	strpl	r0, [sl], #-0
    2d14:	00000000 	andeq	r0, r0, r0
    2d18:	040d0b00 	streq	r0, [sp], #-2816	; 0xfffff500
    2d1c:	05040000 	streq	r0, [r4, #-0]
    2d20:	08080138 	stmdaeq	r8, {r3, r4, r5, r8}
    2d24:	0c000001 	stceq	0, cr0, [r0], {1}
    2d28:	0000033a 	andeq	r0, r0, sl, lsr r3
    2d2c:	11013905 	tstne	r1, r5, lsl #18
    2d30:	000000db 	ldrdeq	r0, [r0], -fp
    2d34:	730d0000 	movwvc	r0, #53248	; 0xd000
    2d38:	05000002 	streq	r0, [r0, #-2]
    2d3c:	eb21013b 	bl	843230 <__bss_end__+0x81b180>
    2d40:	0e000000 	cdpeq	0, 0, cr0, cr0, cr0, {0}
    2d44:	0000005c 	andeq	r0, r0, ip, asr r0
    2d48:	0b060200 	bleq	183550 <__bss_end__+0x15b4a0>
    2d4c:	00018410 	andeq	r8, r1, r0, lsl r4
    2d50:	61740f00 	cmnvs	r4, r0, lsl #30
    2d54:	0c060067 	stceq	0, cr0, [r6], {103}	; 0x67
    2d58:	00010818 	andeq	r0, r1, r8, lsl r8
    2d5c:	6d0f0000 	stcvs	0, cr0, [pc, #-0]	; 2d64 <errno+0x2d60>
    2d60:	06006773 			; <UNDEFINED> instruction: 0x06006773
    2d64:	01840f0d 	orreq	r0, r4, sp, lsl #30
    2d68:	10040000 	andne	r0, r4, r0
    2d6c:	0000097b 	andeq	r0, r0, fp, ror r9
    2d70:	690f0e06 	stmdbvs	pc, {r1, r2, r9, sl, fp}	; <UNPREDICTABLE>
    2d74:	e4000000 	str	r0, [r0], #-0
    2d78:	04af1001 	strteq	r1, [pc], #1	; 2d80 <errno+0x2d7c>
    2d7c:	0f060000 	svceq	0x00060000
    2d80:	0001940f 	andeq	r9, r1, pc, lsl #8
    2d84:	1001e800 	andne	lr, r1, r0, lsl #16
    2d88:	00000607 	andeq	r0, r0, r7, lsl #12
    2d8c:	750f1006 	strvc	r1, [pc, #-6]	; 2d8e <errno+0x2d8a>
    2d90:	f4000000 	vst4.8	{d0-d3}, [r0], r0
    2d94:	06cb1001 	strbeq	r1, [fp], r1
    2d98:	11060000 	mrsne	r0, (UNDEF: 6)
    2d9c:	0000750f 	andeq	r7, r0, pc, lsl #10
    2da0:	1001f800 	andne	pc, r1, r0, lsl #16
    2da4:	00000af4 	strdeq	r0, [r0], -r4
    2da8:	690f1206 	stmdbvs	pc, {r1, r2, r9, ip}	; <UNPREDICTABLE>
    2dac:	fc000000 	stc2	0, cr0, [r0], {-0}
    2db0:	69090001 	stmdbvs	r9, {r0}
    2db4:	94000000 	strls	r0, [r0], #-0
    2db8:	0a000001 	beq	2dc4 <errno+0x2dc0>
    2dbc:	00000054 	andeq	r0, r0, r4, asr r0
    2dc0:	69090077 	stmdbvs	r9, {r0, r1, r2, r4, r5, r6}
    2dc4:	a4000000 	strge	r0, [r0], #-0
    2dc8:	0a000001 	beq	2dd4 <errno+0x2dd0>
    2dcc:	00000054 	andeq	r0, r0, r4, asr r0
    2dd0:	27110002 	ldrcs	r0, [r1, -r2]
    2dd4:	06000001 	streq	r0, [r0], -r1
    2dd8:	01150313 	tsteq	r5, r3, lsl r3
    2ddc:	02000000 	andeq	r0, r0, #0
    2de0:	00026112 	andeq	r6, r2, r2, lsl r1
    2de4:	210d0800 	tstcs	sp, r0, lsl #16
    2de8:	000001be 			; <UNDEFINED> instruction: 0x000001be
    2dec:	01a40413 			; <UNDEFINED> instruction: 0x01a40413
    2df0:	04020000 	streq	r0, [r2], #-0
    2df4:	0002b907 	andeq	fp, r2, r7, lsl #18
    2df8:	05040200 	streq	r0, [r4, #-512]	; 0xfffffe00
    2dfc:	000004f9 	strdeq	r0, [r0], -r9
    2e00:	00104304 	andseq	r4, r0, r4, lsl #6
    2e04:	17220700 	strne	r0, [r2, -r0, lsl #14]!
    2e08:	000001c4 	andeq	r0, r0, r4, asr #3
    2e0c:	0017d814 	andseq	sp, r7, r4, lsl r8
    2e10:	070a0200 	streq	r0, [sl, -r0, lsl #4]
    2e14:	000001f4 	strdeq	r0, [r0], -r4
    2e18:	0001284c 	andeq	r2, r1, ip, asr #16
    2e1c:	00000018 	andeq	r0, r0, r8, lsl r0
    2e20:	04159c01 	ldreq	r9, [r5], #-3073	; 0xfffff3ff
    2e24:	00110b16 	andseq	r0, r1, r6, lsl fp
    2e28:	25300100 	ldrcs	r0, [r0, #-256]!	; 0xffffff00
    2e2c:	000001d2 	ldrdeq	r0, [r0], -r2
    2e30:	00012834 	andeq	r2, r1, r4, lsr r8
    2e34:	00000018 	andeq	r0, r0, r8, lsl r0
    2e38:	f0179c01 			; <UNDEFINED> instruction: 0xf0179c01
    2e3c:	01000011 	tsteq	r0, r1, lsl r0
    2e40:	01d2250e 	bicseq	r2, r2, lr, lsl #10
    2e44:	280c0000 	stmdacs	ip, {}	; <UNPREDICTABLE>
    2e48:	00280001 	eoreq	r0, r8, r1
    2e4c:	9c010000 	stcls	0, cr0, [r1], {-0}
    2e50:	67657218 			; <UNDEFINED> instruction: 0x67657218
    2e54:	1b100100 	blne	40325c <__bss_end__+0x3db1ac>
    2e58:	000001d2 	ldrdeq	r0, [r0], -r2
    2e5c:	00749102 	rsbseq	r9, r4, r2, lsl #2
    2e60:	0002d100 	andeq	sp, r2, r0, lsl #2
    2e64:	de000400 	cfcpysle	mvf0, mvf0
    2e68:	0400000d 	streq	r0, [r0], #-13
    2e6c:	000c8701 	andeq	r8, ip, r1, lsl #14
    2e70:	187a0c00 	ldmdane	sl!, {sl, fp}^
    2e74:	0da00000 	stceq	0, cr0, [r0]
    2e78:	28640000 	stmdacs	r4!, {}^	; <UNPREDICTABLE>
    2e7c:	005c0001 	subseq	r0, ip, r1
    2e80:	217b0000 	cmncs	fp, r0
    2e84:	01020000 	mrseq	r0, (UNDEF: 2)
    2e88:	00087906 	andeq	r7, r8, r6, lsl #18
    2e8c:	08010200 	stmdaeq	r1, {r9}
    2e90:	00000877 	andeq	r0, r0, r7, ror r8
    2e94:	99050202 	stmdbls	r5, {r1, r9}
    2e98:	02000006 	andeq	r0, r0, #6
    2e9c:	09840702 	stmibeq	r4, {r1, r8, r9, sl}
    2ea0:	04030000 	streq	r0, [r3], #-0
    2ea4:	746e6905 	strbtvc	r6, [lr], #-2309	; 0xfffff6fb
    2ea8:	02e80400 	rsceq	r0, r8, #0, 8
    2eac:	3d020000 	stccc	0, cr0, [r2, #-0]
    2eb0:	00005425 	andeq	r5, r0, r5, lsr #8
    2eb4:	07040200 	streq	r0, [r4, -r0, lsl #4]
    2eb8:	000002be 			; <UNDEFINED> instruction: 0x000002be
    2ebc:	f4050802 	vst2.8	{d0-d1}, [r5], r2
    2ec0:	02000004 	andeq	r0, r0, #4
    2ec4:	02b40708 	adcseq	r0, r4, #8, 14	; 0x200000
    2ec8:	26040000 	strcs	r0, [r4], -r0
    2ecc:	02000002 	andeq	r0, r0, #2
    2ed0:	00481571 	subeq	r1, r8, r1, ror r5
    2ed4:	3e040000 	cdpcc	0, 0, cr0, cr4, cr0, {0}
    2ed8:	02000005 	andeq	r0, r0, #5
    2edc:	00691380 	rsbeq	r1, r9, r0, lsl #7
    2ee0:	cc050000 	stcgt	0, cr0, [r5], {-0}
    2ee4:	07000003 	streq	r0, [r0, -r3]
    2ee8:	00005404 	andeq	r5, r0, r4, lsl #8
    2eec:	0e080300 	cdpeq	3, 0, cr0, cr8, cr0, {0}
    2ef0:	000000b8 	strheq	r0, [r0], -r8
    2ef4:	0009de06 	andeq	sp, r9, r6, lsl #28
    2ef8:	0a060000 	beq	182f00 <__bss_end__+0x15ae50>
    2efc:	01000002 	tsteq	r0, r2
    2f00:	0006d806 	andeq	sp, r6, r6, lsl #16
    2f04:	4e060200 	cdpmi	2, 0, cr0, cr6, cr0, {0}
    2f08:	03000006 	movweq	r0, #6
    2f0c:	0009f106 	andeq	pc, r9, r6, lsl #2
    2f10:	d7060400 	strle	r0, [r6, -r0, lsl #8]
    2f14:	05000008 	streq	r0, [r0, #-8]
    2f18:	0b450400 	bleq	1143f20 <__bss_end__+0x111be70>
    2f1c:	13030000 	movwne	r0, #12288	; 0x3000
    2f20:	00008103 	andeq	r8, r0, r3, lsl #2
    2f24:	00b80700 	adcseq	r0, r8, r0, lsl #14
    2f28:	e9080000 	stmdb	r8, {}	; <UNPREDICTABLE>
    2f2c:	03000003 	movweq	r0, #3
    2f30:	00c45915 	sbceq	r5, r4, r5, lsl r9
    2f34:	03050000 	movweq	r0, #20480	; 0x5000
    2f38:	00000000 	andeq	r0, r0, r0
    2f3c:	00004809 	andeq	r4, r0, r9, lsl #16
    2f40:	0000eb00 	andeq	lr, r0, r0, lsl #22
    2f44:	00540a00 	subseq	r0, r4, r0, lsl #20
    2f48:	00000000 	andeq	r0, r0, r0
    2f4c:	00040d0b 	andeq	r0, r4, fp, lsl #26
    2f50:	38040400 	stmdacc	r4, {sl}
    2f54:	01080801 	tsteq	r8, r1, lsl #16
    2f58:	3a0c0000 	bcc	302f60 <__bss_end__+0x2daeb0>
    2f5c:	04000003 	streq	r0, [r0], #-3
    2f60:	db110139 	blle	44344c <__bss_end__+0x41b39c>
    2f64:	00000000 	andeq	r0, r0, r0
    2f68:	02730d00 	rsbseq	r0, r3, #0, 26
    2f6c:	3b040000 	blcc	102f74 <__bss_end__+0xdaec4>
    2f70:	00eb2101 	rsceq	r2, fp, r1, lsl #2
    2f74:	5c0e0000 	stcpl	0, cr0, [lr], {-0}
    2f78:	00000000 	andeq	r0, r0, r0
    2f7c:	100b0502 	andne	r0, fp, r2, lsl #10
    2f80:	00000184 	andeq	r0, r0, r4, lsl #3
    2f84:	6761740f 	strbvs	r7, [r1, -pc, lsl #8]!
    2f88:	180c0500 	stmdane	ip, {r8, sl}
    2f8c:	00000108 	andeq	r0, r0, r8, lsl #2
    2f90:	736d0f00 	cmnvc	sp, #0, 30
    2f94:	0d050067 	stceq	0, cr0, [r5, #-412]	; 0xfffffe64
    2f98:	0001840f 	andeq	r8, r1, pc, lsl #8
    2f9c:	7b100400 	blvc	403fa4 <__bss_end__+0x3dbef4>
    2fa0:	05000009 	streq	r0, [r0, #-9]
    2fa4:	00690f0e 	rsbeq	r0, r9, lr, lsl #30
    2fa8:	01e40000 	mvneq	r0, r0
    2fac:	0004af10 	andeq	sl, r4, r0, lsl pc
    2fb0:	0f0f0500 	svceq	0x000f0500
    2fb4:	00000194 	muleq	r0, r4, r1
    2fb8:	071001e8 	ldreq	r0, [r0, -r8, ror #3]
    2fbc:	05000006 	streq	r0, [r0, #-6]
    2fc0:	00750f10 	rsbseq	r0, r5, r0, lsl pc
    2fc4:	01f40000 	mvnseq	r0, r0
    2fc8:	0006cb10 	andeq	ip, r6, r0, lsl fp
    2fcc:	0f110500 	svceq	0x00110500
    2fd0:	00000075 	andeq	r0, r0, r5, ror r0
    2fd4:	f41001f8 			; <UNDEFINED> instruction: 0xf41001f8
    2fd8:	0500000a 	streq	r0, [r0, #-10]
    2fdc:	00690f12 	rsbeq	r0, r9, r2, lsl pc
    2fe0:	01fc0000 	mvnseq	r0, r0
    2fe4:	00690900 	rsbeq	r0, r9, r0, lsl #18
    2fe8:	01940000 	orrseq	r0, r4, r0
    2fec:	540a0000 	strpl	r0, [sl], #-0
    2ff0:	77000000 	strvc	r0, [r0, -r0]
    2ff4:	00690900 	rsbeq	r0, r9, r0, lsl #18
    2ff8:	01a40000 			; <UNDEFINED> instruction: 0x01a40000
    2ffc:	540a0000 	strpl	r0, [sl], #-0
    3000:	02000000 	andeq	r0, r0, #0
    3004:	01271100 			; <UNDEFINED> instruction: 0x01271100
    3008:	13050000 	movwne	r0, #20480	; 0x5000
    300c:	00011503 	andeq	r1, r1, r3, lsl #10
    3010:	12020000 	andne	r0, r2, #0
    3014:	00000261 	andeq	r0, r0, r1, ror #4
    3018:	be210d07 	cdplt	13, 2, cr0, cr1, cr7, {0}
    301c:	13000001 	movwne	r0, #1
    3020:	0001a404 	andeq	sl, r1, r4, lsl #8
    3024:	07040200 	streq	r0, [r4, -r0, lsl #4]
    3028:	000002b9 			; <UNDEFINED> instruction: 0x000002b9
    302c:	f9050402 			; <UNDEFINED> instruction: 0xf9050402
    3030:	14000004 	strne	r0, [r0], #-4
    3034:	05200604 	streq	r0, [r0, #-1540]!	; 0xfffff9fc
    3038:	00000200 	andeq	r0, r0, r0, lsl #4
    303c:	000fa015 	andeq	sl, pc, r5, lsl r0	; <UNPREDICTABLE>
    3040:	0e210600 	cfmadda32eq	mvax0, mvax0, mvfx1, mvfx0
    3044:	000001cb 	andeq	r0, r0, fp, asr #3
    3048:	000f7515 	andeq	r7, pc, r5, lsl r5	; <UNPREDICTABLE>
    304c:	0f220600 	svceq	0x00220600
    3050:	00000200 	andeq	r0, r0, r0, lsl #4
    3054:	000ee115 	andeq	lr, lr, r5, lsl r1
    3058:	10230600 	eorne	r0, r3, r0, lsl #12
    305c:	00000203 	andeq	r0, r0, r3, lsl #4
    3060:	17041600 	strne	r1, [r4, -r0, lsl #12]
    3064:	02020413 	andeq	r0, r2, #318767104	; 0x13000000
    3068:	08180000 	ldmdaeq	r8, {}	; <UNPREDICTABLE>
    306c:	2d091e06 	stccs	14, cr1, [r9, #-24]	; 0xffffffe8
    3070:	19000002 	stmdbne	r0, {r1}
    3074:	00000f8f 	andeq	r0, r0, pc, lsl #31
    3078:	41091f06 	tstmi	r9, r6, lsl #30
    307c:	00000000 	andeq	r0, r0, r0
    3080:	000fcc19 	andeq	ip, pc, r9, lsl ip	; <UNPREDICTABLE>
    3084:	07240600 	streq	r0, [r4, -r0, lsl #12]!
    3088:	000001d2 	ldrdeq	r0, [r0], -r2
    308c:	1b040004 	blne	1030a4 <__bss_end__+0xdaff4>
    3090:	06000010 			; <UNDEFINED> instruction: 0x06000010
    3094:	02090325 	andeq	r0, r9, #-1811939328	; 0x94000000
    3098:	2d070000 	stccs	0, cr0, [r7, #-0]
    309c:	1a000002 	bne	30ac <errno+0x30a8>
    30a0:	00001861 	andeq	r1, r0, r1, ror #16
    30a4:	64060a01 	strvs	r0, [r6], #-2561	; 0xfffff5ff
    30a8:	5c000128 	stfpls	f0, [r0], {40}	; 0x28
    30ac:	01000000 	mrseq	r0, (UNDEF: 0)
    30b0:	0002a09c 	muleq	r2, ip, r0
    30b4:	18751b00 	ldmdane	r5!, {r8, r9, fp, ip}^
    30b8:	0b010000 	bleq	430c0 <__bss_end__+0x1b010>
    30bc:	0002ab0b 	andeq	sl, r2, fp, lsl #22
    30c0:	74910200 	ldrvc	r0, [r1], #512	; 0x200
    30c4:	00127f1b 	andseq	r7, r2, fp, lsl pc
    30c8:	130c0100 	movwne	r0, #49408	; 0xc100
    30cc:	000001c4 	andeq	r0, r0, r4, asr #3
    30d0:	1b709102 	blne	1c274e0 <__bss_end__+0x1bff430>
    30d4:	00001290 	muleq	r0, r0, r2
    30d8:	b1180d01 	tstlt	r8, r1, lsl #26
    30dc:	02000002 	andeq	r0, r0, #2
    30e0:	061b6c91 			; <UNDEFINED> instruction: 0x061b6c91
    30e4:	01000011 	tsteq	r0, r1, lsl r0
    30e8:	02b1180e 	adcseq	r1, r1, #917504	; 0xe0000
    30ec:	91020000 	mrsls	r0, (UNDEF: 2)
    30f0:	11eb1b68 	mvnne	r1, r8, ror #22
    30f4:	0f010000 	svceq	0x00010000
    30f8:	0002ce12 	andeq	ip, r2, r2, lsl lr
    30fc:	00910200 	addseq	r0, r1, r0, lsl #4
    3100:	00411c00 	subeq	r1, r1, r0, lsl #24
    3104:	02ab0000 	adceq	r0, fp, #0
    3108:	001d0000 	andseq	r0, sp, r0
    310c:	02a00413 	adceq	r0, r0, #318767104	; 0x13000000
    3110:	04130000 	ldreq	r0, [r3], #-0
    3114:	000002bd 			; <UNDEFINED> instruction: 0x000002bd
    3118:	02c90413 	sbceq	r0, r9, #318767104	; 0x13000000
    311c:	b7070000 	strlt	r0, [r7, -r0]
    3120:	02000002 	andeq	r0, r0, #2
    3124:	08800801 	stmeq	r0, {r0, fp}
    3128:	c2070000 	andgt	r0, r7, #0
    312c:	13000002 	movwne	r0, #2
    3130:	00023904 	andeq	r3, r2, r4, lsl #18
	...

Disassembly of section .debug_abbrev:

00000000 <.debug_abbrev>:
{
   0:	25011101 	strcs	r1, [r1, #-257]	; 0xfffffeff
   4:	030b130e 	movweq	r1, #45838	; 0xb30e
   8:	550e1b0e 	strpl	r1, [lr, #-2830]	; 0xfffff4f2
   c:	10011117 	andne	r1, r1, r7, lsl r1
    bootinfo = bi;
  10:	02000017 	andeq	r0, r0, #23
  14:	0b0b0024 	bleq	2c00ac <__bss_end__+0x297ffc>
  18:	0e030b3e 	vmoveq.16	d3[0], r0
  1c:	16030000 	strne	r0, [r3], -r0
}
  20:	3a0e0300 	bcc	380c28 <__bss_end__+0x358b78>
  24:	390b3b0b 	stmdbcc	fp, {r0, r1, r3, r8, r9, fp, ip, sp}
  28:	0013490b 	andseq	r4, r3, fp, lsl #18
  2c:	00240400 	eoreq	r0, r4, r0, lsl #8
{
  30:	0b3e0b0b 	bleq	f82c64 <__bss_end__+0xf5abb4>
  34:	00000803 	andeq	r0, r0, r3, lsl #16
    return bootinfo;
  38:	3e010405 	cdpcc	4, 0, cr0, cr1, cr5, {0}
  3c:	490b0b0b 	stmdbmi	fp, {r0, r1, r3, r8, r9, fp}
  40:	3b0b3a13 	blcc	2ce894 <__bss_end__+0x2a67e4>
}
  44:	010b390b 	tsteq	fp, fp, lsl #18
  48:	06000013 			; <UNDEFINED> instruction: 0x06000013
  4c:	0e030028 	cdpeq	0, 0, cr0, cr3, cr8, {1}
  50:	00000d1c 	andeq	r0, r0, ip, lsl sp
  54:	03002807 	movweq	r2, #2055	; 0x807
  58:	00061c0e 	andeq	r1, r6, lr, lsl #24
  5c:	01040800 	tsteq	r4, r0, lsl #16
  60:	0b3e0e03 	bleq	f83874 <__bss_end__+0xf5b7c4>
  64:	13490b0b 	movtne	r0, #39691	; 0x9b0b
  68:	0b3b0b3a 	bleq	ec2d58 <__bss_end__+0xe9aca8>
  6c:	13010b39 	movwne	r0, #6969	; 0x1b39
  70:	28090000 	stmdacs	r9, {}	; <UNPREDICTABLE>
  74:	1c0e0300 	stcne	3, cr0, [lr], {-0}
  78:	0a00000b 	beq	ac <errno+0xa8>
  7c:	13490026 	movtne	r0, #36902	; 0x9026
  80:	340b0000 	strcc	r0, [fp], #-0
  84:	3a0e0300 	bcc	380c8c <__bss_end__+0x358bdc>
  88:	390b3b0b 	stmdbcc	fp, {r0, r1, r3, r8, r9, fp, ip, sp}
  8c:	0213490b 	andseq	r4, r3, #180224	; 0x2c000
  90:	0c000018 	stceq	0, cr0, [r0], {24}
  94:	13490101 	movtne	r0, #37121	; 0x9101
  98:	00001301 	andeq	r1, r0, r1, lsl #6
  9c:	4900210d 	stmdbmi	r0, {r0, r2, r3, r8, sp}
  a0:	000b2f13 	andeq	r2, fp, r3, lsl pc
  a4:	01130e00 	tsteq	r3, r0, lsl #28
  a8:	0b0b0e03 	bleq	2c38bc <__bss_end__+0x29b80c>
  ac:	0b3b0b3a 	bleq	ec2d9c <__bss_end__+0xe9acec>
  b0:	13010b39 	movwne	r0, #6969	; 0x1b39
  b4:	0d0f0000 	stceq	0, cr0, [pc, #-0]	; bc <errno+0xb8>
  b8:	3a0e0300 	bcc	380cc0 <__bss_end__+0x358c10>
  bc:	390b3b0b 	stmdbcc	fp, {r0, r1, r3, r8, r9, fp, ip, sp}
  c0:	3813490b 	ldmdacc	r3, {r0, r1, r3, r8, fp, lr}
  c4:	1000000b 	andne	r0, r0, fp
  c8:	0e030113 	mcreq	1, 0, r0, cr3, cr3, {0}
  cc:	0b3a0b0b 	bleq	e82d00 <__bss_end__+0xe5ac50>
  d0:	0b39053b 	bleq	e415c4 <__bss_end__+0xe19514>
  d4:	00001301 	andeq	r1, r0, r1, lsl #6
  d8:	03000d11 	movweq	r0, #3345	; 0xd11
  dc:	3b0b3a0e 	blcc	2ce91c <__bss_end__+0x2a686c>
  e0:	490b3905 	stmdbmi	fp, {r0, r2, r8, fp, ip, sp}
  e4:	000b3813 	andeq	r3, fp, r3, lsl r8
  e8:	00161200 	andseq	r1, r6, r0, lsl #4
  ec:	0b3a0e03 	bleq	e83900 <__bss_end__+0xe5b850>
  f0:	0b39053b 	bleq	e415e4 <__bss_end__+0xe19534>
  f4:	00001349 	andeq	r1, r0, r9, asr #6
  f8:	03011313 	movweq	r1, #4883	; 0x1313
  fc:	3a050b0e 	bcc	142d3c <__bss_end__+0x11ac8c>
 100:	390b3b0b 	stmdbcc	fp, {r0, r1, r3, r8, r9, fp, ip, sp}
 104:	0013010b 	andseq	r0, r3, fp, lsl #2
 108:	000d1400 	andeq	r1, sp, r0, lsl #8
 10c:	0b3a0803 	bleq	e82120 <__bss_end__+0xe5a070>
 110:	0b390b3b 	bleq	e42e04 <__bss_end__+0xe1ad54>
 114:	0b381349 	bleq	e04e40 <__bss_end__+0xddcd90>
 118:	0d150000 	ldceq	0, cr0, [r5, #-0]
 11c:	3a0e0300 	bcc	380d24 <__bss_end__+0x358c74>
 120:	390b3b0b 	stmdbcc	fp, {r0, r1, r3, r8, r9, fp, ip, sp}
 124:	3813490b 	ldmdacc	r3, {r0, r1, r3, r8, fp, lr}
 128:	16000005 	strne	r0, [r0], -r5
 12c:	0e030016 	mcreq	0, 0, r0, cr3, cr6, {0}
 130:	0b3b0b3a 	bleq	ec2e20 <__bss_end__+0xe9ad70>
 134:	13490b39 	movtne	r0, #39737	; 0x9b39
 138:	00050188 	andeq	r0, r5, r8, lsl #3
 13c:	00341700 	eorseq	r1, r4, r0, lsl #14
 140:	0b3a0e03 	bleq	e83954 <__bss_end__+0xe5b8a4>
 144:	0b390b3b 	bleq	e42e38 <__bss_end__+0xe1ad88>
 148:	193f1349 	ldmdbne	pc!, {r0, r3, r6, r8, r9, ip}	; <UNPREDICTABLE>
 14c:	0000193c 	andeq	r1, r0, ip, lsr r9
 150:	0b000f18 	bleq	3db8 <errno+0x3db4>
 154:	0013490b 	andseq	r4, r3, fp, lsl #18
 158:	012e1900 			; <UNDEFINED> instruction: 0x012e1900
 15c:	0e03193f 			; <UNDEFINED> instruction: 0x0e03193f
 160:	0b3b0b3a 	bleq	ec2e50 <__bss_end__+0xe9ada0>
 164:	19270b39 	stmdbne	r7!, {r0, r3, r4, r5, r8, r9, fp}
 168:	01111349 	tsteq	r1, r9, asr #6
 16c:	18400612 	stmdane	r0, {r1, r4, r9, sl}^
 170:	01194296 			; <UNDEFINED> instruction: 0x01194296
 174:	1a000013 	bne	1c8 <errno+0x1c4>
 178:	0e030005 	cdpeq	0, 0, cr0, cr3, cr5, {0}
 17c:	0b3b0b3a 	bleq	ec2e6c <__bss_end__+0xe9adbc>
 180:	13490b39 	movtne	r0, #39737	; 0x9b39
 184:	00001802 	andeq	r1, r0, r2, lsl #16
 188:	03012e1b 	movweq	r2, #7707	; 0x1e1b
 18c:	3b0b3a0e 	blcc	2ce9cc <__bss_end__+0x2a691c>
 190:	270b3905 	strcs	r3, [fp, -r5, lsl #18]
 194:	11134919 	tstne	r3, r9, lsl r9
 198:	40061201 	andmi	r1, r6, r1, lsl #4
 19c:	19429618 	stmdbne	r2, {r3, r4, r9, sl, ip, pc}^
 1a0:	00001301 	andeq	r1, r0, r1, lsl #6
 1a4:	0300051c 	movweq	r0, #1308	; 0x51c
 1a8:	3b0b3a0e 	blcc	2ce9e8 <__bss_end__+0x2a6938>
 1ac:	490b3905 	stmdbmi	fp, {r0, r2, r8, fp, ip, sp}
 1b0:	00180213 	andseq	r0, r8, r3, lsl r2
 1b4:	00341d00 	eorseq	r1, r4, r0, lsl #26
 1b8:	0b3a0e03 	bleq	e839cc <__bss_end__+0xe5b91c>
 1bc:	0b39053b 	bleq	e416b0 <__bss_end__+0xe19600>
 1c0:	18021349 	stmdane	r2, {r0, r3, r6, r8, r9, ip}
 1c4:	341e0000 	ldrcc	r0, [lr], #-0
 1c8:	3a080300 	bcc	200dd0 <__bss_end__+0x1d8d20>
 1cc:	39053b0b 	stmdbcc	r5, {r0, r1, r3, r8, r9, fp, ip, sp}
 1d0:	0213490b 	andseq	r4, r3, #180224	; 0x2c000
 1d4:	1f000018 	svcne	0x00000018
 1d8:	0e03012e 	adfeqsp	f0, f3, #0.5
 1dc:	0b3b0b3a 	bleq	ec2ecc <__bss_end__+0xe9ae1c>
 1e0:	19270b39 	stmdbne	r7!, {r0, r3, r4, r5, r8, r9, fp}
 1e4:	01111349 	tsteq	r1, r9, asr #6
 1e8:	18400612 	stmdane	r0, {r1, r4, r9, sl}^
 1ec:	01194296 			; <UNDEFINED> instruction: 0x01194296
 1f0:	20000013 	andcs	r0, r0, r3, lsl r0
 1f4:	08030005 	stmdaeq	r3, {r0, r2}
 1f8:	0b3b0b3a 	bleq	ec2ee8 <__bss_end__+0xe9ae38>
 1fc:	13490b39 	movtne	r0, #39737	; 0x9b39
 200:	00001802 	andeq	r1, r0, r2, lsl #16
 204:	03012e21 	movweq	r2, #7713	; 0x1e21
 208:	3b0b3a0e 	blcc	2cea48 <__bss_end__+0x2a6998>
 20c:	270b390b 	strcs	r3, [fp, -fp, lsl #18]
 210:	12011119 	andne	r1, r1, #1073741830	; 0x40000006
 214:	97184006 	ldrls	r4, [r8, -r6]
 218:	13011942 	movwne	r1, #6466	; 0x1942
 21c:	2e220000 	cdpcs	0, 2, cr0, cr2, cr0, {0}
 220:	3a0e0301 	bcc	380e2c <__bss_end__+0x358d7c>
 224:	390b3b0b 	stmdbcc	fp, {r0, r1, r3, r8, r9, fp, ip, sp}
 228:	1119270b 	tstne	r9, fp, lsl #14
 22c:	40061201 	andmi	r1, r6, r1, lsl #4
 230:	19429618 	stmdbne	r2, {r3, r4, r9, sl, ip, pc}^
 234:	00001301 	andeq	r1, r0, r1, lsl #6
 238:	03002e23 	movweq	r2, #3619	; 0xe23
 23c:	3b0b3a0e 	blcc	2cea7c <__bss_end__+0x2a69cc>
 240:	270b390b 	strcs	r3, [fp, -fp, lsl #18]
 244:	11134919 	tstne	r3, r9, lsl r9
 248:	40061201 	andmi	r1, r6, r1, lsl #4
 24c:	19429718 	stmdbne	r2, {r3, r4, r8, r9, sl, ip, pc}^
 250:	2e240000 	cdpcs	0, 2, cr0, cr4, cr0, {0}
 254:	3a0e0301 	bcc	380e60 <__bss_end__+0x358db0>
 258:	39053b0b 	stmdbcc	r5, {r0, r1, r3, r8, r9, fp, ip, sp}
 25c:	4919270b 	ldmdbmi	r9, {r0, r1, r3, r8, r9, sl, sp}
 260:	12011113 	andne	r1, r1, #-1073741820	; 0xc0000004
 264:	97184006 	ldrls	r4, [r8, -r6]
 268:	13011942 	movwne	r1, #6466	; 0x1942
 26c:	34250000 	strtcc	r0, [r5], #-0
 270:	490e0300 	stmdbmi	lr, {r8, r9}
 274:	02193413 	andseq	r3, r9, #318767104	; 0x13000000
 278:	00000018 	andeq	r0, r0, r8, lsl r0
 27c:	25011101 	strcs	r1, [r1, #-257]	; 0xfffffeff
 280:	030b130e 	movweq	r1, #45838	; 0xb30e
 284:	110e1b0e 	tstne	lr, lr, lsl #22
 288:	10061201 	andne	r1, r6, r1, lsl #4
 28c:	02000017 	andeq	r0, r0, #23
 290:	0b0b0024 	bleq	2c0328 <__bss_end__+0x298278>
 294:	0e030b3e 	vmoveq.16	d3[0], r0
 298:	16030000 	strne	r0, [r3], -r0
 29c:	3a0e0300 	bcc	380ea4 <__bss_end__+0x358df4>
 2a0:	390b3b0b 	stmdbcc	fp, {r0, r1, r3, r8, r9, fp, ip, sp}
 2a4:	0013490b 	andseq	r4, r3, fp, lsl #18
 2a8:	00240400 	eoreq	r0, r4, r0, lsl #8
 2ac:	0b3e0b0b 	bleq	f82ee0 <__bss_end__+0xf5ae30>
 2b0:	00000803 	andeq	r0, r0, r3, lsl #16
 2b4:	03010405 	movweq	r0, #5125	; 0x1405
 2b8:	0b0b3e0e 	bleq	2cfaf8 <__bss_end__+0x2a7a48>
 2bc:	3a13490b 	bcc	4d26f0 <__bss_end__+0x4aa640>
 2c0:	390b3b0b 	stmdbcc	fp, {r0, r1, r3, r8, r9, fp, ip, sp}
 2c4:	0013010b 	andseq	r0, r3, fp, lsl #2
 2c8:	00280600 	eoreq	r0, r8, r0, lsl #12
 2cc:	0b1c0e03 	bleq	703ae0 <__bss_end__+0x6dba30>
 2d0:	26070000 	strcs	r0, [r7], -r0
 2d4:	00134900 	andseq	r4, r3, r0, lsl #18
 2d8:	00340800 	eorseq	r0, r4, r0, lsl #16
 2dc:	0b3a0e03 	bleq	e83af0 <__bss_end__+0xe5ba40>
 2e0:	0b390b3b 	bleq	e42fd4 <__bss_end__+0xe1af24>
 2e4:	18021349 	stmdane	r2, {r0, r3, r6, r8, r9, ip}
 2e8:	01090000 	mrseq	r0, (UNDEF: 9)
 2ec:	01134901 	tsteq	r3, r1, lsl #18
 2f0:	0a000013 	beq	344 <errno+0x340>
 2f4:	13490021 	movtne	r0, #36897	; 0x9021
 2f8:	00000b2f 	andeq	r0, r0, pc, lsr #22
 2fc:	0301130b 	movweq	r1, #4875	; 0x130b
 300:	3a0b0b0e 	bcc	2c2f40 <__bss_end__+0x29ae90>
 304:	39053b0b 	stmdbcc	r5, {r0, r1, r3, r8, r9, fp, ip, sp}
 308:	0013010b 	andseq	r0, r3, fp, lsl #2
 30c:	000d0c00 	andeq	r0, sp, r0, lsl #24
 310:	0b3a0e03 	bleq	e83b24 <__bss_end__+0xe5ba74>
 314:	0b39053b 	bleq	e41808 <__bss_end__+0xe19758>
 318:	0b381349 	bleq	e05044 <__bss_end__+0xddcf94>
 31c:	160d0000 	strne	r0, [sp], -r0
 320:	3a0e0300 	bcc	380f28 <__bss_end__+0x358e78>
 324:	39053b0b 	stmdbcc	r5, {r0, r1, r3, r8, r9, fp, ip, sp}
 328:	0013490b 	andseq	r4, r3, fp, lsl #18
 32c:	01130e00 	tsteq	r3, r0, lsl #28
 330:	050b0e03 	streq	r0, [fp, #-3587]	; 0xfffff1fd
 334:	0b3b0b3a 	bleq	ec3024 <__bss_end__+0xe9af74>
 338:	13010b39 	movwne	r0, #6969	; 0x1b39
 33c:	0d0f0000 	stceq	0, cr0, [pc, #-0]	; 344 <errno+0x340>
 340:	3a080300 	bcc	200f48 <__bss_end__+0x1d8e98>
 344:	390b3b0b 	stmdbcc	fp, {r0, r1, r3, r8, r9, fp, ip, sp}
 348:	3813490b 	ldmdacc	r3, {r0, r1, r3, r8, fp, lr}
 34c:	1000000b 	andne	r0, r0, fp
 350:	0e03000d 	cdpeq	0, 0, cr0, cr3, cr13, {0}
 354:	0b3b0b3a 	bleq	ec3044 <__bss_end__+0xe9af94>
 358:	13490b39 	movtne	r0, #39737	; 0x9b39
 35c:	00000538 	andeq	r0, r0, r8, lsr r5
 360:	03001611 	movweq	r1, #1553	; 0x611
 364:	3b0b3a0e 	blcc	2ceba4 <__bss_end__+0x2a6af4>
 368:	490b390b 	stmdbmi	fp, {r0, r1, r3, r8, fp, ip, sp}
 36c:	05018813 	streq	r8, [r1, #-2067]	; 0xfffff7ed
 370:	34120000 	ldrcc	r0, [r2], #-0
 374:	3a0e0300 	bcc	380f7c <__bss_end__+0x358ecc>
 378:	390b3b0b 	stmdbcc	fp, {r0, r1, r3, r8, r9, fp, ip, sp}
 37c:	3f13490b 	svccc	0x0013490b
 380:	00193c19 	andseq	r3, r9, r9, lsl ip
 384:	000f1300 	andeq	r1, pc, r0, lsl #6
 388:	13490b0b 	movtne	r0, #39691	; 0x9b0b
 38c:	13140000 	tstne	r4, #0
 390:	0b0e0301 	bleq	380f9c <__bss_end__+0x358eec>
 394:	3b0b3a0b 	blcc	2cebc8 <__bss_end__+0x2a6b18>
 398:	010b390b 	tsteq	fp, fp, lsl #18
 39c:	15000013 	strne	r0, [r0, #-19]	; 0xffffffed
 3a0:	0e03000d 	cdpeq	0, 0, cr0, cr3, cr13, {0}
 3a4:	0b3b0b3a 	bleq	ec3094 <__bss_end__+0xe9afe4>
 3a8:	13490b39 	movtne	r0, #39737	; 0x9b39
 3ac:	00000b38 	andeq	r0, r0, r8, lsr fp
 3b0:	47003416 	smladmi	r0, r6, r4, r3
 3b4:	3b0b3a13 	blcc	2cec08 <__bss_end__+0x2a6b58>
 3b8:	020b390b 	andeq	r3, fp, #180224	; 0x2c000
 3bc:	17000018 	smladne	r0, r8, r0, r0
 3c0:	0e030034 	mcreq	0, 0, r0, cr3, cr4, {1}
 3c4:	0b3b0b3a 	bleq	ec30b4 <__bss_end__+0xe9b004>
 3c8:	13490b39 	movtne	r0, #39737	; 0x9b39
 3cc:	1802193f 	stmdane	r2, {r0, r1, r2, r3, r4, r5, r8, fp, ip}
 3d0:	2e180000 	cdpcs	0, 1, cr0, cr8, cr0, {0}
 3d4:	03193f00 	tsteq	r9, #0, 30
 3d8:	3b0b3a0e 	blcc	2cec18 <__bss_end__+0x2a6b68>
 3dc:	270b390b 	strcs	r3, [fp, -fp, lsl #18]
 3e0:	11134919 	tstne	r3, r9, lsl r9
 3e4:	40061201 	andmi	r1, r6, r1, lsl #4
 3e8:	19429718 	stmdbne	r2, {r3, r4, r8, r9, sl, ip, pc}^
 3ec:	2e190000 	cdpcs	0, 1, cr0, cr9, cr0, {0}
 3f0:	03193f01 	tsteq	r9, #1, 30
 3f4:	3b0b3a0e 	blcc	2cec34 <__bss_end__+0x2a6b84>
 3f8:	270b390b 	strcs	r3, [fp, -fp, lsl #18]
 3fc:	12011119 	andne	r1, r1, #1073741830	; 0x40000006
 400:	97184006 	ldrls	r4, [r8, -r6]
 404:	00001942 	andeq	r1, r0, r2, asr #18
 408:	0300051a 	movweq	r0, #1306	; 0x51a
 40c:	3b0b3a08 	blcc	2cec34 <__bss_end__+0x2a6b84>
 410:	490b390b 	stmdbmi	fp, {r0, r1, r3, r8, fp, ip, sp}
 414:	00180213 	andseq	r0, r8, r3, lsl r2
 418:	11010000 	mrsne	r0, (UNDEF: 1)
 41c:	11061000 	mrsne	r1, (UNDEF: 6)
 420:	03011201 	movweq	r1, #4609	; 0x1201
 424:	250e1b0e 	strcs	r1, [lr, #-2830]	; 0xfffff4f2
 428:	0005130e 	andeq	r1, r5, lr, lsl #6
 42c:	11010000 	mrsne	r0, (UNDEF: 1)
 430:	130e2501 	movwne	r2, #58625	; 0xe501
 434:	1b0e030b 	blne	381068 <__bss_end__+0x358fb8>
 438:	1201110e 	andne	r1, r1, #-2147483645	; 0x80000003
 43c:	00171006 	andseq	r1, r7, r6
 440:	00240200 	eoreq	r0, r4, r0, lsl #4
 444:	0b3e0b0b 	bleq	f83078 <__bss_end__+0xf5afc8>
 448:	00000e03 	andeq	r0, r0, r3, lsl #28
 44c:	03001603 	movweq	r1, #1539	; 0x603
 450:	3b0b3a0e 	blcc	2cec90 <__bss_end__+0x2a6be0>
 454:	490b390b 	stmdbmi	fp, {r0, r1, r3, r8, fp, ip, sp}
 458:	04000013 	streq	r0, [r0], #-19	; 0xffffffed
 45c:	0b0b0024 	bleq	2c04f4 <__bss_end__+0x298444>
 460:	08030b3e 	stmdaeq	r3, {r1, r2, r3, r4, r5, r8, r9, fp}
 464:	04050000 	streq	r0, [r5], #-0
 468:	3e0e0301 	cdpcc	3, 0, cr0, cr14, cr1, {0}
 46c:	490b0b0b 	stmdbmi	fp, {r0, r1, r3, r8, r9, fp}
 470:	3b0b3a13 	blcc	2cecc4 <__bss_end__+0x2a6c14>
 474:	010b390b 	tsteq	fp, fp, lsl #18
 478:	06000013 			; <UNDEFINED> instruction: 0x06000013
 47c:	0e030028 	cdpeq	0, 0, cr0, cr3, cr8, {1}
 480:	00000b1c 	andeq	r0, r0, ip, lsl fp
 484:	49002607 	stmdbmi	r0, {r0, r1, r2, r9, sl, sp}
 488:	08000013 	stmdaeq	r0, {r0, r1, r4}
 48c:	0e030034 	mcreq	0, 0, r0, cr3, cr4, {1}
 490:	0b3b0b3a 	bleq	ec3180 <__bss_end__+0xe9b0d0>
 494:	13490b39 	movtne	r0, #39737	; 0x9b39
 498:	00001802 	andeq	r1, r0, r2, lsl #16
 49c:	49010109 	stmdbmi	r1, {r0, r3, r8}
 4a0:	00130113 	andseq	r0, r3, r3, lsl r1
 4a4:	00210a00 	eoreq	r0, r1, r0, lsl #20
 4a8:	0b2f1349 	bleq	bc51d4 <__bss_end__+0xb9d124>
 4ac:	130b0000 	movwne	r0, #45056	; 0xb000
 4b0:	0b0e0301 	bleq	3810bc <__bss_end__+0x35900c>
 4b4:	3b0b3a0b 	blcc	2cece8 <__bss_end__+0x2a6c38>
 4b8:	010b3905 	tsteq	fp, r5, lsl #18
 4bc:	0c000013 	stceq	0, cr0, [r0], {19}
 4c0:	0e03000d 	cdpeq	0, 0, cr0, cr3, cr13, {0}
 4c4:	053b0b3a 	ldreq	r0, [fp, #-2874]!	; 0xfffff4c6
 4c8:	13490b39 	movtne	r0, #39737	; 0x9b39
 4cc:	00000b38 	andeq	r0, r0, r8, lsr fp
 4d0:	0300160d 	movweq	r1, #1549	; 0x60d
 4d4:	3b0b3a0e 	blcc	2ced14 <__bss_end__+0x2a6c64>
 4d8:	490b3905 	stmdbmi	fp, {r0, r2, r8, fp, ip, sp}
 4dc:	0e000013 	mcreq	0, 0, r0, cr0, cr3, {0}
 4e0:	0e030113 	mcreq	1, 0, r0, cr3, cr3, {0}
 4e4:	0b3a050b 	bleq	e81918 <__bss_end__+0xe59868>
 4e8:	0b390b3b 	bleq	e431dc <__bss_end__+0xe1b12c>
 4ec:	00001301 	andeq	r1, r0, r1, lsl #6
 4f0:	03000d0f 	movweq	r0, #3343	; 0xd0f
 4f4:	3b0b3a08 	blcc	2ced1c <__bss_end__+0x2a6c6c>
 4f8:	490b390b 	stmdbmi	fp, {r0, r1, r3, r8, fp, ip, sp}
 4fc:	000b3813 	andeq	r3, fp, r3, lsl r8
 500:	000d1000 	andeq	r1, sp, r0
 504:	0b3a0e03 	bleq	e83d18 <__bss_end__+0xe5bc68>
 508:	0b390b3b 	bleq	e431fc <__bss_end__+0xe1b14c>
 50c:	05381349 	ldreq	r1, [r8, #-841]!	; 0xfffffcb7
 510:	16110000 	ldrne	r0, [r1], -r0
 514:	3a0e0300 	bcc	38111c <__bss_end__+0x35906c>
 518:	390b3b0b 	stmdbcc	fp, {r0, r1, r3, r8, r9, fp, ip, sp}
 51c:	8813490b 	ldmdahi	r3, {r0, r1, r3, r8, fp, lr}
 520:	00000501 	andeq	r0, r0, r1, lsl #10
 524:	03003412 	movweq	r3, #1042	; 0x412
 528:	3b0b3a0e 	blcc	2ced68 <__bss_end__+0x2a6cb8>
 52c:	490b390b 	stmdbmi	fp, {r0, r1, r3, r8, fp, ip, sp}
 530:	3c193f13 	ldccc	15, cr3, [r9], {19}
 534:	13000019 	movwne	r0, #25
 538:	0b0b000f 	bleq	2c057c <__bss_end__+0x2984cc>
 53c:	00001349 	andeq	r1, r0, r9, asr #6
 540:	03011314 	movweq	r1, #4884	; 0x1314
 544:	3a0b0b0e 	bcc	2c3184 <__bss_end__+0x29b0d4>
 548:	390b3b0b 	stmdbcc	fp, {r0, r1, r3, r8, r9, fp, ip, sp}
 54c:	0013010b 	andseq	r0, r3, fp, lsl #2
 550:	000d1500 	andeq	r1, sp, r0, lsl #10
 554:	0b3a0e03 	bleq	e83d68 <__bss_end__+0xe5bcb8>
 558:	0b390b3b 	bleq	e4324c <__bss_end__+0xe1b19c>
 55c:	0b381349 	bleq	e05288 <__bss_end__+0xddd1d8>
 560:	17160000 	ldrne	r0, [r6, -r0]
 564:	3a0b0b01 	bcc	2c3170 <__bss_end__+0x29b0c0>
 568:	390b3b0b 	stmdbcc	fp, {r0, r1, r3, r8, r9, fp, ip, sp}
 56c:	0013010b 	andseq	r0, r3, fp, lsl #2
 570:	000d1700 	andeq	r1, sp, r0, lsl #14
 574:	0b3a0e03 	bleq	e83d88 <__bss_end__+0xe5bcd8>
 578:	0b390b3b 	bleq	e4326c <__bss_end__+0xe1b1bc>
 57c:	00001349 	andeq	r1, r0, r9, asr #6
 580:	0b000f18 	bleq	41e8 <errno+0x41e4>
 584:	1900000b 	stmdbne	r0, {r0, r1, r3}
 588:	19270015 	stmdbne	r7!, {r0, r2, r4}
 58c:	131a0000 	tstne	sl, #0
 590:	3a0b0b01 	bcc	2c319c <__bss_end__+0x29b0ec>
 594:	390b3b0b 	stmdbcc	fp, {r0, r1, r3, r8, r9, fp, ip, sp}
 598:	0013010b 	andseq	r0, r3, fp, lsl #2
 59c:	00211b00 	eoreq	r1, r1, r0, lsl #22
 5a0:	2e1c0000 	cdpcs	0, 1, cr0, cr12, cr0, {0}
 5a4:	03193f01 	tsteq	r9, #1, 30
 5a8:	3b0b3a0e 	blcc	2cede8 <__bss_end__+0x2a6d38>
 5ac:	270b390b 	strcs	r3, [fp, -fp, lsl #18]
 5b0:	12011119 	andne	r1, r1, #1073741830	; 0x40000006
 5b4:	96184006 	ldrls	r4, [r8], -r6
 5b8:	13011942 	movwne	r1, #6466	; 0x1942
 5bc:	051d0000 	ldreq	r0, [sp, #-0]
 5c0:	3a0e0300 	bcc	3811c8 <__bss_end__+0x359118>
 5c4:	390b3b0b 	stmdbcc	fp, {r0, r1, r3, r8, r9, fp, ip, sp}
 5c8:	0213490b 	andseq	r4, r3, #180224	; 0x2c000
 5cc:	1e000018 	mcrne	0, 0, r0, cr0, cr8, {0}
 5d0:	13490101 	movtne	r0, #37121	; 0x9101
 5d4:	01000000 	mrseq	r0, (UNDEF: 0)
 5d8:	0e250111 	mcreq	1, 1, r0, cr5, cr1, {0}
 5dc:	0e030b13 	vmoveq.32	d3[0], r0
 5e0:	01110e1b 	tsteq	r1, fp, lsl lr
 5e4:	17100612 			; <UNDEFINED> instruction: 0x17100612
 5e8:	24020000 	strcs	r0, [r2], #-0
 5ec:	3e0b0b00 	vmlacc.f64	d0, d11, d0
 5f0:	000e030b 	andeq	r0, lr, fp, lsl #6
 5f4:	00240300 	eoreq	r0, r4, r0, lsl #6
 5f8:	0b3e0b0b 	bleq	f8322c <__bss_end__+0xf5b17c>
 5fc:	00000803 	andeq	r0, r0, r3, lsl #16
 600:	03001604 	movweq	r1, #1540	; 0x604
 604:	3b0b3a0e 	blcc	2cee44 <__bss_end__+0x2a6d94>
 608:	490b390b 	stmdbmi	fp, {r0, r1, r3, r8, fp, ip, sp}
 60c:	05000013 	streq	r0, [r0, #-19]	; 0xffffffed
 610:	0b3e0104 	bleq	f80a28 <__bss_end__+0xf58978>
 614:	13490b0b 	movtne	r0, #39691	; 0x9b0b
 618:	0b3b0b3a 	bleq	ec3308 <__bss_end__+0xe9b258>
 61c:	13010b39 	movwne	r0, #6969	; 0x1b39
 620:	28060000 	stmdacs	r6, {}	; <UNPREDICTABLE>
 624:	1c0e0300 	stcne	3, cr0, [lr], {-0}
 628:	0700000d 	streq	r0, [r0, -sp]
 62c:	0e030028 	cdpeq	0, 0, cr0, cr3, cr8, {1}
 630:	0000061c 	andeq	r0, r0, ip, lsl r6
 634:	03010408 	movweq	r0, #5128	; 0x1408
 638:	0b0b3e0e 	bleq	2cfe78 <__bss_end__+0x2a7dc8>
 63c:	3a13490b 	bcc	4d2a70 <__bss_end__+0x4aa9c0>
 640:	390b3b0b 	stmdbcc	fp, {r0, r1, r3, r8, r9, fp, ip, sp}
 644:	0013010b 	andseq	r0, r3, fp, lsl #2
 648:	00280900 	eoreq	r0, r8, r0, lsl #18
 64c:	0b1c0e03 	bleq	703e60 <__bss_end__+0x6dbdb0>
 650:	260a0000 	strcs	r0, [sl], -r0
 654:	00134900 	andseq	r4, r3, r0, lsl #18
 658:	00340b00 	eorseq	r0, r4, r0, lsl #22
 65c:	0b3a0e03 	bleq	e83e70 <__bss_end__+0xe5bdc0>
 660:	0b390b3b 	bleq	e43354 <__bss_end__+0xe1b2a4>
 664:	18021349 	stmdane	r2, {r0, r3, r6, r8, r9, ip}
 668:	010c0000 	mrseq	r0, (UNDEF: 12)
 66c:	01134901 	tsteq	r3, r1, lsl #18
 670:	0d000013 	stceq	0, cr0, [r0, #-76]	; 0xffffffb4
 674:	13490021 	movtne	r0, #36897	; 0x9021
 678:	00000b2f 	andeq	r0, r0, pc, lsr #22
 67c:	0301130e 	movweq	r1, #4878	; 0x130e
 680:	3a0b0b0e 	bcc	2c32c0 <__bss_end__+0x29b210>
 684:	39053b0b 	stmdbcc	r5, {r0, r1, r3, r8, r9, fp, ip, sp}
 688:	0013010b 	andseq	r0, r3, fp, lsl #2
 68c:	000d0f00 	andeq	r0, sp, r0, lsl #30
 690:	0b3a0e03 	bleq	e83ea4 <__bss_end__+0xe5bdf4>
 694:	0b39053b 	bleq	e41b88 <__bss_end__+0xe19ad8>
 698:	0b381349 	bleq	e053c4 <__bss_end__+0xddd314>
 69c:	16100000 	ldrne	r0, [r0], -r0
 6a0:	3a0e0300 	bcc	3812a8 <__bss_end__+0x3591f8>
 6a4:	39053b0b 	stmdbcc	r5, {r0, r1, r3, r8, r9, fp, ip, sp}
 6a8:	0013490b 	andseq	r4, r3, fp, lsl #18
 6ac:	01131100 	tsteq	r3, r0, lsl #2
 6b0:	050b0e03 	streq	r0, [fp, #-3587]	; 0xfffff1fd
 6b4:	0b3b0b3a 	bleq	ec33a4 <__bss_end__+0xe9b2f4>
 6b8:	13010b39 	movwne	r0, #6969	; 0x1b39
 6bc:	0d120000 	ldceq	0, cr0, [r2, #-0]
 6c0:	3a080300 	bcc	2012c8 <__bss_end__+0x1d9218>
 6c4:	390b3b0b 	stmdbcc	fp, {r0, r1, r3, r8, r9, fp, ip, sp}
 6c8:	3813490b 	ldmdacc	r3, {r0, r1, r3, r8, fp, lr}
 6cc:	1300000b 	movwne	r0, #11
 6d0:	0e03000d 	cdpeq	0, 0, cr0, cr3, cr13, {0}
 6d4:	0b3b0b3a 	bleq	ec33c4 <__bss_end__+0xe9b314>
 6d8:	13490b39 	movtne	r0, #39737	; 0x9b39
 6dc:	00000538 	andeq	r0, r0, r8, lsr r5
 6e0:	03001614 	movweq	r1, #1556	; 0x614
 6e4:	3b0b3a0e 	blcc	2cef24 <__bss_end__+0x2a6e74>
 6e8:	490b390b 	stmdbmi	fp, {r0, r1, r3, r8, fp, ip, sp}
 6ec:	05018813 	streq	r8, [r1, #-2067]	; 0xfffff7ed
 6f0:	34150000 	ldrcc	r0, [r5], #-0
 6f4:	3a0e0300 	bcc	3812fc <__bss_end__+0x35924c>
 6f8:	390b3b0b 	stmdbcc	fp, {r0, r1, r3, r8, r9, fp, ip, sp}
 6fc:	3f13490b 	svccc	0x0013490b
 700:	00193c19 	andseq	r3, r9, r9, lsl ip
 704:	000f1600 	andeq	r1, pc, r0, lsl #12
 708:	13490b0b 	movtne	r0, #39691	; 0x9b0b
 70c:	13170000 	tstne	r7, #0
 710:	0b0e0301 	bleq	38131c <__bss_end__+0x35926c>
 714:	3b0b3a0b 	blcc	2cef48 <__bss_end__+0x2a6e98>
 718:	010b390b 	tsteq	fp, fp, lsl #18
 71c:	18000013 	stmdane	r0, {r0, r1, r4}
 720:	0e03000d 	cdpeq	0, 0, cr0, cr3, cr13, {0}
 724:	0b3b0b3a 	bleq	ec3414 <__bss_end__+0xe9b364>
 728:	13490b39 	movtne	r0, #39737	; 0x9b39
 72c:	00000b38 	andeq	r0, r0, r8, lsr fp
 730:	0b011719 	bleq	4639c <__bss_end__+0x1e2ec>
 734:	3b0b3a0b 	blcc	2cef68 <__bss_end__+0x2a6eb8>
 738:	010b390b 	tsteq	fp, fp, lsl #18
 73c:	1a000013 	bne	790 <errno+0x78c>
 740:	0e03000d 	cdpeq	0, 0, cr0, cr3, cr13, {0}
 744:	0b3b0b3a 	bleq	ec3434 <__bss_end__+0xe9b384>
 748:	13490b39 	movtne	r0, #39737	; 0x9b39
 74c:	0f1b0000 	svceq	0x001b0000
 750:	000b0b00 	andeq	r0, fp, r0, lsl #22
 754:	00151c00 	andseq	r1, r5, r0, lsl #24
 758:	00001927 	andeq	r1, r0, r7, lsr #18
 75c:	0b01131d 	bleq	453d8 <__bss_end__+0x1d328>
 760:	3b0b3a0b 	blcc	2cef94 <__bss_end__+0x2a6ee4>
 764:	010b390b 	tsteq	fp, fp, lsl #18
 768:	1e000013 	mcrne	0, 0, r0, cr0, cr3, {0}
 76c:	19270115 	stmdbne	r7!, {r0, r2, r4, r8}
 770:	00001301 	andeq	r1, r0, r1, lsl #6
 774:	4900051f 	stmdbmi	r0, {r0, r1, r2, r3, r4, r8, sl}
 778:	20000013 	andcs	r0, r0, r3, lsl r0
 77c:	19270115 	stmdbne	r7!, {r0, r2, r4, r8}
 780:	13011349 	movwne	r1, #4937	; 0x1349
 784:	21210000 			; <UNDEFINED> instruction: 0x21210000
 788:	2f134900 	svccs	0x00134900
 78c:	22000005 	andcs	r0, r0, #5
 790:	0e030034 	mcreq	0, 0, r0, cr3, cr4, {1}
 794:	0b3b0b3a 	bleq	ec3484 <__bss_end__+0xe9b3d4>
 798:	13490b39 	movtne	r0, #39737	; 0x9b39
 79c:	020b0188 	andeq	r0, fp, #136, 2	; 0x22
 7a0:	23000018 	movwcs	r0, #24
 7a4:	08030034 	stmdaeq	r3, {r2, r4, r5}
 7a8:	0b3b0b3a 	bleq	ec3498 <__bss_end__+0xe9b3e8>
 7ac:	13490b39 	movtne	r0, #39737	; 0x9b39
 7b0:	00001802 	andeq	r1, r0, r2, lsl #16
 7b4:	03002e24 	movweq	r2, #3620	; 0xe24
 7b8:	3b0b3a0e 	blcc	2ceff8 <__bss_end__+0x2a6f48>
 7bc:	270b3905 	strcs	r3, [fp, -r5, lsl #18]
 7c0:	11134919 	tstne	r3, r9, lsl r9
 7c4:	40061201 	andmi	r1, r6, r1, lsl #4
 7c8:	19429618 	stmdbne	r2, {r3, r4, r9, sl, ip, pc}^
 7cc:	2e250000 	cdpcs	0, 2, cr0, cr5, cr0, {0}
 7d0:	3a0e0300 	bcc	3813d8 <__bss_end__+0x359328>
 7d4:	39053b0b 	stmdbcc	r5, {r0, r1, r3, r8, r9, fp, ip, sp}
 7d8:	1119270b 	tstne	r9, fp, lsl #14
 7dc:	40061201 	andmi	r1, r6, r1, lsl #4
 7e0:	19429618 	stmdbne	r2, {r3, r4, r9, sl, ip, pc}^
 7e4:	2e260000 	cdpcs	0, 2, cr0, cr6, cr0, {0}
 7e8:	3a0e0301 	bcc	3813f4 <__bss_end__+0x359344>
 7ec:	39053b0b 	stmdbcc	r5, {r0, r1, r3, r8, r9, fp, ip, sp}
 7f0:	4919270b 	ldmdbmi	r9, {r0, r1, r3, r8, r9, sl, sp}
 7f4:	12011113 	andne	r1, r1, #-1073741820	; 0xc0000004
 7f8:	96184006 	ldrls	r4, [r8], -r6
 7fc:	13011942 	movwne	r1, #6466	; 0x1942
 800:	05270000 	streq	r0, [r7, #-0]!
 804:	3a0e0300 	bcc	38140c <__bss_end__+0x35935c>
 808:	39053b0b 	stmdbcc	r5, {r0, r1, r3, r8, r9, fp, ip, sp}
 80c:	0213490b 	andseq	r4, r3, #180224	; 0x2c000
 810:	28000018 	stmdacs	r0, {r3, r4}
 814:	0111010b 	tsteq	r1, fp, lsl #2
 818:	13010612 	movwne	r0, #5650	; 0x1612
 81c:	34290000 	strtcc	r0, [r9], #-0
 820:	3a080300 	bcc	201428 <__bss_end__+0x1d9378>
 824:	39053b0b 	stmdbcc	r5, {r0, r1, r3, r8, r9, fp, ip, sp}
 828:	0213490b 	andseq	r4, r3, #180224	; 0x2c000
 82c:	2a000018 	bcs	894 <errno+0x890>
 830:	0111010b 	tsteq	r1, fp, lsl #2
 834:	00000612 	andeq	r0, r0, r2, lsl r6
 838:	03012e2b 	movweq	r2, #7723	; 0x1e2b
 83c:	3b0b3a0e 	blcc	2cf07c <__bss_end__+0x2a6fcc>
 840:	270b3905 	strcs	r3, [fp, -r5, lsl #18]
 844:	11134919 	tstne	r3, r9, lsl r9
 848:	40061201 	andmi	r1, r6, r1, lsl #4
 84c:	19429718 	stmdbne	r2, {r3, r4, r8, r9, sl, ip, pc}^
 850:	00001301 	andeq	r1, r0, r1, lsl #6
 854:	0300342c 	movweq	r3, #1068	; 0x42c
 858:	3b0b3a0e 	blcc	2cf098 <__bss_end__+0x2a6fe8>
 85c:	490b3905 	stmdbmi	fp, {r0, r2, r8, fp, ip, sp}
 860:	00180213 	andseq	r0, r8, r3, lsl r2
 864:	012e2d00 			; <UNDEFINED> instruction: 0x012e2d00
 868:	0b3a0e03 	bleq	e8407c <__bss_end__+0xe5bfcc>
 86c:	0b39053b 	bleq	e41d60 <__bss_end__+0xe19cb0>
 870:	01111927 	tsteq	r1, r7, lsr #18
 874:	18400612 	stmdane	r0, {r1, r4, r9, sl}^
 878:	01194296 			; <UNDEFINED> instruction: 0x01194296
 87c:	2e000013 	mcrcs	0, 0, r0, cr0, cr3, {0}
 880:	0e03012e 	adfeqsp	f0, f3, #0.5
 884:	053b0b3a 	ldreq	r0, [fp, #-2874]!	; 0xfffff4c6
 888:	19270b39 	stmdbne	r7!, {r0, r3, r4, r5, r8, r9, fp}
 88c:	06120111 			; <UNDEFINED> instruction: 0x06120111
 890:	42971840 	addsmi	r1, r7, #64, 16	; 0x400000
 894:	00130119 	andseq	r0, r3, r9, lsl r1
 898:	010b2f00 	tsteq	fp, r0, lsl #30
 89c:	00001755 	andeq	r1, r0, r5, asr r7
 8a0:	3f012e30 	svccc	0x00012e30
 8a4:	3a0e0319 	bcc	381510 <__bss_end__+0x359460>
 8a8:	390b3b0b 	stmdbcc	fp, {r0, r1, r3, r8, r9, fp, ip, sp}
 8ac:	1119270b 	tstne	r9, fp, lsl #14
 8b0:	40061201 	andmi	r1, r6, r1, lsl #4
 8b4:	19429618 	stmdbne	r2, {r3, r4, r9, sl, ip, pc}^
 8b8:	00001301 	andeq	r1, r0, r1, lsl #6
 8bc:	03000531 	movweq	r0, #1329	; 0x531
 8c0:	3b0b3a0e 	blcc	2cf100 <__bss_end__+0x2a7050>
 8c4:	490b390b 	stmdbmi	fp, {r0, r1, r3, r8, fp, ip, sp}
 8c8:	00180213 	andseq	r0, r8, r3, lsl r2
 8cc:	012e3200 			; <UNDEFINED> instruction: 0x012e3200
 8d0:	0e03193f 			; <UNDEFINED> instruction: 0x0e03193f
 8d4:	0b3b0b3a 	bleq	ec35c4 <__bss_end__+0xe9b514>
 8d8:	19270b39 	stmdbne	r7!, {r0, r3, r4, r5, r8, r9, fp}
 8dc:	01111349 	tsteq	r1, r9, asr #6
 8e0:	18400612 	stmdane	r0, {r1, r4, r9, sl}^
 8e4:	01194296 			; <UNDEFINED> instruction: 0x01194296
 8e8:	33000013 	movwcc	r0, #19
 8ec:	08030005 	stmdaeq	r3, {r0, r2}
 8f0:	0b3b0b3a 	bleq	ec35e0 <__bss_end__+0xe9b530>
 8f4:	13490b39 	movtne	r0, #39737	; 0x9b39
 8f8:	00001802 	andeq	r1, r0, r2, lsl #16
 8fc:	3f012e34 	svccc	0x00012e34
 900:	3a0e0319 	bcc	38156c <__bss_end__+0x3594bc>
 904:	390b3b0b 	stmdbcc	fp, {r0, r1, r3, r8, r9, fp, ip, sp}
 908:	4919270b 	ldmdbmi	r9, {r0, r1, r3, r8, r9, sl, sp}
 90c:	12011113 	andne	r1, r1, #-1073741820	; 0xc0000004
 910:	97184006 	ldrls	r4, [r8, -r6]
 914:	13011942 	movwne	r1, #6466	; 0x1942
 918:	2e350000 	cdpcs	0, 3, cr0, cr5, cr0, {0}
 91c:	03193f00 	tsteq	r9, #0, 30
 920:	3b0b3a0e 	blcc	2cf160 <__bss_end__+0x2a70b0>
 924:	270b390b 	strcs	r3, [fp, -fp, lsl #18]
 928:	11134919 	tstne	r3, r9, lsl r9
 92c:	40061201 	andmi	r1, r6, r1, lsl #4
 930:	19429718 	stmdbne	r2, {r3, r4, r8, r9, sl, ip, pc}^
 934:	2e360000 	cdpcs	0, 3, cr0, cr6, cr0, {0}
 938:	3a0e0300 	bcc	381540 <__bss_end__+0x359490>
 93c:	390b3b0b 	stmdbcc	fp, {r0, r1, r3, r8, r9, fp, ip, sp}
 940:	4919270b 	ldmdbmi	r9, {r0, r1, r3, r8, r9, sl, sp}
 944:	12011113 	andne	r1, r1, #-1073741820	; 0xc0000004
 948:	96184006 	ldrls	r4, [r8], -r6
 94c:	00001942 	andeq	r1, r0, r2, asr #18
 950:	03012e37 	movweq	r2, #7735	; 0x1e37
 954:	3b0b3a0e 	blcc	2cf194 <__bss_end__+0x2a70e4>
 958:	270b390b 	strcs	r3, [fp, -fp, lsl #18]
 95c:	12011119 	andne	r1, r1, #1073741830	; 0x40000006
 960:	96184006 	ldrls	r4, [r8], -r6
 964:	13011942 	movwne	r1, #6466	; 0x1942
 968:	2e380000 	cdpcs	0, 3, cr0, cr8, cr0, {0}
 96c:	3a0e0301 	bcc	381578 <__bss_end__+0x3594c8>
 970:	390b3b0b 	stmdbcc	fp, {r0, r1, r3, r8, r9, fp, ip, sp}
 974:	1119270b 	tstne	r9, fp, lsl #14
 978:	40061201 	andmi	r1, r6, r1, lsl #4
 97c:	19429718 	stmdbne	r2, {r3, r4, r8, r9, sl, ip, pc}^
 980:	00001301 	andeq	r1, r0, r1, lsl #6
 984:	03012e39 	movweq	r2, #7737	; 0x1e39
 988:	3b0b3a0e 	blcc	2cf1c8 <__bss_end__+0x2a7118>
 98c:	270b390b 	strcs	r3, [fp, -fp, lsl #18]
 990:	11134919 	tstne	r3, r9, lsl r9
 994:	40061201 	andmi	r1, r6, r1, lsl #4
 998:	19429718 	stmdbne	r2, {r3, r4, r8, r9, sl, ip, pc}^
 99c:	00001301 	andeq	r1, r0, r1, lsl #6
 9a0:	0300053a 	movweq	r0, #1338	; 0x53a
 9a4:	3b0b3a08 	blcc	2cf1cc <__bss_end__+0x2a711c>
 9a8:	490b3905 	stmdbmi	fp, {r0, r2, r8, fp, ip, sp}
 9ac:	00180213 	andseq	r0, r8, r3, lsl r2
 9b0:	002e3b00 	eoreq	r3, lr, r0, lsl #22
 9b4:	0b3a0e03 	bleq	e841c8 <__bss_end__+0xe5c118>
 9b8:	0b390b3b 	bleq	e436ac <__bss_end__+0xe1b5fc>
 9bc:	13491927 	movtne	r1, #39207	; 0x9927
 9c0:	06120111 			; <UNDEFINED> instruction: 0x06120111
 9c4:	42971840 	addsmi	r1, r7, #64, 16	; 0x400000
 9c8:	00000019 	andeq	r0, r0, r9, lsl r0
 9cc:	25011101 	strcs	r1, [r1, #-257]	; 0xfffffeff
 9d0:	030b130e 	movweq	r1, #45838	; 0xb30e
 9d4:	110e1b0e 	tstne	lr, lr, lsl #22
 9d8:	10061201 	andne	r1, r6, r1, lsl #4
 9dc:	02000017 	andeq	r0, r0, #23
 9e0:	0e030016 	mcreq	0, 0, r0, cr3, cr6, {0}
 9e4:	0b3b0b3a 	bleq	ec36d4 <__bss_end__+0xe9b624>
 9e8:	13490b39 	movtne	r0, #39737	; 0x9b39
 9ec:	0f030000 	svceq	0x00030000
 9f0:	490b0b00 	stmdbmi	fp, {r8, r9, fp}
 9f4:	04000013 	streq	r0, [r0], #-19	; 0xffffffed
 9f8:	19270015 	stmdbne	r7!, {r0, r2, r4}
 9fc:	01050000 	mrseq	r0, (UNDEF: 5)
 a00:	01134901 	tsteq	r3, r1, lsl #18
 a04:	06000013 			; <UNDEFINED> instruction: 0x06000013
 a08:	00000021 	andeq	r0, r0, r1, lsr #32
 a0c:	03003407 	movweq	r3, #1031	; 0x407
 a10:	3b0b3a0e 	blcc	2cf250 <__bss_end__+0x2a71a0>
 a14:	490b390b 	stmdbmi	fp, {r0, r1, r3, r8, fp, ip, sp}
 a18:	3c193f13 	ldccc	15, cr3, [r9], {19}
 a1c:	08000019 	stmdaeq	r0, {r0, r3, r4}
 a20:	193f012e 	ldmdbne	pc!, {r1, r2, r3, r5, r8}	; <UNPREDICTABLE>
 a24:	0b3a0e03 	bleq	e84238 <__bss_end__+0xe5c188>
 a28:	0b390b3b 	bleq	e4371c <__bss_end__+0xe1b66c>
 a2c:	01111927 	tsteq	r1, r7, lsr #18
 a30:	18400612 	stmdane	r0, {r1, r4, r9, sl}^
 a34:	01194296 			; <UNDEFINED> instruction: 0x01194296
 a38:	09000013 	stmdbeq	r0, {r0, r1, r4}
 a3c:	0e030034 	mcreq	0, 0, r0, cr3, cr4, {1}
 a40:	0b3b0b3a 	bleq	ec3730 <__bss_end__+0xe9b680>
 a44:	13490b39 	movtne	r0, #39737	; 0x9b39
 a48:	00001802 	andeq	r1, r0, r2, lsl #16
 a4c:	11010b0a 	tstne	r1, sl, lsl #22
 a50:	00061201 	andeq	r1, r6, r1, lsl #4
 a54:	00340b00 	eorseq	r0, r4, r0, lsl #22
 a58:	0b3a0803 	bleq	e82a6c <__bss_end__+0xe5a9bc>
 a5c:	0b390b3b 	bleq	e43750 <__bss_end__+0xe1b6a0>
 a60:	18021349 	stmdane	r2, {r0, r3, r6, r8, r9, ip}
 a64:	240c0000 	strcs	r0, [ip], #-0
 a68:	3e0b0b00 	vmlacc.f64	d0, d11, d0
 a6c:	0008030b 	andeq	r0, r8, fp, lsl #6
 a70:	012e0d00 			; <UNDEFINED> instruction: 0x012e0d00
 a74:	0e03193f 			; <UNDEFINED> instruction: 0x0e03193f
 a78:	0b3b0b3a 	bleq	ec3768 <__bss_end__+0xe9b6b8>
 a7c:	19270b39 	stmdbne	r7!, {r0, r3, r4, r5, r8, r9, fp}
 a80:	06120111 			; <UNDEFINED> instruction: 0x06120111
 a84:	42961840 	addsmi	r1, r6, #64, 16	; 0x400000
 a88:	0e000019 	mcreq	0, 0, r0, cr0, cr9, {0}
 a8c:	0111010b 	tsteq	r1, fp, lsl #2
 a90:	13010612 	movwne	r0, #5650	; 0x1612
 a94:	01000000 	mrseq	r0, (UNDEF: 0)
 a98:	0e250111 	mcreq	1, 1, r0, cr5, cr1, {0}
 a9c:	0e030b13 	vmoveq.32	d3[0], r0
 aa0:	01110e1b 	tsteq	r1, fp, lsl lr
 aa4:	17100612 			; <UNDEFINED> instruction: 0x17100612
 aa8:	24020000 	strcs	r0, [r2], #-0
 aac:	3e0b0b00 	vmlacc.f64	d0, d11, d0
 ab0:	000e030b 	andeq	r0, lr, fp, lsl #6
 ab4:	00240300 	eoreq	r0, r4, r0, lsl #6
 ab8:	0b3e0b0b 	bleq	f836ec <__bss_end__+0xf5b63c>
 abc:	00000803 	andeq	r0, r0, r3, lsl #16
 ac0:	03001604 	movweq	r1, #1540	; 0x604
 ac4:	3b0b3a0e 	blcc	2cf304 <__bss_end__+0x2a7254>
 ac8:	490b390b 	stmdbmi	fp, {r0, r1, r3, r8, fp, ip, sp}
 acc:	05000013 	streq	r0, [r0, #-19]	; 0xffffffed
 ad0:	193f012e 	ldmdbne	pc!, {r1, r2, r3, r5, r8}	; <UNPREDICTABLE>
 ad4:	0b3a0e03 	bleq	e842e8 <__bss_end__+0xe5c238>
 ad8:	0b390b3b 	bleq	e437cc <__bss_end__+0xe1b71c>
 adc:	13491927 	movtne	r1, #39207	; 0x9927
 ae0:	06120111 			; <UNDEFINED> instruction: 0x06120111
 ae4:	42971840 	addsmi	r1, r7, #64, 16	; 0x400000
 ae8:	00130119 	andseq	r0, r3, r9, lsl r1
 aec:	00050600 	andeq	r0, r5, r0, lsl #12
 af0:	0b3a0e03 	bleq	e84304 <__bss_end__+0xe5c254>
 af4:	0b390b3b 	bleq	e437e8 <__bss_end__+0xe1b738>
 af8:	18021349 	stmdane	r2, {r0, r3, r6, r8, r9, ip}
 afc:	05070000 	streq	r0, [r7, #-0]
 b00:	3a080300 	bcc	201708 <__bss_end__+0x1d9658>
 b04:	390b3b0b 	stmdbcc	fp, {r0, r1, r3, r8, r9, fp, ip, sp}
 b08:	0213490b 	andseq	r4, r3, #180224	; 0x2c000
 b0c:	08000018 	stmdaeq	r0, {r3, r4}
 b10:	08030034 	stmdaeq	r3, {r2, r4, r5}
 b14:	0b3b0b3a 	bleq	ec3804 <__bss_end__+0xe9b754>
 b18:	13490b39 	movtne	r0, #39737	; 0x9b39
 b1c:	00001802 	andeq	r1, r0, r2, lsl #16
 b20:	03001609 	movweq	r1, #1545	; 0x609
 b24:	3b0b3a08 	blcc	2cf34c <__bss_end__+0x2a729c>
 b28:	490b390b 	stmdbmi	fp, {r0, r1, r3, r8, fp, ip, sp}
 b2c:	0a000013 	beq	b80 <errno+0xb7c>
 b30:	0b0b000f 	bleq	2c0b74 <__bss_end__+0x298ac4>
 b34:	0f0b0000 	svceq	0x000b0000
 b38:	490b0b00 	stmdbmi	fp, {r8, r9, fp}
 b3c:	00000013 	andeq	r0, r0, r3, lsl r0
 b40:	25011101 	strcs	r1, [r1, #-257]	; 0xfffffeff
 b44:	030b130e 	movweq	r1, #45838	; 0xb30e
 b48:	110e1b0e 	tstne	lr, lr, lsl #22
 b4c:	10061201 	andne	r1, r6, r1, lsl #4
 b50:	02000017 	andeq	r0, r0, #23
 b54:	0b0b0024 	bleq	2c0bec <__bss_end__+0x298b3c>
 b58:	0e030b3e 	vmoveq.16	d3[0], r0
 b5c:	24030000 	strcs	r0, [r3], #-0
 b60:	3e0b0b00 	vmlacc.f64	d0, d11, d0
 b64:	0008030b 	andeq	r0, r8, fp, lsl #6
 b68:	00260400 	eoreq	r0, r6, r0, lsl #8
 b6c:	00001349 	andeq	r1, r0, r9, asr #6
 b70:	03001605 	movweq	r1, #1541	; 0x605
 b74:	3b0b3a0e 	blcc	2cf3b4 <__bss_end__+0x2a7304>
 b78:	490b390b 	stmdbmi	fp, {r0, r1, r3, r8, fp, ip, sp}
 b7c:	06000013 			; <UNDEFINED> instruction: 0x06000013
 b80:	193f012e 	ldmdbne	pc!, {r1, r2, r3, r5, r8}	; <UNPREDICTABLE>
 b84:	0b3a0e03 	bleq	e84398 <__bss_end__+0xe5c2e8>
 b88:	0b390b3b 	bleq	e4387c <__bss_end__+0xe1b7cc>
 b8c:	13491927 	movtne	r1, #39207	; 0x9927
 b90:	06120111 			; <UNDEFINED> instruction: 0x06120111
 b94:	42971840 	addsmi	r1, r7, #64, 16	; 0x400000
 b98:	00130119 	andseq	r0, r3, r9, lsl r1
 b9c:	00050700 	andeq	r0, r5, r0, lsl #14
 ba0:	0b3a0e03 	bleq	e843b4 <__bss_end__+0xe5c304>
 ba4:	0b390b3b 	bleq	e43898 <__bss_end__+0xe1b7e8>
 ba8:	18021349 	stmdane	r2, {r0, r3, r6, r8, r9, ip}
 bac:	05080000 	streq	r0, [r8, #-0]
 bb0:	3a080300 	bcc	2017b8 <__bss_end__+0x1d9708>
 bb4:	390b3b0b 	stmdbcc	fp, {r0, r1, r3, r8, r9, fp, ip, sp}
 bb8:	0213490b 	andseq	r4, r3, #180224	; 0x2c000
 bbc:	09000018 	stmdbeq	r0, {r3, r4}
 bc0:	08030034 	stmdaeq	r3, {r2, r4, r5}
 bc4:	0b3b0b3a 	bleq	ec38b4 <__bss_end__+0xe9b804>
 bc8:	13490b39 	movtne	r0, #39737	; 0x9b39
 bcc:	00001802 	andeq	r1, r0, r2, lsl #16
 bd0:	0300160a 	movweq	r1, #1546	; 0x60a
 bd4:	3b0b3a08 	blcc	2cf3fc <__bss_end__+0x2a734c>
 bd8:	490b390b 	stmdbmi	fp, {r0, r1, r3, r8, fp, ip, sp}
 bdc:	0b000013 	bleq	c30 <errno+0xc2c>
 be0:	0b0b000f 	bleq	2c0c24 <__bss_end__+0x298b74>
 be4:	370c0000 	strcc	r0, [ip, -r0]
 be8:	00134900 	andseq	r4, r3, r0, lsl #18
 bec:	000f0d00 	andeq	r0, pc, r0, lsl #26
 bf0:	13490b0b 	movtne	r0, #39691	; 0x9b0b
 bf4:	260e0000 	strcs	r0, [lr], -r0
 bf8:	00000000 	andeq	r0, r0, r0
 bfc:	25011101 	strcs	r1, [r1, #-257]	; 0xfffffeff
 c00:	030b130e 	movweq	r1, #45838	; 0xb30e
 c04:	110e1b0e 	tstne	lr, lr, lsl #22
 c08:	10061201 	andne	r1, r6, r1, lsl #4
 c0c:	02000017 	andeq	r0, r0, #23
 c10:	193f012e 	ldmdbne	pc!, {r1, r2, r3, r5, r8}	; <UNPREDICTABLE>
 c14:	0b3a0e03 	bleq	e84428 <__bss_end__+0xe5c378>
 c18:	0b390b3b 	bleq	e4390c <__bss_end__+0xe1b85c>
 c1c:	13491927 	movtne	r1, #39207	; 0x9927
 c20:	06120111 			; <UNDEFINED> instruction: 0x06120111
 c24:	42971840 	addsmi	r1, r7, #64, 16	; 0x400000
 c28:	00130119 	andseq	r0, r3, r9, lsl r1
 c2c:	00050300 	andeq	r0, r5, r0, lsl #6
 c30:	0b3a0e03 	bleq	e84444 <__bss_end__+0xe5c394>
 c34:	0b390b3b 	bleq	e43928 <__bss_end__+0xe1b878>
 c38:	18021349 	stmdane	r2, {r0, r3, r6, r8, r9, ip}
 c3c:	18040000 	stmdane	r4, {}	; <UNPREDICTABLE>
 c40:	05000000 	streq	r0, [r0, #-0]
 c44:	0b0b0024 	bleq	2c0cdc <__bss_end__+0x298c2c>
 c48:	0e030b3e 	vmoveq.16	d3[0], r0
 c4c:	01000000 	mrseq	r0, (UNDEF: 0)
 c50:	06100011 			; <UNDEFINED> instruction: 0x06100011
 c54:	01120111 	tsteq	r2, r1, lsl r1
 c58:	0e1b0e03 	cdpeq	14, 1, cr0, cr11, cr3, {0}
 c5c:	05130e25 	ldreq	r0, [r3, #-3621]	; 0xfffff1db
 c60:	01000000 	mrseq	r0, (UNDEF: 0)
 c64:	0e250111 	mcreq	1, 1, r0, cr5, cr1, {0}
 c68:	0e030b13 	vmoveq.32	d3[0], r0
 c6c:	01110e1b 	tsteq	r1, fp, lsl lr
 c70:	17100612 			; <UNDEFINED> instruction: 0x17100612
 c74:	24020000 	strcs	r0, [r2], #-0
 c78:	3e0b0b00 	vmlacc.f64	d0, d11, d0
 c7c:	000e030b 	andeq	r0, lr, fp, lsl #6
 c80:	00240300 	eoreq	r0, r4, r0, lsl #6
 c84:	0b3e0b0b 	bleq	f838b8 <__bss_end__+0xf5b808>
 c88:	00000803 	andeq	r0, r0, r3, lsl #16
 c8c:	03001604 	movweq	r1, #1540	; 0x604
 c90:	3b0b3a0e 	blcc	2cf4d0 <__bss_end__+0x2a7420>
 c94:	490b390b 	stmdbmi	fp, {r0, r1, r3, r8, fp, ip, sp}
 c98:	05000013 	streq	r0, [r0, #-19]	; 0xffffffed
 c9c:	0e030104 	adfeqs	f0, f3, f4
 ca0:	0b0b0b3e 	bleq	2c39a0 <__bss_end__+0x29b8f0>
 ca4:	0b3a1349 	bleq	e859d0 <__bss_end__+0xe5d920>
 ca8:	0b390b3b 	bleq	e4399c <__bss_end__+0xe1b8ec>
 cac:	00001301 	andeq	r1, r0, r1, lsl #6
 cb0:	03002806 	movweq	r2, #2054	; 0x806
 cb4:	000b1c0e 	andeq	r1, fp, lr, lsl #24
 cb8:	00260700 	eoreq	r0, r6, r0, lsl #14
 cbc:	00001349 	andeq	r1, r0, r9, asr #6
 cc0:	03003408 	movweq	r3, #1032	; 0x408
 cc4:	3b0b3a0e 	blcc	2cf504 <__bss_end__+0x2a7454>
 cc8:	490b390b 	stmdbmi	fp, {r0, r1, r3, r8, fp, ip, sp}
 ccc:	00180213 	andseq	r0, r8, r3, lsl r2
 cd0:	01010900 	tsteq	r1, r0, lsl #18
 cd4:	13011349 	movwne	r1, #4937	; 0x1349
 cd8:	210a0000 	mrscs	r0, (UNDEF: 10)
 cdc:	2f134900 	svccs	0x00134900
 ce0:	0b00000b 	bleq	d14 <errno+0xd10>
 ce4:	0e030113 	mcreq	1, 0, r0, cr3, cr3, {0}
 ce8:	0b3a0b0b 	bleq	e8391c <__bss_end__+0xe5b86c>
 cec:	0b39053b 	bleq	e421e0 <__bss_end__+0xe1a130>
 cf0:	00001301 	andeq	r1, r0, r1, lsl #6
 cf4:	03000d0c 	movweq	r0, #3340	; 0xd0c
 cf8:	3b0b3a0e 	blcc	2cf538 <__bss_end__+0x2a7488>
 cfc:	490b3905 	stmdbmi	fp, {r0, r2, r8, fp, ip, sp}
 d00:	000b3813 	andeq	r3, fp, r3, lsl r8
 d04:	00160d00 	andseq	r0, r6, r0, lsl #26
 d08:	0b3a0e03 	bleq	e8451c <__bss_end__+0xe5c46c>
 d0c:	0b39053b 	bleq	e42200 <__bss_end__+0xe1a150>
 d10:	00001349 	andeq	r1, r0, r9, asr #6
 d14:	0301130e 	movweq	r1, #4878	; 0x130e
 d18:	3a050b0e 	bcc	143958 <__bss_end__+0x11b8a8>
 d1c:	390b3b0b 	stmdbcc	fp, {r0, r1, r3, r8, r9, fp, ip, sp}
 d20:	0013010b 	andseq	r0, r3, fp, lsl #2
 d24:	000d0f00 	andeq	r0, sp, r0, lsl #30
 d28:	0b3a0803 	bleq	e82d3c <__bss_end__+0xe5ac8c>
 d2c:	0b390b3b 	bleq	e43a20 <__bss_end__+0xe1b970>
 d30:	0b381349 	bleq	e05a5c <__bss_end__+0xddd9ac>
 d34:	0d100000 	ldceq	0, cr0, [r0, #-0]
 d38:	3a0e0300 	bcc	381940 <__bss_end__+0x359890>
 d3c:	390b3b0b 	stmdbcc	fp, {r0, r1, r3, r8, r9, fp, ip, sp}
 d40:	3813490b 	ldmdacc	r3, {r0, r1, r3, r8, fp, lr}
 d44:	11000005 	tstne	r0, r5
 d48:	0e030016 	mcreq	0, 0, r0, cr3, cr6, {0}
 d4c:	0b3b0b3a 	bleq	ec3a3c <__bss_end__+0xe9b98c>
 d50:	13490b39 	movtne	r0, #39737	; 0x9b39
 d54:	00050188 	andeq	r0, r5, r8, lsl #3
 d58:	00341200 	eorseq	r1, r4, r0, lsl #4
 d5c:	0b3a0e03 	bleq	e84570 <__bss_end__+0xe5c4c0>
 d60:	0b390b3b 	bleq	e43a54 <__bss_end__+0xe1b9a4>
 d64:	193f1349 	ldmdbne	pc!, {r0, r3, r6, r8, r9, ip}	; <UNPREDICTABLE>
 d68:	0000193c 	andeq	r1, r0, ip, lsr r9
 d6c:	0b000f13 	bleq	49c0 <errno+0x49bc>
 d70:	0013490b 	andseq	r4, r3, fp, lsl #18
 d74:	002e1400 	eoreq	r1, lr, r0, lsl #8
 d78:	0e03193f 			; <UNDEFINED> instruction: 0x0e03193f
 d7c:	0b3b0b3a 	bleq	ec3a6c <__bss_end__+0xe9b9bc>
 d80:	19270b39 	stmdbne	r7!, {r0, r3, r4, r5, r8, r9, fp}
 d84:	01111349 	tsteq	r1, r9, asr #6
 d88:	18400612 	stmdane	r0, {r1, r4, r9, sl}^
 d8c:	00194296 	mulseq	r9, r6, r2
 d90:	000f1500 	andeq	r1, pc, r0, lsl #10
 d94:	00000b0b 	andeq	r0, r0, fp, lsl #22
 d98:	03002e16 	movweq	r2, #3606	; 0xe16
 d9c:	3b0b3a0e 	blcc	2cf5dc <__bss_end__+0x2a752c>
 da0:	270b390b 	strcs	r3, [fp, -fp, lsl #18]
 da4:	11134919 	tstne	r3, r9, lsl r9
 da8:	40061201 	andmi	r1, r6, r1, lsl #4
 dac:	19429618 	stmdbne	r2, {r3, r4, r9, sl, ip, pc}^
 db0:	2e170000 	cdpcs	0, 1, cr0, cr7, cr0, {0}
 db4:	3a0e0301 	bcc	3819c0 <__bss_end__+0x359910>
 db8:	390b3b0b 	stmdbcc	fp, {r0, r1, r3, r8, r9, fp, ip, sp}
 dbc:	4919270b 	ldmdbmi	r9, {r0, r1, r3, r8, r9, sl, sp}
 dc0:	12011113 	andne	r1, r1, #-1073741820	; 0xc0000004
 dc4:	97184006 	ldrls	r4, [r8, -r6]
 dc8:	00001942 	andeq	r1, r0, r2, asr #18
 dcc:	03003418 	movweq	r3, #1048	; 0x418
 dd0:	3b0b3a08 	blcc	2cf5f8 <__bss_end__+0x2a7548>
 dd4:	490b390b 	stmdbmi	fp, {r0, r1, r3, r8, fp, ip, sp}
 dd8:	00180213 	andseq	r0, r8, r3, lsl r2
 ddc:	11010000 	mrsne	r0, (UNDEF: 1)
 de0:	130e2501 	movwne	r2, #58625	; 0xe501
 de4:	1b0e030b 	blne	381a18 <__bss_end__+0x359968>
 de8:	1201110e 	andne	r1, r1, #-2147483645	; 0x80000003
 dec:	00171006 	andseq	r1, r7, r6
 df0:	00240200 	eoreq	r0, r4, r0, lsl #4
 df4:	0b3e0b0b 	bleq	f83a28 <__bss_end__+0xf5b978>
 df8:	00000e03 	andeq	r0, r0, r3, lsl #28
 dfc:	0b002403 	bleq	9e10 <errno+0x9e0c>
 e00:	030b3e0b 	movweq	r3, #48651	; 0xbe0b
 e04:	04000008 	streq	r0, [r0], #-8
 e08:	0e030016 	mcreq	0, 0, r0, cr3, cr6, {0}
 e0c:	0b3b0b3a 	bleq	ec3afc <__bss_end__+0xe9ba4c>
 e10:	13490b39 	movtne	r0, #39737	; 0x9b39
 e14:	04050000 	streq	r0, [r5], #-0
 e18:	3e0e0301 	cdpcc	3, 0, cr0, cr14, cr1, {0}
 e1c:	490b0b0b 	stmdbmi	fp, {r0, r1, r3, r8, r9, fp}
 e20:	3b0b3a13 	blcc	2cf674 <__bss_end__+0x2a75c4>
 e24:	010b390b 	tsteq	fp, fp, lsl #18
 e28:	06000013 			; <UNDEFINED> instruction: 0x06000013
 e2c:	0e030028 	cdpeq	0, 0, cr0, cr3, cr8, {1}
 e30:	00000b1c 	andeq	r0, r0, ip, lsl fp
 e34:	49002607 	stmdbmi	r0, {r0, r1, r2, r9, sl, sp}
 e38:	08000013 	stmdaeq	r0, {r0, r1, r4}
 e3c:	0e030034 	mcreq	0, 0, r0, cr3, cr4, {1}
 e40:	0b3b0b3a 	bleq	ec3b30 <__bss_end__+0xe9ba80>
 e44:	13490b39 	movtne	r0, #39737	; 0x9b39
 e48:	00001802 	andeq	r1, r0, r2, lsl #16
 e4c:	49010109 	stmdbmi	r1, {r0, r3, r8}
 e50:	00130113 	andseq	r0, r3, r3, lsl r1
 e54:	00210a00 	eoreq	r0, r1, r0, lsl #20
 e58:	0b2f1349 	bleq	bc5b84 <__bss_end__+0xb9dad4>
 e5c:	130b0000 	movwne	r0, #45056	; 0xb000
 e60:	0b0e0301 	bleq	381a6c <__bss_end__+0x3599bc>
 e64:	3b0b3a0b 	blcc	2cf698 <__bss_end__+0x2a75e8>
 e68:	010b3905 	tsteq	fp, r5, lsl #18
 e6c:	0c000013 	stceq	0, cr0, [r0], {19}
 e70:	0e03000d 	cdpeq	0, 0, cr0, cr3, cr13, {0}
 e74:	053b0b3a 	ldreq	r0, [fp, #-2874]!	; 0xfffff4c6
 e78:	13490b39 	movtne	r0, #39737	; 0x9b39
 e7c:	00000b38 	andeq	r0, r0, r8, lsr fp
 e80:	0300160d 	movweq	r1, #1549	; 0x60d
 e84:	3b0b3a0e 	blcc	2cf6c4 <__bss_end__+0x2a7614>
 e88:	490b3905 	stmdbmi	fp, {r0, r2, r8, fp, ip, sp}
 e8c:	0e000013 	mcreq	0, 0, r0, cr0, cr3, {0}
 e90:	0e030113 	mcreq	1, 0, r0, cr3, cr3, {0}
 e94:	0b3a050b 	bleq	e822c8 <__bss_end__+0xe5a218>
 e98:	0b390b3b 	bleq	e43b8c <__bss_end__+0xe1badc>
 e9c:	00001301 	andeq	r1, r0, r1, lsl #6
 ea0:	03000d0f 	movweq	r0, #3343	; 0xd0f
 ea4:	3b0b3a08 	blcc	2cf6cc <__bss_end__+0x2a761c>
 ea8:	490b390b 	stmdbmi	fp, {r0, r1, r3, r8, fp, ip, sp}
 eac:	000b3813 	andeq	r3, fp, r3, lsl r8
 eb0:	000d1000 	andeq	r1, sp, r0
 eb4:	0b3a0e03 	bleq	e846c8 <__bss_end__+0xe5c618>
 eb8:	0b390b3b 	bleq	e43bac <__bss_end__+0xe1bafc>
 ebc:	05381349 	ldreq	r1, [r8, #-841]!	; 0xfffffcb7
 ec0:	16110000 	ldrne	r0, [r1], -r0
 ec4:	3a0e0300 	bcc	381acc <__bss_end__+0x359a1c>
 ec8:	390b3b0b 	stmdbcc	fp, {r0, r1, r3, r8, r9, fp, ip, sp}
 ecc:	8813490b 	ldmdahi	r3, {r0, r1, r3, r8, fp, lr}
 ed0:	00000501 	andeq	r0, r0, r1, lsl #10
 ed4:	03003412 	movweq	r3, #1042	; 0x412
 ed8:	3b0b3a0e 	blcc	2cf718 <__bss_end__+0x2a7668>
 edc:	490b390b 	stmdbmi	fp, {r0, r1, r3, r8, fp, ip, sp}
 ee0:	3c193f13 	ldccc	15, cr3, [r9], {19}
 ee4:	13000019 	movwne	r0, #25
 ee8:	0b0b000f 	bleq	2c0f2c <__bss_end__+0x298e7c>
 eec:	00001349 	andeq	r1, r0, r9, asr #6
 ef0:	0b011714 	bleq	46b48 <__bss_end__+0x1ea98>
 ef4:	3b0b3a0b 	blcc	2cf728 <__bss_end__+0x2a7678>
 ef8:	010b390b 	tsteq	fp, fp, lsl #18
 efc:	15000013 	strne	r0, [r0, #-19]	; 0xffffffed
 f00:	0e03000d 	cdpeq	0, 0, cr0, cr3, cr13, {0}
 f04:	0b3b0b3a 	bleq	ec3bf4 <__bss_end__+0xe9bb44>
 f08:	13490b39 	movtne	r0, #39737	; 0x9b39
 f0c:	0f160000 	svceq	0x00160000
 f10:	000b0b00 	andeq	r0, fp, r0, lsl #22
 f14:	00151700 	andseq	r1, r5, r0, lsl #14
 f18:	00001927 	andeq	r1, r0, r7, lsr #18
 f1c:	0b011318 	bleq	45b84 <__bss_end__+0x1dad4>
 f20:	3b0b3a0b 	blcc	2cf754 <__bss_end__+0x2a76a4>
 f24:	010b390b 	tsteq	fp, fp, lsl #18
 f28:	19000013 	stmdbne	r0, {r0, r1, r4}
 f2c:	0e03000d 	cdpeq	0, 0, cr0, cr3, cr13, {0}
 f30:	0b3b0b3a 	bleq	ec3c20 <__bss_end__+0xe9bb70>
 f34:	13490b39 	movtne	r0, #39737	; 0x9b39
 f38:	00000b38 	andeq	r0, r0, r8, lsr fp
 f3c:	3f012e1a 	svccc	0x00012e1a
 f40:	3a0e0319 	bcc	381bac <__bss_end__+0x359afc>
 f44:	390b3b0b 	stmdbcc	fp, {r0, r1, r3, r8, r9, fp, ip, sp}
 f48:	1119270b 	tstne	r9, fp, lsl #14
 f4c:	40061201 	andmi	r1, r6, r1, lsl #4
 f50:	19429618 	stmdbne	r2, {r3, r4, r9, sl, ip, pc}^
 f54:	00001301 	andeq	r1, r0, r1, lsl #6
 f58:	0300051b 	movweq	r0, #1307	; 0x51b
 f5c:	3b0b3a0e 	blcc	2cf79c <__bss_end__+0x2a76ec>
 f60:	490b390b 	stmdbmi	fp, {r0, r1, r3, r8, fp, ip, sp}
 f64:	00180213 	andseq	r0, r8, r3, lsl r2
 f68:	01151c00 	tsteq	r5, r0, lsl #24
 f6c:	13011349 	movwne	r1, #4937	; 0x1349
 f70:	181d0000 	ldmdane	sp, {}	; <UNPREDICTABLE>
 f74:	00000000 	andeq	r0, r0, r0

Disassembly of section .debug_line:

00000000 <.debug_line>:
{
       0:	00000574 	andeq	r0, r0, r4, ror r5
       4:	02fb0003 	rscseq	r0, fp, #3
       8:	01020000 	mrseq	r0, (UNDEF: 2)
       c:	000d0efb 	strdeq	r0, [sp], -fp
    bootinfo = bi;
      10:	01010101 	tsteq	r1, r1, lsl #2
      14:	01000000 	mrseq	r0, (UNDEF: 0)
      18:	2f010000 	svccs	0x00010000
      1c:	656d6f68 	strbvs	r6, [sp, #-3944]!	; 0xfffff098
}
      20:	6e75732f 	cdpvs	3, 7, cr7, cr5, cr15, {1}
      24:	6f647679 	svcvs	0x00647679
      28:	732f676e 			; <UNDEFINED> instruction: 0x732f676e
      2c:	2f346c65 	svccs	0x00346c65
{
      30:	696e696d 	stmdbvs	lr!, {r0, r2, r3, r5, r6, r8, fp, sp, lr}^
      34:	6975625f 	ldmdbvs	r5!, {r0, r1, r2, r3, r4, r6, r9, sp, lr}^
    return bootinfo;
      38:	732f646c 			; <UNDEFINED> instruction: 0x732f646c
      3c:	2d346c65 	ldccs	12, cr6, [r4, #-404]!	; 0xfffffe6c
      40:	6f747574 	svcvs	0x00747574
}
      44:	6c616972 			; <UNDEFINED> instruction: 0x6c616972
      48:	616d2d73 	smcvs	53971	; 0xd2d3
      4c:	6566696e 	strbvs	r6, [r6, #-2414]!	; 0xfffff692
      50:	742f7473 	strtvc	r7, [pc], #-1139	; 58 <errno+0x54>
      54:	726f7475 	rsbvc	r7, pc, #1962934272	; 0x75000000
      58:	5f6c6169 	svcpl	0x006c6169
      5c:	6c697562 	cfstr64vs	mvdx7, [r9], #-392	; 0xfffffe78
      60:	696c2f64 	stmdbvs	ip!, {r2, r5, r6, r8, r9, sl, fp, sp}^
      64:	6c657362 	stclvs	3, cr7, [r5], #-392	; 0xfffffe78
      68:	6e692f34 	mcrvs	15, 3, r2, cr9, cr4, {1}
      6c:	64756c63 	ldrbtvs	r6, [r5], #-3171	; 0xfffff39d
      70:	65732f65 	ldrbvs	r2, [r3, #-3941]!	; 0xfffff09b
      74:	2f00346c 	svccs	0x0000346c
      78:	656d6f68 	strbvs	r6, [sp, #-3944]!	; 0xfffff098
      7c:	6e75732f 	cdpvs	3, 7, cr7, cr5, cr15, {1}
      80:	6f647679 	svcvs	0x00647679
      84:	732f676e 			; <UNDEFINED> instruction: 0x732f676e
      88:	2f346c65 	svccs	0x00346c65
      8c:	696e696d 	stmdbvs	lr!, {r0, r2, r3, r5, r6, r8, fp, sp, lr}^
      90:	6975625f 	ldmdbvs	r5!, {r0, r1, r2, r3, r4, r6, r9, sp, lr}^
      94:	732f646c 			; <UNDEFINED> instruction: 0x732f646c
      98:	2d346c65 	ldccs	12, cr6, [r4, #-404]!	; 0xfffffe6c
      9c:	6f747574 	svcvs	0x00747574
      a0:	6c616972 			; <UNDEFINED> instruction: 0x6c616972
      a4:	616d2d73 	smcvs	53971	; 0xd2d3
      a8:	6566696e 	strbvs	r6, [r6, #-2414]!	; 0xfffff692
      ac:	6b2f7473 	blvs	bdd280 <__bss_end__+0xbb51d0>
      b0:	656e7265 	strbvs	r7, [lr, #-613]!	; 0xfffffd9b
      b4:	696c2f6c 	stmdbvs	ip!, {r2, r3, r5, r6, r8, r9, sl, fp, sp}^
      b8:	6c657362 	stclvs	3, cr7, [r5], #-392	; 0xfffffe78
      bc:	6e692f34 	mcrvs	15, 3, r2, cr9, cr4, {1}
      c0:	64756c63 	ldrbtvs	r6, [r5], #-3171	; 0xfffff39d
      c4:	65732f65 	ldrbvs	r2, [r3, #-3941]!	; 0xfffff09b
      c8:	2f00346c 	svccs	0x0000346c
      cc:	656d6f68 	strbvs	r6, [sp, #-3944]!	; 0xfffff098
      d0:	6e75732f 	cdpvs	3, 7, cr7, cr5, cr15, {1}
      d4:	6f647679 	svcvs	0x00647679
      d8:	732f676e 			; <UNDEFINED> instruction: 0x732f676e
      dc:	2f346c65 	svccs	0x00346c65
      e0:	696e696d 	stmdbvs	lr!, {r0, r2, r3, r5, r6, r8, fp, sp, lr}^
      e4:	6975625f 	ldmdbvs	r5!, {r0, r1, r2, r3, r4, r6, r9, sp, lr}^
      e8:	732f646c 			; <UNDEFINED> instruction: 0x732f646c
      ec:	2d346c65 	ldccs	12, cr6, [r4, #-404]!	; 0xfffffe6c
      f0:	6f747574 	svcvs	0x00747574
      f4:	6c616972 			; <UNDEFINED> instruction: 0x6c616972
      f8:	616d2d73 	smcvs	53971	; 0xd2d3
      fc:	6566696e 	strbvs	r6, [r6, #-2414]!	; 0xfffff692
     100:	6b2f7473 	blvs	bdd2d4 <__bss_end__+0xbb5224>
     104:	656e7265 	strbvs	r7, [lr, #-613]!	; 0xfffffd9b
     108:	696c2f6c 	stmdbvs	ip!, {r2, r3, r5, r6, r8, r9, sl, fp, sp}^
     10c:	6c657362 	stclvs	3, cr7, [r5], #-392	; 0xfffffe78
     110:	65732f34 	ldrbvs	r2, [r3, #-3892]!	; 0xfffff0cc
     114:	615f346c 	cmpvs	pc, ip, ror #8
     118:	5f686372 	svcpl	0x00686372
     11c:	6c636e69 	stclvs	14, cr6, [r3], #-420	; 0xfffffe5c
     120:	2f656475 	svccs	0x00656475
     124:	63726161 	cmnvs	r2, #1073741848	; 0x40000018
     128:	2f323368 	svccs	0x00323368
     12c:	346c6573 	strbtcc	r6, [ip], #-1395	; 0xfffffa8d
     130:	6c65732f 	stclvs	3, cr7, [r5], #-188	; 0xffffff44
     134:	72615f34 	rsbvc	r5, r1, #52, 30	; 0xd0
     138:	2f006863 	svccs	0x00006863
     13c:	656d6f68 	strbvs	r6, [sp, #-3944]!	; 0xfffff098
     140:	6e75732f 	cdpvs	3, 7, cr7, cr5, cr15, {1}
     144:	6f647679 	svcvs	0x00647679
     148:	732f676e 			; <UNDEFINED> instruction: 0x732f676e
     14c:	2f346c65 	svccs	0x00346c65
     150:	696e696d 	stmdbvs	lr!, {r0, r2, r3, r5, r6, r8, fp, sp, lr}^
     154:	6975625f 	ldmdbvs	r5!, {r0, r1, r2, r3, r4, r6, r9, sp, lr}^
     158:	732f646c 			; <UNDEFINED> instruction: 0x732f646c
     15c:	2d346c65 	ldccs	12, cr6, [r4, #-404]!	; 0xfffffe6c
     160:	6f747574 	svcvs	0x00747574
     164:	6c616972 			; <UNDEFINED> instruction: 0x6c616972
     168:	616d2d73 	smcvs	53971	; 0xd2d3
     16c:	6566696e 	strbvs	r6, [r6, #-2414]!	; 0xfffff692
     170:	6b2f7473 	blvs	bdd344 <__bss_end__+0xbb5294>
     174:	656e7265 	strbvs	r7, [lr, #-613]!	; 0xfffffd9b
     178:	696c2f6c 	stmdbvs	ip!, {r2, r3, r5, r6, r8, r9, sl, fp, sp}^
     17c:	6c657362 	stclvs	3, cr7, [r5], #-392	; 0xfffffe78
     180:	72612f34 	rsbvc	r2, r1, #52, 30	; 0xd0
     184:	695f6863 	ldmdbvs	pc, {r0, r1, r5, r6, fp, sp, lr}^	; <UNPREDICTABLE>
     188:	756c636e 	strbvc	r6, [ip, #-878]!	; 0xfffffc92
     18c:	612f6564 			; <UNDEFINED> instruction: 0x612f6564
     190:	732f6d72 			; <UNDEFINED> instruction: 0x732f6d72
     194:	2f346c65 	svccs	0x00346c65
     198:	68637261 	stmdavs	r3!, {r0, r5, r6, r9, ip, sp, lr}^
     19c:	6f682f00 	svcvs	0x00682f00
     1a0:	732f656d 			; <UNDEFINED> instruction: 0x732f656d
     1a4:	76796e75 			; <UNDEFINED> instruction: 0x76796e75
     1a8:	676e6f64 	strbvs	r6, [lr, -r4, ror #30]!
     1ac:	6c65732f 	stclvs	3, cr7, [r5], #-188	; 0xffffff44
     1b0:	696d2f34 	stmdbvs	sp!, {r2, r4, r5, r8, r9, sl, fp, sp}^
     1b4:	625f696e 	subsvs	r6, pc, #1802240	; 0x1b8000
     1b8:	646c6975 	strbtvs	r6, [ip], #-2421	; 0xfffff68b
     1bc:	6c65732f 	stclvs	3, cr7, [r5], #-188	; 0xffffff44
     1c0:	75742d34 	ldrbvc	r2, [r4, #-3380]!	; 0xfffff2cc
     1c4:	69726f74 	ldmdbvs	r2!, {r2, r4, r5, r6, r8, r9, sl, fp, sp, lr}^
     1c8:	2d736c61 	ldclcs	12, cr6, [r3, #-388]!	; 0xfffffe7c
     1cc:	696e616d 	stmdbvs	lr!, {r0, r2, r3, r5, r6, r8, sp, lr}^
     1d0:	74736566 	ldrbtvc	r6, [r3], #-1382	; 0xfffffa9a
     1d4:	7475742f 	ldrbtvc	r7, [r5], #-1071	; 0xfffffbd1
     1d8:	6169726f 	cmnvs	r9, pc, ror #4
     1dc:	75625f6c 	strbvc	r5, [r2, #-3948]!	; 0xfffff094
     1e0:	2f646c69 	svccs	0x00646c69
     1e4:	7362696c 	cmnvc	r2, #108, 18	; 0x1b0000
     1e8:	2f346c65 	svccs	0x00346c65
     1ec:	6c636e69 	stclvs	14, cr6, [r3], #-420	; 0xfffffe5c
     1f0:	2f656475 	svccs	0x00656475
     1f4:	65746e69 	ldrbvs	r6, [r4, #-3689]!	; 0xfffff197
     1f8:	63616672 	cmnvs	r1, #119537664	; 0x7200000
     1fc:	2f007365 	svccs	0x00007365
     200:	656d6f68 	strbvs	r6, [sp, #-3944]!	; 0xfffff098
     204:	6e75732f 	cdpvs	3, 7, cr7, cr5, cr15, {1}
     208:	6f647679 	svcvs	0x00647679
     20c:	732f676e 			; <UNDEFINED> instruction: 0x732f676e
     210:	2f346c65 	svccs	0x00346c65
     214:	696e696d 	stmdbvs	lr!, {r0, r2, r3, r5, r6, r8, fp, sp, lr}^
     218:	6975625f 	ldmdbvs	r5!, {r0, r1, r2, r3, r4, r6, r9, sp, lr}^
     21c:	732f646c 			; <UNDEFINED> instruction: 0x732f646c
     220:	6c706d69 	ldclvs	13, cr6, [r0], #-420	; 0xfffffe5c
     224:	6f725f65 	svcvs	0x00725f65
     228:	0000746f 	andeq	r7, r0, pc, ror #8
     22c:	72616873 	rsbvc	r6, r1, #7536640	; 0x730000
     230:	745f6465 	ldrbvc	r6, [pc], #-1125	; 238 <errno+0x234>
     234:	73657079 	cmnvc	r5, #121	; 0x79
     238:	6e65675f 	mcrvs	7, 3, r6, cr5, cr15, {2}
     23c:	0100682e 	tsteq	r0, lr, lsr #16
     240:	75660000 	strbvc	r0, [r6, #-0]!
     244:	6974636e 	ldmdbvs	r4!, {r1, r2, r3, r5, r6, r8, r9, sp, lr}^
     248:	2e736e6f 	cdpcs	14, 7, cr6, cr3, cr15, {3}
     24c:	00020068 	andeq	r0, r2, r8, rrx
     250:	73797300 	cmnvc	r9, #0, 6
     254:	6c6c6163 	stfvse	f6, [ip], #-396	; 0xfffffe74
     258:	00682e73 	rsbeq	r2, r8, r3, ror lr
     25c:	73000003 	movwvc	r0, #3
     260:	61637379 	smcvs	14137	; 0x3739
     264:	2e736c6c 	cdpcs	12, 7, cr6, cr3, cr12, {3}
     268:	00040068 	andeq	r0, r4, r8, rrx
     26c:	6c657300 	stclvs	3, cr7, [r5], #-0
     270:	6c635f34 	stclvs	15, cr5, [r3], #-208	; 0xffffff30
     274:	746e6569 	strbtvc	r6, [lr], #-1385	; 0xfffffa97
     278:	0500682e 	streq	r6, [r0, #-2094]	; 0xfffff7d2
     27c:	616d0000 	cmnvs	sp, r0
     280:	632e6e69 			; <UNDEFINED> instruction: 0x632e6e69
     284:	00000600 	andeq	r0, r0, r0, lsl #12
     288:	706d6973 	rsbvc	r6, sp, r3, ror r9
     28c:	745f656c 	ldrbvc	r6, [pc], #-1388	; 294 <errno+0x290>
     290:	73657079 	cmnvc	r5, #121	; 0x79
     294:	0200682e 	andeq	r6, r0, #3014656	; 0x2e0000
     298:	626f0000 	rsbvs	r0, pc, #0
     29c:	7463656a 	strbtvc	r6, [r3], #-1386	; 0xfffffa96
     2a0:	65707974 	ldrbvs	r7, [r0, #-2420]!	; 0xfffff68c
     2a4:	0200682e 	andeq	r6, r0, #3014656	; 0x2e0000
     2a8:	79730000 	ldmdbvc	r3!, {}^	; <UNPREDICTABLE>
     2ac:	6c616373 	stclvs	3, cr6, [r1], #-460	; 0xfffffe34
     2b0:	00682e6c 	rsbeq	r2, r8, ip, ror #28
     2b4:	65000001 	strvs	r0, [r0, #-1]
     2b8:	726f7272 	rsbvc	r7, pc, #536870919	; 0x20000007
     2bc:	00682e73 	rsbeq	r2, r8, r3, ror lr
     2c0:	73000002 	movwvc	r0, #2
     2c4:	65726168 	ldrbvs	r6, [r2, #-360]!	; 0xfffffe98
     2c8:	79745f64 	ldmdbvc	r4!, {r2, r5, r6, r8, r9, sl, fp, ip, lr}^
     2cc:	2e736570 	mrccs	5, 3, r6, cr3, cr0, {3}
     2d0:	00020068 	andeq	r0, r2, r8, rrx
     2d4:	70797400 	rsbsvc	r7, r9, r0, lsl #8
     2d8:	682e7365 	stmdavs	lr!, {r0, r2, r5, r6, r8, r9, ip, sp, lr}
     2dc:	00000200 	andeq	r0, r0, r0, lsl #4
     2e0:	6f766e69 	svcvs	0x00766e69
     2e4:	69746163 	ldmdbvs	r4!, {r0, r1, r5, r6, r8, sp, lr}^
     2e8:	682e6e6f 	stmdavs	lr!, {r0, r1, r2, r3, r5, r6, r9, sl, fp, sp, lr}
     2ec:	00000100 	andeq	r0, r0, r0, lsl #2
     2f0:	746f6f62 	strbtvc	r6, [pc], #-3938	; 2f8 <errno+0x2f4>
     2f4:	6f666e69 	svcvs	0x00666e69
     2f8:	7079745f 	rsbsvc	r7, r9, pc, asr r4
     2fc:	682e7365 	stmdavs	lr!, {r0, r2, r5, r6, r8, r9, ip, sp, lr}
     300:	00000200 	andeq	r0, r0, r0, lsl #4
     304:	01840500 	orreq	r0, r4, r0, lsl #10
     308:	18020500 	stmdane	r2, {r8, sl}
     30c:	03000101 	movweq	r0, #257	; 0x101
     310:	050100fa 	streq	r0, [r1, #-250]	; 0xffffff06
     314:	0200da05 	andeq	sp, r0, #20480	; 0x5000
     318:	82060104 	andhi	r0, r6, #4, 2
     31c:	0200f306 	andeq	pc, r0, #402653184	; 0x18000000
     320:	82060104 	andhi	r0, r6, #4, 2
     324:	0200f306 	andeq	pc, r0, #402653184	; 0x18000000
     328:	82060104 	andhi	r0, r6, #4, 2
     32c:	0200f306 	andeq	pc, r0, #402653184	; 0x18000000
     330:	82060104 	andhi	r0, r6, #4, 2
     334:	f5062705 			; <UNDEFINED> instruction: 0xf5062705
     338:	054a0905 	strbeq	r0, [sl, #-2309]	; 0xfffff6fb
     33c:	09052f22 	stmdbeq	r5, {r1, r5, r8, r9, sl, fp, sp}
     340:	2f210566 	svccs	0x00210566
     344:	05660905 	strbeq	r0, [r6, #-2309]!	; 0xfffff6fb
     348:	09052f22 	stmdbeq	r5, {r1, r5, r8, r9, sl, fp, sp}
     34c:	2a1d054a 	bcs	74187c <__bss_end__+0x7197cc>
     350:	05340c05 	ldreq	r0, [r4, #-3077]!	; 0xfffff3fb
     354:	06022f01 	streq	r2, [r2], -r1, lsl #30
     358:	05010100 	streq	r0, [r1, #-256]	; 0xffffff00
     35c:	0205006f 	andeq	r0, r5, #111	; 0x6f
     360:	00010240 	andeq	r0, r1, r0, asr #4
     364:	0102bd03 	tsteq	r2, r3, lsl #26
     368:	00da0505 	sbcseq	r0, sl, r5, lsl #10
     36c:	06010402 	streq	r0, [r1], -r2, lsl #8
     370:	00f3069e 	smlalseq	r0, r3, lr, r6
     374:	06010402 	streq	r0, [r1], -r2, lsl #8
     378:	00f30682 	rscseq	r0, r3, r2, lsl #13
     37c:	06010402 	streq	r0, [r1], -r2, lsl #8
     380:	00f30682 	rscseq	r0, r3, r2, lsl #13
     384:	06010402 	streq	r0, [r1], -r2, lsl #8
     388:	06090582 	streq	r0, [r9], -r2, lsl #11
     38c:	4b2205f5 	blmi	881b68 <__bss_end__+0x859ab8>
     390:	05660905 	strbeq	r0, [r6, #-2309]!	; 0xfffff6fb
     394:	09052f1e 	stmdbeq	r5, {r1, r2, r3, r4, r8, r9, sl, fp, sp}
     398:	2f1c0566 	svccs	0x001c0566
     39c:	054a0905 	strbeq	r0, [sl, #-2309]	; 0xfffff6fb
     3a0:	0c052a1f 			; <UNDEFINED> instruction: 0x0c052a1f
     3a4:	2f010534 	svccs	0x00010534
     3a8:	01000602 	tsteq	r0, r2, lsl #12
     3ac:	00410501 	subeq	r0, r1, r1, lsl #10
     3b0:	03680205 	cmneq	r8, #1342177280	; 0x50000000
     3b4:	df030001 	svcle	0x00030001
     3b8:	22050102 	andcs	r0, r5, #-2147483648	; 0x80000000
     3bc:	2e090584 	cfsh32cs	mvfx0, mvfx9, #-60
     3c0:	054f0c05 	strbeq	r0, [pc, #-3077]	; fffff7c3 <__bss_end__+0xfffd7713>
     3c4:	08022f01 	stmdaeq	r2, {r0, r8, r9, sl, fp, sp}
     3c8:	05010100 	streq	r0, [r1, #-256]	; 0xffffff00
     3cc:	02050042 	andeq	r0, r5, #66	; 0x42
     3d0:	00010398 	muleq	r1, r8, r3
     3d4:	0103d403 	tsteq	r3, r3, lsl #8
     3d8:	05842205 	streq	r2, [r4, #517]	; 0x205
     3dc:	0c052e09 	stceq	14, cr2, [r5], {9}
     3e0:	2f01054f 	svccs	0x0001054f
     3e4:	01000802 	tsteq	r0, r2, lsl #16
     3e8:	05020401 	streq	r0, [r2, #-1025]	; 0xfffffbff
     3ec:	02050001 	andeq	r0, r5, #1
     3f0:	000103c8 	andeq	r0, r1, r8, asr #7
     3f4:	05012903 	streq	r2, [r1, #-2307]	; 0xfffff6fd
     3f8:	01054b0c 	tsteq	r5, ip, lsl #22
     3fc:	00060283 	andeq	r0, r6, r3, lsl #5
     400:	02040101 	andeq	r0, r4, #1073741824	; 0x40000000
     404:	05000105 	streq	r0, [r0, #-261]	; 0xfffffefb
     408:	0103ec02 	tsteq	r3, r2, lsl #24
     40c:	01330300 	teqeq	r3, r0, lsl #6
     410:	059f0505 	ldreq	r0, [pc, #1285]	; 91d <errno+0x919>
     414:	01054a21 	tsteq	r5, r1, lsr #20
     418:	0006029f 	muleq	r6, pc, r2	; <UNPREDICTABLE>
     41c:	02040101 	andeq	r0, r4, #1073741824	; 0x40000000
     420:	05000105 	streq	r0, [r0, #-261]	; 0xfffffefb
     424:	01042802 	tsteq	r4, r2, lsl #16
     428:	00cc0300 	sbceq	r0, ip, r0, lsl #6
     42c:	9f050501 	svcls	0x00050501
     430:	054a2c05 	strbeq	r2, [sl, #-3077]	; 0xfffff3fb
     434:	06028301 	streq	r8, [r2], -r1, lsl #6
     438:	04010100 	streq	r0, [r1], #-256	; 0xffffff00
     43c:	00010503 	andeq	r0, r1, r3, lsl #10
     440:	04600205 	strbteq	r0, [r0], #-517	; 0xfffffdfb
     444:	94030001 	strls	r0, [r3], #-1
     448:	18050101 	stmdane	r5, {r0, r8}
     44c:	29052fd7 	stmdbcs	r5, {r0, r1, r2, r4, r6, r7, r8, r9, sl, fp, sp}
     450:	4a180531 	bmi	60191c <__bss_end__+0x5d986c>
     454:	4b2f2905 	blmi	bca870 <__bss_end__+0xba27c0>
     458:	054a1805 	strbeq	r1, [sl, #-2053]	; 0xfffff7fb
     45c:	18052f29 	stmdane	r5, {r0, r3, r5, r8, r9, sl, fp, sp}
     460:	0505324a 	streq	r3, [r5, #-586]	; 0xfffffdb6
     464:	350f052f 	strcc	r0, [pc, #-1327]	; ffffff3d <__bss_end__+0xfffd7e8d>
     468:	05671005 	strbeq	r1, [r7, #-5]!
     46c:	67674b11 			; <UNDEFINED> instruction: 0x67674b11
     470:	67010567 	strvs	r0, [r1, -r7, ror #10]
     474:	01000802 	tsteq	r0, r2, lsl #16
     478:	05040401 	streq	r0, [r4, #-1025]	; 0xfffffbff
     47c:	02050001 	andeq	r0, r5, #1
     480:	0001050c 	andeq	r0, r1, ip, lsl #10
     484:	0101bc03 	tsteq	r1, r3, lsl #24
     488:	4bd80f05 	blmi	ff6040a4 <__bss_end__+0xff5dbff4>
     48c:	08054b4b 	stmdaeq	r5, {r0, r1, r3, r6, r8, r9, fp, lr}
     490:	001d054d 	andseq	r0, sp, sp, asr #10
     494:	66010402 	strvs	r0, [r1], -r2, lsl #8
     498:	02001a05 	andeq	r1, r0, #20480	; 0x5000
     49c:	05660104 	strbeq	r0, [r6, #-260]!	; 0xfffffefc
     4a0:	0e054b10 	vmoveq.32	d5[0], r4
     4a4:	3008054a 	andcc	r0, r8, sl, asr #10
     4a8:	02001d05 	andeq	r1, r0, #320	; 0x140
     4ac:	05660104 	strbeq	r0, [r6, #-260]!	; 0xfffffefc
     4b0:	0402001a 	streq	r0, [r2], #-26	; 0xffffffe6
     4b4:	10056601 	andne	r6, r5, r1, lsl #12
     4b8:	4a0e054b 	bmi	3819ec <__bss_end__+0x35993c>
     4bc:	05300805 	ldreq	r0, [r0, #-2053]!	; 0xfffff7fb
     4c0:	0402001d 	streq	r0, [r2], #-29	; 0xffffffe3
     4c4:	1a056601 	bne	159cd0 <__bss_end__+0x131c20>
     4c8:	01040200 	mrseq	r0, R12_usr
     4cc:	4b100566 	blmi	401a6c <__bss_end__+0x3d99bc>
     4d0:	054a0e05 	strbeq	r0, [sl, #-3589]	; 0xfffff1fb
     4d4:	1d053008 	stcne	0, cr3, [r5, #-32]	; 0xffffffe0
     4d8:	01040200 	mrseq	r0, R12_usr
     4dc:	001a0566 	andseq	r0, sl, r6, ror #10
     4e0:	66010402 	strvs	r0, [r1], -r2, lsl #8
     4e4:	054b1005 	strbeq	r1, [fp, #-5]
     4e8:	05054a0e 	streq	r4, [r5, #-2574]	; 0xfffff5f2
     4ec:	02080531 	andeq	r0, r8, #205520896	; 0xc400000
     4f0:	0e051524 	cfsh32eq	mvfx1, mvfx5, #20
     4f4:	68080567 	stmdavs	r8, {r0, r1, r2, r5, r6, r8, sl}
     4f8:	05670e05 	strbeq	r0, [r7, #-3589]!	; 0xfffff1fb
     4fc:	0e056808 	cdpeq	8, 0, cr6, cr5, cr8, {0}
     500:	68080567 	stmdavs	r8, {r0, r1, r2, r5, r6, r8, sl}
     504:	05670e05 	strbeq	r0, [r7, #-3589]!	; 0xfffff1fb
     508:	0105690c 	tsteq	r5, ip, lsl #18
     50c:	0006022f 	andeq	r0, r6, pc, lsr #4
     510:	05040101 	streq	r0, [r4, #-257]	; 0xfffffeff
     514:	05000105 	streq	r0, [r0, #-261]	; 0xfffffefb
     518:	0106b002 	tsteq	r6, r2
     51c:	1fc60300 	svcne	0x00c60300
     520:	f41b0501 			; <UNDEFINED> instruction: 0xf41b0501
     524:	05de0205 	ldrbeq	r0, [lr, #517]	; 0x205
     528:	14056906 	strne	r6, [r5], #-2310	; 0xfffff6fa
     52c:	2e06054b 	cfsh32cs	mvfx0, mvfx6, #43
     530:	4b13052f 	blmi	4c19f4 <__bss_end__+0x499944>
     534:	052e0605 	streq	r0, [lr, #-1541]!	; 0xfffff9fb
     538:	0f052f02 	svceq	0x00052f02
     53c:	08180585 	ldmdaeq	r8, {r0, r2, r7, r8, sl}
     540:	69050576 	stmdbvs	r5, {r1, r2, r4, r5, r6, r8, sl}
     544:	83670305 	cmnhi	r7, #335544320	; 0x14000000
     548:	09058383 	stmdbeq	r5, {r0, r1, r7, r8, r9, pc}
     54c:	2f01058a 	svccs	0x0001058a
     550:	01000602 	tsteq	r0, r2, lsl #12
     554:	05060401 	streq	r0, [r6, #-1025]	; 0xfffffbff
     558:	02050001 	andeq	r0, r5, #1
     55c:	000107c0 	andeq	r0, r1, r0, asr #15
     560:	9f1b0516 	svcls	0x001b0516
     564:	054c0f05 	strbeq	r0, [ip, #-3845]	; 0xfffff0fb
     568:	0b056718 	bleq	15a1d0 <__bss_end__+0x132120>
     56c:	01040200 	mrseq	r0, R12_usr
     570:	02152202 	andseq	r2, r5, #536870912	; 0x20000000
     574:	01010002 	tsteq	r1, r2
     578:	00000256 	andeq	r0, r0, r6, asr r2
     57c:	02320003 	eorseq	r0, r2, #3
     580:	01020000 	mrseq	r0, (UNDEF: 2)
     584:	000d0efb 	strdeq	r0, [sp], -fp
     588:	01010101 	tsteq	r1, r1, lsl #2
     58c:	01000000 	mrseq	r0, (UNDEF: 0)
     590:	2f010000 	svccs	0x00010000
     594:	656d6f68 	strbvs	r6, [sp, #-3944]!	; 0xfffff098
     598:	6e75732f 	cdpvs	3, 7, cr7, cr5, cr15, {1}
     59c:	6f647679 	svcvs	0x00647679
     5a0:	732f676e 			; <UNDEFINED> instruction: 0x732f676e
     5a4:	2f346c65 	svccs	0x00346c65
     5a8:	696e696d 	stmdbvs	lr!, {r0, r2, r3, r5, r6, r8, fp, sp, lr}^
     5ac:	6975625f 	ldmdbvs	r5!, {r0, r1, r2, r3, r4, r6, r9, sp, lr}^
     5b0:	732f646c 			; <UNDEFINED> instruction: 0x732f646c
     5b4:	2d346c65 	ldccs	12, cr6, [r4, #-404]!	; 0xfffffe6c
     5b8:	6f747574 	svcvs	0x00747574
     5bc:	6c616972 			; <UNDEFINED> instruction: 0x6c616972
     5c0:	616d2d73 	smcvs	53971	; 0xd2d3
     5c4:	6566696e 	strbvs	r6, [r6, #-2414]!	; 0xfffff692
     5c8:	6b2f7473 	blvs	bdd79c <__bss_end__+0xbb56ec>
     5cc:	656e7265 	strbvs	r7, [lr, #-613]!	; 0xfffffd9b
     5d0:	696c2f6c 	stmdbvs	ip!, {r2, r3, r5, r6, r8, r9, sl, fp, sp}^
     5d4:	6c657362 	stclvs	3, cr7, [r5], #-392	; 0xfffffe78
     5d8:	72732f34 	rsbsvc	r2, r3, #52, 30	; 0xd0
     5dc:	682f0063 	stmdavs	pc!, {r0, r1, r5, r6}	; <UNPREDICTABLE>
     5e0:	2f656d6f 	svccs	0x00656d6f
     5e4:	796e7573 	stmdbvc	lr!, {r0, r1, r4, r5, r6, r8, sl, ip, sp, lr}^
     5e8:	6e6f6476 	mcrvs	4, 3, r6, cr15, cr6, {3}
     5ec:	65732f67 	ldrbvs	r2, [r3, #-3943]!	; 0xfffff099
     5f0:	6d2f346c 	cfstrsvs	mvf3, [pc, #-432]!	; 448 <errno+0x444>
     5f4:	5f696e69 	svcpl	0x00696e69
     5f8:	6c697562 	cfstr64vs	mvdx7, [r9], #-392	; 0xfffffe78
     5fc:	65732f64 	ldrbvs	r2, [r3, #-3940]!	; 0xfffff09c
     600:	742d346c 	strtvc	r3, [sp], #-1132	; 0xfffffb94
     604:	726f7475 	rsbvc	r7, pc, #1962934272	; 0x75000000
     608:	736c6169 	cmnvc	ip, #1073741850	; 0x4000001a
     60c:	6e616d2d 	cdpvs	13, 6, cr6, cr1, cr13, {1}
     610:	73656669 	cmnvc	r5, #110100480	; 0x6900000
     614:	656b2f74 	strbvs	r2, [fp, #-3956]!	; 0xfffff08c
     618:	6c656e72 	stclvs	14, cr6, [r5], #-456	; 0xfffffe38
     61c:	62696c2f 	rsbvs	r6, r9, #12032	; 0x2f00
     620:	346c6573 	strbtcc	r6, [ip], #-1395	; 0xfffffa8d
     624:	636e692f 	cmnvs	lr, #770048	; 0xbc000
     628:	6564756c 	strbvs	r7, [r4, #-1388]!	; 0xfffffa94
     62c:	6c65732f 	stclvs	3, cr7, [r5], #-188	; 0xffffff44
     630:	682f0034 	stmdavs	pc!, {r2, r4, r5}	; <UNPREDICTABLE>
     634:	2f656d6f 	svccs	0x00656d6f
     638:	796e7573 	stmdbvc	lr!, {r0, r1, r4, r5, r6, r8, sl, ip, sp, lr}^
     63c:	6e6f6476 	mcrvs	4, 3, r6, cr15, cr6, {3}
     640:	65732f67 	ldrbvs	r2, [r3, #-3943]!	; 0xfffff099
     644:	6d2f346c 	cfstrsvs	mvf3, [pc, #-432]!	; 49c <errno+0x498>
     648:	5f696e69 	svcpl	0x00696e69
     64c:	6c697562 	cfstr64vs	mvdx7, [r9], #-392	; 0xfffffe78
     650:	65732f64 	ldrbvs	r2, [r3, #-3940]!	; 0xfffff09c
     654:	742d346c 	strtvc	r3, [sp], #-1132	; 0xfffffb94
     658:	726f7475 	rsbvc	r7, pc, #1962934272	; 0x75000000
     65c:	736c6169 	cmnvc	ip, #1073741850	; 0x4000001a
     660:	6e616d2d 	cdpvs	13, 6, cr6, cr1, cr13, {1}
     664:	73656669 	cmnvc	r5, #110100480	; 0x6900000
     668:	656b2f74 	strbvs	r2, [fp, #-3956]!	; 0xfffff08c
     66c:	6c656e72 	stclvs	14, cr6, [r5], #-456	; 0xfffffe38
     670:	62696c2f 	rsbvs	r6, r9, #12032	; 0x2f00
     674:	346c6573 	strbtcc	r6, [ip], #-1395	; 0xfffffa8d
     678:	6c65732f 	stclvs	3, cr7, [r5], #-188	; 0xffffff44
     67c:	72615f34 	rsbvc	r5, r1, #52, 30	; 0xd0
     680:	695f6863 	ldmdbvs	pc, {r0, r1, r5, r6, fp, sp, lr}^	; <UNPREDICTABLE>
     684:	756c636e 	strbvc	r6, [ip, #-878]!	; 0xfffffc92
     688:	612f6564 			; <UNDEFINED> instruction: 0x612f6564
     68c:	68637261 	stmdavs	r3!, {r0, r5, r6, r9, ip, sp, lr}^
     690:	732f3233 			; <UNDEFINED> instruction: 0x732f3233
     694:	2f346c65 	svccs	0x00346c65
     698:	346c6573 	strbtcc	r6, [ip], #-1395	; 0xfffffa8d
     69c:	6372615f 	cmnvs	r2, #-1073741801	; 0xc0000017
     6a0:	696c0068 	stmdbvs	ip!, {r3, r5, r6}^
     6a4:	6c657362 	stclvs	3, cr7, [r5], #-392	; 0xfffffe78
     6a8:	6e692f34 	mcrvs	15, 3, r2, cr9, cr4, {1}
     6ac:	64756c63 	ldrbtvs	r6, [r5], #-3171	; 0xfffff39d
     6b0:	65732f65 	ldrbvs	r2, [r3, #-3941]!	; 0xfffff09b
     6b4:	6c00346c 	cfstrsvs	mvf3, [r0], {108}	; 0x6c
     6b8:	65736269 	ldrbvs	r6, [r3, #-617]!	; 0xfffffd97
     6bc:	732f346c 			; <UNDEFINED> instruction: 0x732f346c
     6c0:	5f346c65 	svcpl	0x00346c65
     6c4:	68637261 	stmdavs	r3!, {r0, r5, r6, r9, ip, sp, lr}^
     6c8:	636e695f 	cmnvs	lr, #1556480	; 0x17c000
     6cc:	6564756c 	strbvs	r7, [r4, #-1388]!	; 0xfffffa94
     6d0:	7261612f 	rsbvc	r6, r1, #-1073741813	; 0xc000000b
     6d4:	32336863 	eorscc	r6, r3, #6488064	; 0x630000
     6d8:	6c65732f 	stclvs	3, cr7, [r5], #-188	; 0xffffff44
     6dc:	65732f34 	ldrbvs	r2, [r3, #-3892]!	; 0xfffff0cc
     6e0:	615f346c 	cmpvs	pc, ip, ror #8
     6e4:	00686372 	rsbeq	r6, r8, r2, ror r3
     6e8:	6c657300 	stclvs	3, cr7, [r5], #-0
     6ec:	6f625f34 	svcvs	0x00625f34
     6f0:	6e69746f 	cdpvs	4, 6, cr7, cr9, cr15, {3}
     6f4:	632e6f66 			; <UNDEFINED> instruction: 0x632e6f66
     6f8:	00000100 	andeq	r0, r0, r0, lsl #2
     6fc:	706d6973 	rsbvc	r6, sp, r3, ror r9
     700:	745f656c 	ldrbvc	r6, [pc], #-1388	; 708 <errno+0x704>
     704:	73657079 	cmnvc	r5, #121	; 0x79
     708:	0200682e 	andeq	r6, r0, #3014656	; 0x2e0000
     70c:	626f0000 	rsbvs	r0, pc, #0
     710:	7463656a 	strbtvc	r6, [r3], #-1386	; 0xfffffa96
     714:	65707974 	ldrbvs	r7, [r0, #-2420]!	; 0xfffff68c
     718:	0200682e 	andeq	r6, r0, #3014656	; 0x2e0000
     71c:	626f0000 	rsbvs	r0, pc, #0
     720:	7463656a 	strbtvc	r6, [r3], #-1386	; 0xfffffa96
     724:	65707974 	ldrbvs	r7, [r0, #-2420]!	; 0xfffff68c
     728:	0300682e 	movweq	r6, #2094	; 0x82e
     72c:	6f630000 	svcvs	0x00630000
     730:	6174736e 	cmnvs	r4, lr, ror #6
     734:	2e73746e 	cdpcs	4, 7, cr7, cr3, cr14, {3}
     738:	00020068 	andeq	r0, r2, r8, rrx
     73c:	61687300 	cmnvs	r8, r0, lsl #6
     740:	5f646572 	svcpl	0x00646572
     744:	65707974 	ldrbvs	r7, [r0, #-2420]!	; 0xfffff68c
     748:	65675f73 	strbvs	r5, [r7, #-3955]!	; 0xfffff08d
     74c:	00682e6e 	rsbeq	r2, r8, lr, ror #28
     750:	73000004 	movwvc	r0, #4
     754:	65726168 	ldrbvs	r6, [r2, #-360]!	; 0xfffffe98
     758:	79745f64 	ldmdbvc	r4!, {r2, r5, r6, r8, r9, sl, fp, ip, lr}^
     75c:	2e736570 	mrccs	5, 3, r6, cr3, cr0, {3}
     760:	00020068 	andeq	r0, r2, r8, rrx
     764:	70797400 	rsbsvc	r7, r9, r0, lsl #8
     768:	682e7365 	stmdavs	lr!, {r0, r2, r5, r6, r8, r9, ip, sp, lr}
     76c:	00000200 	andeq	r0, r0, r0, lsl #4
     770:	6f766e69 	svcvs	0x00766e69
     774:	69746163 	ldmdbvs	r4!, {r0, r1, r5, r6, r8, sp, lr}^
     778:	682e6e6f 	stmdavs	lr!, {r0, r1, r2, r3, r5, r6, r9, sl, fp, sp, lr}
     77c:	00000400 	andeq	r0, r0, r0, lsl #8
     780:	6f766e69 	svcvs	0x00766e69
     784:	69746163 	ldmdbvs	r4!, {r0, r1, r5, r6, r8, sp, lr}^
     788:	682e6e6f 	stmdavs	lr!, {r0, r1, r2, r3, r5, r6, r9, sl, fp, sp, lr}
     78c:	00000500 	andeq	r0, r0, r0, lsl #10
     790:	746f6f62 	strbtvc	r6, [pc], #-3938	; 798 <errno+0x794>
     794:	6f666e69 	svcvs	0x00666e69
     798:	7079745f 	rsbsvc	r7, r9, pc, asr r4
     79c:	682e7365 	stmdavs	lr!, {r0, r2, r5, r6, r8, r9, ip, sp, lr}
     7a0:	00000200 	andeq	r0, r0, r0, lsl #4
     7a4:	636e7566 	cmnvs	lr, #427819008	; 0x19800000
     7a8:	6e6f6974 			; <UNDEFINED> instruction: 0x6e6f6974
     7ac:	00682e73 	rsbeq	r2, r8, r3, ror lr
     7b0:	00000002 	andeq	r0, r0, r2
     7b4:	05000105 	streq	r0, [r0, #-261]	; 0xfffffefb
     7b8:	00000002 	andeq	r0, r0, r2
     7bc:	01140300 	tsteq	r4, r0, lsl #6
     7c0:	05830e05 	streq	r0, [r3, #3589]	; 0xe05
     7c4:	05858301 	streq	r8, [r5, #769]	; 0x301
     7c8:	01054b0c 	tsteq	r5, ip, lsl #22
     7cc:	00080267 	andeq	r0, r8, r7, ror #4
     7d0:	009d0101 	addseq	r0, sp, r1, lsl #2
     7d4:	00030000 	andeq	r0, r3, r0
     7d8:	00000085 	andeq	r0, r0, r5, lsl #1
     7dc:	0efb0102 	cdpeq	1, 15, cr0, cr11, cr2, {0}
     7e0:	0101000d 	tsteq	r1, sp
     7e4:	00000101 	andeq	r0, r0, r1, lsl #2
     7e8:	00000100 	andeq	r0, r0, r0, lsl #2
     7ec:	6f682f01 	svcvs	0x00682f01
     7f0:	732f656d 			; <UNDEFINED> instruction: 0x732f656d
     7f4:	76796e75 			; <UNDEFINED> instruction: 0x76796e75
     7f8:	676e6f64 	strbvs	r6, [lr, -r4, ror #30]!
     7fc:	6c65732f 	stclvs	3, cr7, [r5], #-188	; 0xffffff44
     800:	696d2f34 	stmdbvs	sp!, {r2, r4, r5, r8, r9, sl, fp, sp}^
     804:	625f696e 	subsvs	r6, pc, #1802240	; 0x1b8000
     808:	646c6975 	strbtvs	r6, [ip], #-2421	; 0xfffff68b
     80c:	6c65732f 	stclvs	3, cr7, [r5], #-188	; 0xffffff44
     810:	75742d34 	ldrbvc	r2, [r4, #-3380]!	; 0xfffff2cc
     814:	69726f74 	ldmdbvs	r2!, {r2, r4, r5, r6, r8, r9, sl, fp, sp, lr}^
     818:	2d736c61 	ldclcs	12, cr6, [r3, #-388]!	; 0xfffffe7c
     81c:	696e616d 	stmdbvs	lr!, {r0, r2, r3, r5, r6, r8, sp, lr}^
     820:	74736566 	ldrbtvc	r6, [r3], #-1382	; 0xfffffa9a
     824:	6f72702f 	svcvs	0x0072702f
     828:	7463656a 	strbtvc	r6, [r3], #-1386	; 0xfffffa96
     82c:	65732f73 	ldrbvs	r2, [r3, #-3955]!	; 0xfffff08d
     830:	7572346c 	ldrbvc	r3, [r2, #-1132]!	; 0xfffffb94
     834:	6d69746e 	cfstrdvs	mvd7, [r9, #-440]!	; 0xfffffe48
     838:	72632f65 	rsbvc	r2, r3, #404	; 0x194
     83c:	65732f74 	ldrbvs	r2, [r3, #-3956]!	; 0xfffff08c
     840:	615f346c 	cmpvs	pc, ip, ror #8
     844:	2f686372 	svccs	0x00686372
     848:	63726161 	cmnvs	r2, #1073741848	; 0x40000018
     84c:	00323368 	eorseq	r3, r2, r8, ror #6
     850:	6c657300 	stclvs	3, cr7, [r5], #-0
     854:	72635f34 	rsbvc	r5, r3, #52, 30	; 0xd0
     858:	532e3074 			; <UNDEFINED> instruction: 0x532e3074
     85c:	00000100 	andeq	r0, r0, r0, lsl #2
     860:	02050000 	andeq	r0, r5, #0
     864:	00010830 	andeq	r0, r1, r0, lsr r8
     868:	2f010c03 	svccs	0x00010c03
     86c:	02022a31 	andeq	r2, r2, #200704	; 0x31000
     870:	96010100 	strls	r0, [r1], -r0, lsl #2
     874:	03000002 	movweq	r0, #2
     878:	00024c00 	andeq	r4, r2, r0, lsl #24
     87c:	fb010200 	blx	41086 <__bss_end__+0x18fd6>
     880:	01000d0e 	tsteq	r0, lr, lsl #26
     884:	00010101 	andeq	r0, r1, r1, lsl #2
     888:	00010000 	andeq	r0, r1, r0
     88c:	682f0100 	stmdavs	pc!, {r8}	; <UNPREDICTABLE>
     890:	2f656d6f 	svccs	0x00656d6f
     894:	796e7573 	stmdbvc	lr!, {r0, r1, r4, r5, r6, r8, sl, ip, sp, lr}^
     898:	6e6f6476 	mcrvs	4, 3, r6, cr15, cr6, {3}
     89c:	65732f67 	ldrbvs	r2, [r3, #-3943]!	; 0xfffff099
     8a0:	6d2f346c 	cfstrsvs	mvf3, [pc, #-432]!	; 6f8 <errno+0x6f4>
     8a4:	5f696e69 	svcpl	0x00696e69
     8a8:	6c697562 	cfstr64vs	mvdx7, [r9], #-392	; 0xfffffe78
     8ac:	65732f64 	ldrbvs	r2, [r3, #-3940]!	; 0xfffff09c
     8b0:	742d346c 	strtvc	r3, [sp], #-1132	; 0xfffffb94
     8b4:	726f7475 	rsbvc	r7, pc, #1962934272	; 0x75000000
     8b8:	736c6169 	cmnvc	ip, #1073741850	; 0x4000001a
     8bc:	6e616d2d 	cdpvs	13, 6, cr6, cr1, cr13, {1}
     8c0:	73656669 	cmnvc	r5, #110100480	; 0x6900000
     8c4:	72702f74 	rsbsvc	r2, r0, #116, 30	; 0x1d0
     8c8:	63656a6f 	cmnvs	r5, #454656	; 0x6f000
     8cc:	732f7374 			; <UNDEFINED> instruction: 0x732f7374
     8d0:	72346c65 	eorsvc	r6, r4, #25856	; 0x6500
     8d4:	69746e75 	ldmdbvs	r4!, {r0, r2, r4, r5, r6, r9, sl, fp, sp, lr}^
     8d8:	732f656d 			; <UNDEFINED> instruction: 0x732f656d
     8dc:	2f006372 	svccs	0x00006372
     8e0:	656d6f68 	strbvs	r6, [sp, #-3944]!	; 0xfffff098
     8e4:	6e75732f 	cdpvs	3, 7, cr7, cr5, cr15, {1}
     8e8:	6f647679 	svcvs	0x00647679
     8ec:	732f676e 			; <UNDEFINED> instruction: 0x732f676e
     8f0:	2f346c65 	svccs	0x00346c65
     8f4:	696e696d 	stmdbvs	lr!, {r0, r2, r3, r5, r6, r8, fp, sp, lr}^
     8f8:	6975625f 	ldmdbvs	r5!, {r0, r1, r2, r3, r4, r6, r9, sp, lr}^
     8fc:	732f646c 			; <UNDEFINED> instruction: 0x732f646c
     900:	2d346c65 	ldccs	12, cr6, [r4, #-404]!	; 0xfffffe6c
     904:	6f747574 	svcvs	0x00747574
     908:	6c616972 			; <UNDEFINED> instruction: 0x6c616972
     90c:	616d2d73 	smcvs	53971	; 0xd2d3
     910:	6566696e 	strbvs	r6, [r6, #-2414]!	; 0xfffff692
     914:	6b2f7473 	blvs	bddae8 <__bss_end__+0xbb5a38>
     918:	656e7265 	strbvs	r7, [lr, #-613]!	; 0xfffffd9b
     91c:	696c2f6c 	stmdbvs	ip!, {r2, r3, r5, r6, r8, r9, sl, fp, sp}^
     920:	6c657362 	stclvs	3, cr7, [r5], #-392	; 0xfffffe78
     924:	6e692f34 	mcrvs	15, 3, r2, cr9, cr4, {1}
     928:	64756c63 	ldrbtvs	r6, [r5], #-3171	; 0xfffff39d
     92c:	65732f65 	ldrbvs	r2, [r3, #-3941]!	; 0xfffff09b
     930:	6c00346c 	cfstrsvs	mvf3, [r0], {108}	; 0x6c
     934:	65736269 	ldrbvs	r6, [r3, #-617]!	; 0xfffffd97
     938:	692f346c 	stmdbvs	pc!, {r2, r3, r5, r6, sl, ip, sp}	; <UNPREDICTABLE>
     93c:	756c636e 	strbvc	r6, [ip, #-878]!	; 0xfffffc92
     940:	732f6564 			; <UNDEFINED> instruction: 0x732f6564
     944:	00346c65 	eorseq	r6, r4, r5, ror #24
     948:	6d6f682f 	stclvs	8, cr6, [pc, #-188]!	; 894 <errno+0x890>
     94c:	75732f65 	ldrbvc	r2, [r3, #-3941]!	; 0xfffff09b
     950:	6476796e 	ldrbtvs	r7, [r6], #-2414	; 0xfffff692
     954:	2f676e6f 	svccs	0x00676e6f
     958:	346c6573 	strbtcc	r6, [ip], #-1395	; 0xfffffa8d
     95c:	6e696d2f 	cdpvs	13, 6, cr6, cr9, cr15, {1}
     960:	75625f69 	strbvc	r5, [r2, #-3945]!	; 0xfffff097
     964:	2f646c69 	svccs	0x00646c69
     968:	346c6573 	strbtcc	r6, [ip], #-1395	; 0xfffffa8d
     96c:	7475742d 	ldrbtvc	r7, [r5], #-1069	; 0xfffffbd3
     970:	6169726f 	cmnvs	r9, pc, ror #4
     974:	6d2d736c 	stcvs	3, cr7, [sp, #-432]!	; 0xfffffe50
     978:	66696e61 	strbtvs	r6, [r9], -r1, ror #28
     97c:	2f747365 	svccs	0x00747365
     980:	6a6f7270 	bvs	1bdd348 <__bss_end__+0x1bb5298>
     984:	73746365 	cmnvc	r4, #-1811939327	; 0x94000001
     988:	6c65732f 	stclvs	3, cr7, [r5], #-188	; 0xffffff44
     98c:	6e757234 	mrcvs	2, 3, r7, cr5, cr4, {1}
     990:	656d6974 	strbvs	r6, [sp, #-2420]!	; 0xfffff68c
     994:	636e692f 	cmnvs	lr, #770048	; 0xbc000
     998:	6564756c 	strbvs	r7, [r4, #-1388]!	; 0xfffffa94
     99c:	6c65732f 	stclvs	3, cr7, [r5], #-188	; 0xffffff44
     9a0:	6e757234 	mrcvs	2, 3, r7, cr5, cr4, {1}
     9a4:	656d6974 	strbvs	r6, [sp, #-2420]!	; 0xfffff68c
     9a8:	6f682f00 	svcvs	0x00682f00
     9ac:	732f656d 			; <UNDEFINED> instruction: 0x732f656d
     9b0:	76796e75 			; <UNDEFINED> instruction: 0x76796e75
     9b4:	676e6f64 	strbvs	r6, [lr, -r4, ror #30]!
     9b8:	6c65732f 	stclvs	3, cr7, [r5], #-188	; 0xffffff44
     9bc:	696d2f34 	stmdbvs	sp!, {r2, r4, r5, r8, r9, sl, fp, sp}^
     9c0:	625f696e 	subsvs	r6, pc, #1802240	; 0x1b8000
     9c4:	646c6975 	strbtvs	r6, [ip], #-2421	; 0xfffff68b
     9c8:	6c65732f 	stclvs	3, cr7, [r5], #-188	; 0xffffff44
     9cc:	75742d34 	ldrbvc	r2, [r4, #-3380]!	; 0xfffff2cc
     9d0:	69726f74 	ldmdbvs	r2!, {r2, r4, r5, r6, r8, r9, sl, fp, sp, lr}^
     9d4:	2d736c61 	ldclcs	12, cr6, [r3, #-388]!	; 0xfffffe7c
     9d8:	696e616d 	stmdbvs	lr!, {r0, r2, r3, r5, r6, r8, sp, lr}^
     9dc:	74736566 	ldrbtvc	r6, [r3], #-1382	; 0xfffffa9a
     9e0:	6f72702f 	svcvs	0x0072702f
     9e4:	7463656a 	strbtvc	r6, [r3], #-1386	; 0xfffffa96
     9e8:	65732f73 	ldrbvs	r2, [r3, #-3955]!	; 0xfffff08d
     9ec:	7572346c 	ldrbvc	r3, [r2, #-1132]!	; 0xfffffb94
     9f0:	6d69746e 	cfstrdvs	mvd7, [r9, #-440]!	; 0xfffffe48
     9f4:	6e692f65 	cdpvs	15, 6, cr2, cr9, cr5, {3}
     9f8:	64756c63 	ldrbtvs	r6, [r5], #-3171	; 0xfffff39d
     9fc:	6f6d2f65 	svcvs	0x006d2f65
     a00:	332f6564 			; <UNDEFINED> instruction: 0x332f6564
     a04:	65732f32 	ldrbvs	r2, [r3, #-3890]!	; 0xfffff0ce
     a08:	7572346c 	ldrbvc	r3, [r2, #-1132]!	; 0xfffffb94
     a0c:	6d69746e 	cfstrdvs	mvd7, [r9, #-440]!	; 0xfffffe48
     a10:	6f6d2f65 	svcvs	0x006d2f65
     a14:	00006564 	andeq	r6, r0, r4, ror #10
     a18:	72617473 	rsbvc	r7, r1, #1929379840	; 0x73000000
     a1c:	6f725f74 	svcvs	0x00725f74
     a20:	632e746f 			; <UNDEFINED> instruction: 0x632e746f
     a24:	00000100 	andeq	r0, r0, r0, lsl #2
     a28:	706d6973 	rsbvc	r6, sp, r3, ror r9
     a2c:	745f656c 	ldrbvc	r6, [pc], #-1388	; a34 <errno+0xa30>
     a30:	73657079 	cmnvc	r5, #121	; 0x79
     a34:	0200682e 	andeq	r6, r0, #3014656	; 0x2e0000
     a38:	626f0000 	rsbvs	r0, pc, #0
     a3c:	7463656a 	strbtvc	r6, [r3], #-1386	; 0xfffffa96
     a40:	65707974 	ldrbvs	r7, [r0, #-2420]!	; 0xfffff68c
     a44:	0200682e 	andeq	r6, r0, #3014656	; 0x2e0000
     a48:	68730000 	ldmdavs	r3!, {}^	; <UNPREDICTABLE>
     a4c:	64657261 	strbtvs	r7, [r5], #-609	; 0xfffffd9f
     a50:	7079745f 	rsbsvc	r7, r9, pc, asr r4
     a54:	675f7365 	ldrbvs	r7, [pc, -r5, ror #6]
     a58:	682e6e65 	stmdavs	lr!, {r0, r2, r5, r6, r9, sl, fp, sp, lr}
     a5c:	00000300 	andeq	r0, r0, r0, lsl #6
     a60:	72616873 	rsbvc	r6, r1, #7536640	; 0x730000
     a64:	745f6465 	ldrbvc	r6, [pc], #-1125	; a6c <errno+0xa68>
     a68:	73657079 	cmnvc	r5, #121	; 0x79
     a6c:	0200682e 	andeq	r6, r0, #3014656	; 0x2e0000
     a70:	79740000 	ldmdbvc	r4!, {}^	; <UNPREDICTABLE>
     a74:	2e736570 	mrccs	5, 3, r6, cr3, cr0, {3}
     a78:	00020068 	andeq	r0, r2, r8, rrx
     a7c:	6f6f6200 	svcvs	0x006f6200
     a80:	666e6974 			; <UNDEFINED> instruction: 0x666e6974
     a84:	79745f6f 	ldmdbvc	r4!, {r0, r1, r2, r3, r5, r6, r8, r9, sl, fp, ip, lr}^
     a88:	2e736570 	mrccs	5, 3, r6, cr3, cr0, {3}
     a8c:	00020068 	andeq	r0, r2, r8, rrx
     a90:	78756100 	ldmdavc	r5!, {r8, sp, lr}^
     a94:	00682e76 	rsbeq	r2, r8, r6, ror lr
     a98:	73000004 	movwvc	r0, #4
     a9c:	6e696474 	mcrvs	4, 3, r6, cr9, cr4, {3}
     aa0:	00682e74 	rsbeq	r2, r8, r4, ror lr
     aa4:	65000004 	strvs	r0, [r0, #-4]
     aa8:	682e666c 	stmdavs	lr!, {r2, r3, r5, r6, r9, sl, sp, lr}
     aac:	00000400 	andeq	r0, r0, r0, lsl #8
     ab0:	2e666c65 	cdpcs	12, 6, cr6, cr6, cr5, {3}
     ab4:	00050068 	andeq	r0, r5, r8, rrx
     ab8:	6e756600 	cdpvs	6, 7, cr6, cr5, cr0, {0}
     abc:	6f697463 	svcvs	0x00697463
     ac0:	682e736e 	stmdavs	lr!, {r1, r2, r3, r5, r6, r8, r9, ip, sp, lr}
     ac4:	00000200 	andeq	r0, r0, r0, lsl #4
     ac8:	00010500 	andeq	r0, r1, r0, lsl #10
     acc:	08400205 	stmdaeq	r0, {r0, r2, r9}^
     ad0:	25030001 	strcs	r0, [r3, #-1]
     ad4:	831b0501 	tsthi	fp, #4194304	; 0x400000
     ad8:	05676767 	strbeq	r6, [r7, #-1895]!	; 0xfffff899
     adc:	660c0308 	strvs	r0, [ip], -r8, lsl #6
     ae0:	05671505 	strbeq	r1, [r7, #-1285]!	; 0xfffffafb
     ae4:	0e054b13 	vmoveq.32	d5[0], r4
     ae8:	081f054d 	ldmdaeq	pc, {r0, r2, r3, r6, r8, sl}	; <UNPREDICTABLE>
     aec:	610e0525 	tstvs	lr, r5, lsr #10
     af0:	05341e05 	ldreq	r1, [r4, #-3589]!	; 0xfffff1fb
     af4:	667a030e 	ldrbtvs	r0, [sl], -lr, lsl #6
     af8:	0e030705 	cdpeq	7, 0, cr0, cr3, cr5, {0}
     afc:	03050566 	movweq	r0, #21862	; 0x5566
     b00:	014e0224 	cmpeq	lr, r4, lsr #4
     b04:	59080105 	stmdbpl	r8, {r0, r2, r8}
     b08:	01000602 	tsteq	r0, r2, lsl #12
     b0c:	0008b101 	andeq	fp, r8, r1, lsl #2
     b10:	a6000300 	strge	r0, [r0], -r0, lsl #6
     b14:	02000004 	andeq	r0, r0, #4
     b18:	0d0efb01 	vstreq	d15, [lr, #-4]
     b1c:	01010100 	mrseq	r0, (UNDEF: 17)
     b20:	00000001 	andeq	r0, r0, r1
     b24:	01000001 	tsteq	r0, r1
     b28:	6d6f682f 	stclvs	8, cr6, [pc, #-188]!	; a74 <errno+0xa70>
     b2c:	75732f65 	ldrbvc	r2, [r3, #-3941]!	; 0xfffff09b
     b30:	6476796e 	ldrbtvs	r7, [r6], #-2414	; 0xfffff692
     b34:	2f676e6f 	svccs	0x00676e6f
     b38:	346c6573 	strbtcc	r6, [ip], #-1395	; 0xfffffa8d
     b3c:	6e696d2f 	cdpvs	13, 6, cr6, cr9, cr15, {1}
     b40:	75625f69 	strbvc	r5, [r2, #-3945]!	; 0xfffff097
     b44:	2f646c69 	svccs	0x00646c69
     b48:	346c6573 	strbtcc	r6, [ip], #-1395	; 0xfffffa8d
     b4c:	7475742d 	ldrbtvc	r7, [r5], #-1069	; 0xfffffbd3
     b50:	6169726f 	cmnvs	r9, pc, ror #4
     b54:	6d2d736c 	stcvs	3, cr7, [sp, #-432]!	; 0xfffffe50
     b58:	66696e61 	strbtvs	r6, [r9], -r1, ror #28
     b5c:	2f747365 	svccs	0x00747365
     b60:	6e72656b 	cdpvs	5, 7, cr6, cr2, cr11, {3}
     b64:	6c2f6c65 	stcvs	12, cr6, [pc], #-404	; 9d8 <errno+0x9d4>
     b68:	65736269 	ldrbvs	r6, [r3, #-617]!	; 0xfffffd97
     b6c:	692f346c 	stmdbvs	pc!, {r2, r3, r5, r6, sl, ip, sp}	; <UNPREDICTABLE>
     b70:	756c636e 	strbvc	r6, [ip, #-878]!	; 0xfffffc92
     b74:	732f6564 			; <UNDEFINED> instruction: 0x732f6564
     b78:	00346c65 	eorseq	r6, r4, r5, ror #24
     b7c:	6d6f682f 	stclvs	8, cr6, [pc, #-188]!	; ac8 <errno+0xac4>
     b80:	75732f65 	ldrbvc	r2, [r3, #-3941]!	; 0xfffff09b
     b84:	6476796e 	ldrbtvs	r7, [r6], #-2414	; 0xfffff692
     b88:	2f676e6f 	svccs	0x00676e6f
     b8c:	346c6573 	strbtcc	r6, [ip], #-1395	; 0xfffffa8d
     b90:	6e696d2f 	cdpvs	13, 6, cr6, cr9, cr15, {1}
     b94:	75625f69 	strbvc	r5, [r2, #-3945]!	; 0xfffff097
     b98:	2f646c69 	svccs	0x00646c69
     b9c:	346c6573 	strbtcc	r6, [ip], #-1395	; 0xfffffa8d
     ba0:	7475742d 	ldrbtvc	r7, [r5], #-1069	; 0xfffffbd3
     ba4:	6169726f 	cmnvs	r9, pc, ror #4
     ba8:	6d2d736c 	stcvs	3, cr7, [sp, #-432]!	; 0xfffffe50
     bac:	66696e61 	strbtvs	r6, [r9], -r1, ror #28
     bb0:	2f747365 	svccs	0x00747365
     bb4:	6e72656b 	cdpvs	5, 7, cr6, cr2, cr11, {3}
     bb8:	6c2f6c65 	stcvs	12, cr6, [pc], #-404	; a2c <errno+0xa28>
     bbc:	65736269 	ldrbvs	r6, [r3, #-617]!	; 0xfffffd97
     bc0:	732f346c 			; <UNDEFINED> instruction: 0x732f346c
     bc4:	5f346c65 	svcpl	0x00346c65
     bc8:	68637261 	stmdavs	r3!, {r0, r5, r6, r9, ip, sp, lr}^
     bcc:	636e695f 	cmnvs	lr, #1556480	; 0x17c000
     bd0:	6564756c 	strbvs	r7, [r4, #-1388]!	; 0xfffffa94
     bd4:	7261612f 	rsbvc	r6, r1, #-1073741813	; 0xc000000b
     bd8:	32336863 	eorscc	r6, r3, #6488064	; 0x630000
     bdc:	6c65732f 	stclvs	3, cr7, [r5], #-188	; 0xffffff44
     be0:	65732f34 	ldrbvs	r2, [r3, #-3892]!	; 0xfffff0cc
     be4:	615f346c 	cmpvs	pc, ip, ror #8
     be8:	00686372 	rsbeq	r6, r8, r2, ror r3
     bec:	6d6f682f 	stclvs	8, cr6, [pc, #-188]!	; b38 <errno+0xb34>
     bf0:	75732f65 	ldrbvc	r2, [r3, #-3941]!	; 0xfffff09b
     bf4:	6476796e 	ldrbtvs	r7, [r6], #-2414	; 0xfffff692
     bf8:	2f676e6f 	svccs	0x00676e6f
     bfc:	346c6573 	strbtcc	r6, [ip], #-1395	; 0xfffffa8d
     c00:	6e696d2f 	cdpvs	13, 6, cr6, cr9, cr15, {1}
     c04:	75625f69 	strbvc	r5, [r2, #-3945]!	; 0xfffff097
     c08:	2f646c69 	svccs	0x00646c69
     c0c:	346c6573 	strbtcc	r6, [ip], #-1395	; 0xfffffa8d
     c10:	7475742d 	ldrbtvc	r7, [r5], #-1069	; 0xfffffbd3
     c14:	6169726f 	cmnvs	r9, pc, ror #4
     c18:	6d2d736c 	stcvs	3, cr7, [sp, #-432]!	; 0xfffffe50
     c1c:	66696e61 	strbtvs	r6, [r9], -r1, ror #28
     c20:	2f747365 	svccs	0x00747365
     c24:	6e72656b 	cdpvs	5, 7, cr6, cr2, cr11, {3}
     c28:	6c2f6c65 	stcvs	12, cr6, [pc], #-404	; a9c <errno+0xa98>
     c2c:	65736269 	ldrbvs	r6, [r3, #-617]!	; 0xfffffd97
     c30:	612f346c 			; <UNDEFINED> instruction: 0x612f346c
     c34:	5f686372 	svcpl	0x00686372
     c38:	6c636e69 	stclvs	14, cr6, [r3], #-420	; 0xfffffe5c
     c3c:	2f656475 	svccs	0x00656475
     c40:	2f6d7261 	svccs	0x006d7261
     c44:	346c6573 	strbtcc	r6, [ip], #-1395	; 0xfffffa8d
     c48:	6372612f 	cmnvs	r2, #-1073741813	; 0xc000000b
     c4c:	682f0068 	stmdavs	pc!, {r3, r5, r6}	; <UNPREDICTABLE>
     c50:	2f656d6f 	svccs	0x00656d6f
     c54:	796e7573 	stmdbvc	lr!, {r0, r1, r4, r5, r6, r8, sl, ip, sp, lr}^
     c58:	6e6f6476 	mcrvs	4, 3, r6, cr15, cr6, {3}
     c5c:	65732f67 	ldrbvs	r2, [r3, #-3943]!	; 0xfffff099
     c60:	6d2f346c 	cfstrsvs	mvf3, [pc, #-432]!	; ab8 <errno+0xab4>
     c64:	5f696e69 	svcpl	0x00696e69
     c68:	6c697562 	cfstr64vs	mvdx7, [r9], #-392	; 0xfffffe78
     c6c:	65732f64 	ldrbvs	r2, [r3, #-3940]!	; 0xfffff09c
     c70:	742d346c 	strtvc	r3, [sp], #-1132	; 0xfffffb94
     c74:	726f7475 	rsbvc	r7, pc, #1962934272	; 0x75000000
     c78:	736c6169 	cmnvc	ip, #1073741850	; 0x4000001a
     c7c:	6e616d2d 	cdpvs	13, 6, cr6, cr1, cr13, {1}
     c80:	73656669 	cmnvc	r5, #110100480	; 0x6900000
     c84:	72702f74 	rsbsvc	r2, r0, #116, 30	; 0x1d0
     c88:	63656a6f 	cmnvs	r5, #454656	; 0x6f000
     c8c:	732f7374 			; <UNDEFINED> instruction: 0x732f7374
     c90:	72346c65 	eorsvc	r6, r4, #25856	; 0x6500
     c94:	69746e75 	ldmdbvs	r4!, {r0, r2, r4, r5, r6, r9, sl, fp, sp, lr}^
     c98:	692f656d 	stmdbvs	pc!, {r0, r2, r3, r5, r6, r8, sl, sp, lr}	; <UNPREDICTABLE>
     c9c:	756c636e 	strbvc	r6, [ip, #-878]!	; 0xfffffc92
     ca0:	732f6564 			; <UNDEFINED> instruction: 0x732f6564
     ca4:	5f346c65 	svcpl	0x00346c65
     ca8:	68637261 	stmdavs	r3!, {r0, r5, r6, r9, ip, sp, lr}^
     cac:	7261612f 	rsbvc	r6, r1, #-1073741813	; 0xc000000b
     cb0:	32336863 	eorscc	r6, r3, #6488064	; 0x630000
     cb4:	6c65732f 	stclvs	3, cr7, [r5], #-188	; 0xffffff44
     cb8:	6e757234 	mrcvs	2, 3, r7, cr5, cr4, {1}
     cbc:	656d6974 	strbvs	r6, [sp, #-2420]!	; 0xfffff68c
     cc0:	6f682f00 	svcvs	0x00682f00
     cc4:	732f656d 			; <UNDEFINED> instruction: 0x732f656d
     cc8:	76796e75 			; <UNDEFINED> instruction: 0x76796e75
     ccc:	676e6f64 	strbvs	r6, [lr, -r4, ror #30]!
     cd0:	6c65732f 	stclvs	3, cr7, [r5], #-188	; 0xffffff44
     cd4:	696d2f34 	stmdbvs	sp!, {r2, r4, r5, r8, r9, sl, fp, sp}^
     cd8:	625f696e 	subsvs	r6, pc, #1802240	; 0x1b8000
     cdc:	646c6975 	strbtvs	r6, [ip], #-2421	; 0xfffff68b
     ce0:	6c65732f 	stclvs	3, cr7, [r5], #-188	; 0xffffff44
     ce4:	75742d34 	ldrbvc	r2, [r4, #-3380]!	; 0xfffff2cc
     ce8:	69726f74 	ldmdbvs	r2!, {r2, r4, r5, r6, r8, r9, sl, fp, sp, lr}^
     cec:	2d736c61 	ldclcs	12, cr6, [r3, #-388]!	; 0xfffffe7c
     cf0:	696e616d 	stmdbvs	lr!, {r0, r2, r3, r5, r6, r8, sp, lr}^
     cf4:	74736566 	ldrbtvc	r6, [r3], #-1382	; 0xfffffa9a
     cf8:	6f72702f 	svcvs	0x0072702f
     cfc:	7463656a 	strbtvc	r6, [r3], #-1386	; 0xfffffa96
     d00:	65732f73 	ldrbvs	r2, [r3, #-3955]!	; 0xfffff08d
     d04:	7572346c 	ldrbvc	r3, [r2, #-1132]!	; 0xfffffb94
     d08:	6d69746e 	cfstrdvs	mvd7, [r9, #-440]!	; 0xfffffe48
     d0c:	72732f65 	rsbsvc	r2, r3, #404	; 0x194
     d10:	682f0063 	stmdavs	pc!, {r0, r1, r5, r6}	; <UNPREDICTABLE>
     d14:	2f656d6f 	svccs	0x00656d6f
     d18:	796e7573 	stmdbvc	lr!, {r0, r1, r4, r5, r6, r8, sl, ip, sp, lr}^
     d1c:	6e6f6476 	mcrvs	4, 3, r6, cr15, cr6, {3}
     d20:	65732f67 	ldrbvs	r2, [r3, #-3943]!	; 0xfffff099
     d24:	6d2f346c 	cfstrsvs	mvf3, [pc, #-432]!	; b7c <errno+0xb78>
     d28:	5f696e69 	svcpl	0x00696e69
     d2c:	6c697562 	cfstr64vs	mvdx7, [r9], #-392	; 0xfffffe78
     d30:	65732f64 	ldrbvs	r2, [r3, #-3940]!	; 0xfffff09c
     d34:	742d346c 	strtvc	r3, [sp], #-1132	; 0xfffffb94
     d38:	726f7475 	rsbvc	r7, pc, #1962934272	; 0x75000000
     d3c:	736c6169 	cmnvc	ip, #1073741850	; 0x4000001a
     d40:	6e616d2d 	cdpvs	13, 6, cr6, cr1, cr13, {1}
     d44:	73656669 	cmnvc	r5, #110100480	; 0x6900000
     d48:	72702f74 	rsbsvc	r2, r0, #116, 30	; 0x1d0
     d4c:	63656a6f 	cmnvs	r5, #454656	; 0x6f000
     d50:	732f7374 			; <UNDEFINED> instruction: 0x732f7374
     d54:	72346c65 	eorsvc	r6, r4, #25856	; 0x6500
     d58:	69746e75 	ldmdbvs	r4!, {r0, r2, r4, r5, r6, r9, sl, fp, sp, lr}^
     d5c:	692f656d 	stmdbvs	pc!, {r0, r2, r3, r5, r6, r8, sl, sp, lr}	; <UNPREDICTABLE>
     d60:	756c636e 	strbvc	r6, [ip, #-878]!	; 0xfffffc92
     d64:	732f6564 			; <UNDEFINED> instruction: 0x732f6564
     d68:	72346c65 	eorsvc	r6, r4, #25856	; 0x6500
     d6c:	69746e75 	ldmdbvs	r4!, {r0, r2, r4, r5, r6, r9, sl, fp, sp, lr}^
     d70:	6c00656d 	cfstr32vs	mvfx6, [r0], {109}	; 0x6d
     d74:	65736269 	ldrbvs	r6, [r3, #-617]!	; 0xfffffd97
     d78:	692f346c 	stmdbvs	pc!, {r2, r3, r5, r6, sl, ip, sp}	; <UNPREDICTABLE>
     d7c:	756c636e 	strbvc	r6, [ip, #-878]!	; 0xfffffc92
     d80:	732f6564 			; <UNDEFINED> instruction: 0x732f6564
     d84:	00346c65 	eorseq	r6, r4, r5, ror #24
     d88:	7362696c 	cmnvc	r2, #108, 18	; 0x1b0000
     d8c:	2f346c65 	svccs	0x00346c65
     d90:	346c6573 	strbtcc	r6, [ip], #-1395	; 0xfffffa8d
     d94:	6372615f 	cmnvs	r2, #-1073741801	; 0xc0000017
     d98:	6e695f68 	cdpvs	15, 6, cr5, cr9, cr8, {3}
     d9c:	64756c63 	ldrbtvs	r6, [r5], #-3171	; 0xfffff39d
     da0:	61612f65 	cmnvs	r1, r5, ror #30
     da4:	33686372 	cmncc	r8, #-939524095	; 0xc8000001
     da8:	65732f32 	ldrbvs	r2, [r3, #-3890]!	; 0xfffff0ce
     dac:	732f346c 			; <UNDEFINED> instruction: 0x732f346c
     db0:	5f346c65 	svcpl	0x00346c65
     db4:	68637261 	stmdavs	r3!, {r0, r5, r6, r9, ip, sp, lr}^
     db8:	6f682f00 	svcvs	0x00682f00
     dbc:	732f656d 			; <UNDEFINED> instruction: 0x732f656d
     dc0:	76796e75 			; <UNDEFINED> instruction: 0x76796e75
     dc4:	676e6f64 	strbvs	r6, [lr, -r4, ror #30]!
     dc8:	6c65732f 	stclvs	3, cr7, [r5], #-188	; 0xffffff44
     dcc:	696d2f34 	stmdbvs	sp!, {r2, r4, r5, r8, r9, sl, fp, sp}^
     dd0:	625f696e 	subsvs	r6, pc, #1802240	; 0x1b8000
     dd4:	646c6975 	strbtvs	r6, [ip], #-2421	; 0xfffff68b
     dd8:	6c65732f 	stclvs	3, cr7, [r5], #-188	; 0xffffff44
     ddc:	75742d34 	ldrbvc	r2, [r4, #-3380]!	; 0xfffff2cc
     de0:	69726f74 	ldmdbvs	r2!, {r2, r4, r5, r6, r8, r9, sl, fp, sp, lr}^
     de4:	2d736c61 	ldclcs	12, cr6, [r3, #-388]!	; 0xfffffe7c
     de8:	696e616d 	stmdbvs	lr!, {r0, r2, r3, r5, r6, r8, sp, lr}^
     dec:	74736566 	ldrbtvc	r6, [r3], #-1382	; 0xfffffa9a
     df0:	6f72702f 	svcvs	0x0072702f
     df4:	7463656a 	strbtvc	r6, [r3], #-1386	; 0xfffffa96
     df8:	65732f73 	ldrbvs	r2, [r3, #-3955]!	; 0xfffff08d
     dfc:	7572346c 	ldrbvc	r3, [r2, #-1132]!	; 0xfffffb94
     e00:	6d69746e 	cfstrdvs	mvd7, [r9, #-440]!	; 0xfffffe48
     e04:	6e692f65 	cdpvs	15, 6, cr2, cr9, cr5, {3}
     e08:	64756c63 	ldrbtvs	r6, [r5], #-3171	; 0xfffff39d
     e0c:	682f0065 	stmdavs	pc!, {r0, r2, r5, r6}	; <UNPREDICTABLE>
     e10:	2f656d6f 	svccs	0x00656d6f
     e14:	796e7573 	stmdbvc	lr!, {r0, r1, r4, r5, r6, r8, sl, ip, sp, lr}^
     e18:	6e6f6476 	mcrvs	4, 3, r6, cr15, cr6, {3}
     e1c:	65732f67 	ldrbvs	r2, [r3, #-3943]!	; 0xfffff099
     e20:	6d2f346c 	cfstrsvs	mvf3, [pc, #-432]!	; c78 <errno+0xc74>
     e24:	5f696e69 	svcpl	0x00696e69
     e28:	6c697562 	cfstr64vs	mvdx7, [r9], #-392	; 0xfffffe78
     e2c:	65732f64 	ldrbvs	r2, [r3, #-3940]!	; 0xfffff09c
     e30:	742d346c 	strtvc	r3, [sp], #-1132	; 0xfffffb94
     e34:	726f7475 	rsbvc	r7, pc, #1962934272	; 0x75000000
     e38:	736c6169 	cmnvc	ip, #1073741850	; 0x4000001a
     e3c:	6e616d2d 	cdpvs	13, 6, cr6, cr1, cr13, {1}
     e40:	73656669 	cmnvc	r5, #110100480	; 0x6900000
     e44:	72702f74 	rsbsvc	r2, r0, #116, 30	; 0x1d0
     e48:	63656a6f 	cmnvs	r5, #454656	; 0x6f000
     e4c:	732f7374 			; <UNDEFINED> instruction: 0x732f7374
     e50:	72346c65 	eorsvc	r6, r4, #25856	; 0x6500
     e54:	69746e75 	ldmdbvs	r4!, {r0, r2, r4, r5, r6, r9, sl, fp, sp, lr}^
     e58:	692f656d 	stmdbvs	pc!, {r0, r2, r3, r5, r6, r8, sl, sp, lr}	; <UNPREDICTABLE>
     e5c:	756c636e 	strbvc	r6, [ip, #-878]!	; 0xfffffc92
     e60:	6d2f6564 	cfstr32vs	mvfx6, [pc, #-400]!	; cd8 <errno+0xcd4>
     e64:	2f65646f 	svccs	0x0065646f
     e68:	732f3233 			; <UNDEFINED> instruction: 0x732f3233
     e6c:	72346c65 	eorsvc	r6, r4, #25856	; 0x6500
     e70:	69746e75 	ldmdbvs	r4!, {r0, r2, r4, r5, r6, r9, sl, fp, sp, lr}^
     e74:	6d2f656d 	cfstr32vs	mvfx6, [pc, #-436]!	; cc8 <errno+0xcc4>
     e78:	0065646f 	rsbeq	r6, r5, pc, ror #8
     e7c:	6e756600 	cdpvs	6, 7, cr6, cr5, cr0, {0}
     e80:	6f697463 	svcvs	0x00697463
     e84:	682e736e 	stmdavs	lr!, {r1, r2, r3, r5, r6, r8, r9, ip, sp, lr}
     e88:	00000100 	andeq	r0, r0, r0, lsl #2
     e8c:	63737973 	cmnvs	r3, #1884160	; 0x1cc000
     e90:	736c6c61 	cmnvc	ip, #24832	; 0x6100
     e94:	0200682e 	andeq	r6, r0, #3014656	; 0x2e0000
     e98:	79730000 	ldmdbvc	r3!, {}^	; <UNPREDICTABLE>
     e9c:	6c616373 	stclvs	3, cr6, [r1], #-460	; 0xfffffe34
     ea0:	682e736c 	stmdavs	lr!, {r2, r3, r5, r6, r8, r9, ip, sp, lr}
     ea4:	00000300 	andeq	r0, r0, r0, lsl #6
     ea8:	65726874 	ldrbvs	r6, [r2, #-2164]!	; 0xfffff78c
     eac:	615f6461 	cmpvs	pc, r1, ror #8
     eb0:	2e686372 	mcrcs	3, 3, r6, cr8, cr2, {3}
     eb4:	00040068 	andeq	r0, r4, r8, rrx
     eb8:	766e6500 	strbtvc	r6, [lr], -r0, lsl #10
     ebc:	0500632e 	streq	r6, [r0, #-814]	; 0xfffffcd2
     ec0:	74730000 	ldrbtvc	r0, [r3], #-0
     ec4:	746e6964 	strbtvc	r6, [lr], #-2404	; 0xfffff69c
     ec8:	0600682e 	streq	r6, [r0], -lr, lsr #16
     ecc:	74730000 	ldrbtvc	r0, [r3], #-0
     ed0:	66656464 	strbtvs	r6, [r5], -r4, ror #8
     ed4:	0600682e 	streq	r6, [r0], -lr, lsr #16
     ed8:	69730000 	ldmdbvs	r3!, {}^	; <UNPREDICTABLE>
     edc:	656c706d 	strbvs	r7, [ip, #-109]!	; 0xffffff93
     ee0:	7079745f 	rsbsvc	r7, r9, pc, asr r4
     ee4:	682e7365 	stmdavs	lr!, {r0, r2, r5, r6, r8, r9, ip, sp, lr}
     ee8:	00000100 	andeq	r0, r0, r0, lsl #2
     eec:	656a626f 	strbvs	r6, [sl, #-623]!	; 0xfffffd91
     ef0:	79747463 	ldmdbvc	r4!, {r0, r1, r5, r6, sl, ip, sp, lr}^
     ef4:	682e6570 	stmdavs	lr!, {r4, r5, r6, r8, sl, sp, lr}
     ef8:	00000100 	andeq	r0, r0, r0, lsl #2
     efc:	656a626f 	strbvs	r6, [sl, #-623]!	; 0xfffffd91
     f00:	79747463 	ldmdbvc	r4!, {r0, r1, r5, r6, sl, ip, sp, lr}^
     f04:	682e6570 	stmdavs	lr!, {r4, r5, r6, r8, sl, sp, lr}
     f08:	00000200 	andeq	r0, r0, r0, lsl #4
     f0c:	736e6f63 	cmnvc	lr, #396	; 0x18c
     f10:	746e6174 	strbtvc	r6, [lr], #-372	; 0xfffffe8c
     f14:	00682e73 	rsbeq	r2, r8, r3, ror lr
     f18:	73000001 	movwvc	r0, #1
     f1c:	65726168 	ldrbvs	r6, [r2, #-360]!	; 0xfffffe98
     f20:	79745f64 	ldmdbvc	r4!, {r2, r5, r6, r8, r9, sl, fp, ip, lr}^
     f24:	5f736570 	svcpl	0x00736570
     f28:	2e6e6567 	cdpcs	5, 6, cr6, cr14, cr7, {3}
     f2c:	00070068 	andeq	r0, r7, r8, rrx
     f30:	61687300 	cmnvs	r8, r0, lsl #6
     f34:	5f646572 	svcpl	0x00646572
     f38:	65707974 	ldrbvs	r7, [r0, #-2420]!	; 0xfffff68c
     f3c:	00682e73 	rsbeq	r2, r8, r3, ror lr
     f40:	74000001 	strvc	r0, [r0], #-1
     f44:	73657079 	cmnvc	r5, #121	; 0x79
     f48:	0100682e 	tsteq	r0, lr, lsr #16
     f4c:	6e690000 	cdpvs	0, 6, cr0, cr9, cr0, {0}
     f50:	61636f76 	smcvs	14070	; 0x36f6
     f54:	6e6f6974 			; <UNDEFINED> instruction: 0x6e6f6974
     f58:	0700682e 	streq	r6, [r0, -lr, lsr #16]
     f5c:	6e690000 	cdpvs	0, 6, cr0, cr9, cr0, {0}
     f60:	61636f76 	smcvs	14070	; 0x36f6
     f64:	6e6f6974 			; <UNDEFINED> instruction: 0x6e6f6974
     f68:	0800682e 	stmdaeq	r0, {r1, r2, r3, r5, fp, sp, lr}
     f6c:	6f620000 	svcvs	0x00620000
     f70:	6e69746f 	cdpvs	4, 6, cr7, cr9, cr15, {3}
     f74:	745f6f66 	ldrbvc	r6, [pc], #-3942	; f7c <errno+0xf78>
     f78:	73657079 	cmnvc	r5, #121	; 0x79
     f7c:	0100682e 	tsteq	r0, lr, lsr #16
     f80:	75610000 	strbvc	r0, [r1, #-0]!
     f84:	682e7678 	stmdavs	lr!, {r3, r4, r5, r6, r9, sl, ip, sp, lr}
     f88:	00000600 	andeq	r0, r0, r0, lsl #12
     f8c:	346c6573 	strbtcc	r6, [ip], #-1395	; 0xfffffa8d
     f90:	746e7572 	strbtvc	r7, [lr], #-1394	; 0xfffffa8e
     f94:	2e656d69 	cdpcs	13, 6, cr6, cr5, cr9, {3}
     f98:	00090068 	andeq	r0, r9, r8, rrx
     f9c:	666c6500 	strbtvs	r6, [ip], -r0, lsl #10
     fa0:	0600682e 	streq	r6, [r0], -lr, lsr #16
     fa4:	6c650000 	stclvs	0, cr0, [r5], #-0
     fa8:	00682e66 	rsbeq	r2, r8, r6, ror #28
     fac:	7300000a 	movwvc	r0, #10
     fb0:	61637379 	smcvs	14137	; 0x3739
     fb4:	682e6c6c 	stmdavs	lr!, {r2, r3, r5, r6, sl, fp, sp, lr}
     fb8:	00000700 	andeq	r0, r0, r0, lsl #14
     fbc:	00010500 	andeq	r0, r1, r0, lsl #10
     fc0:	09bc0205 	ldmibeq	ip!, {r0, r2, r9}
     fc4:	29030001 	stmdbcs	r3, {r0}
     fc8:	4b0c0501 	blmi	3023d4 <__bss_end__+0x2da324>
     fcc:	04830105 	streq	r0, [r3], #261	; 0x105
     fd0:	00e90302 	rsceq	r0, r9, r2, lsl #6
     fd4:	d7180566 	ldrle	r0, [r8, -r6, ror #10]
     fd8:	3129052f 			; <UNDEFINED> instruction: 0x3129052f
     fdc:	054a1805 	strbeq	r1, [sl, #-2053]	; 0xfffff7fb
     fe0:	054b2f29 	strbeq	r2, [fp, #-3881]	; 0xfffff0d7
     fe4:	29054a18 	stmdbcs	r5, {r3, r4, r9, fp, lr}
     fe8:	4a18052f 	bmi	6024ac <__bss_end__+0x5da3fc>
     fec:	2f050532 	svccs	0x00050532
     ff0:	05350f05 	ldreq	r0, [r5, #-3845]!	; 0xfffff0fb
     ff4:	11056710 	tstne	r5, r0, lsl r7
     ff8:	6767674b 	strbvs	r6, [r7, -fp, asr #14]!
     ffc:	04670105 	strbteq	r0, [r7], #-261	; 0xfffffefb
    1000:	03cb0303 	biceq	r0, fp, #201326592	; 0xc000000
    1004:	9f140582 	svcls	0x00140582
    1008:	05660505 	strbeq	r0, [r6, #-1285]!	; 0xfffffafb
    100c:	4b4b680f 	blmi	12db050 <__bss_end__+0x12b2fa0>
    1010:	054b4b4b 	strbeq	r4, [fp, #-2891]	; 0xfffff4b5
    1014:	01054c05 	tsteq	r5, r5, lsl #24
    1018:	04132202 	ldreq	r2, [r3], #-514	; 0xfffffdfe
    101c:	7b8a0304 	blvc	fe281c34 <__bss_end__+0xfe259b84>
    1020:	68050566 	stmdavs	r5, {r1, r2, r5, r6, r8, sl}
    1024:	054b0c05 	strbeq	r0, [fp, #-3077]	; 0xfffff3fb
    1028:	05852f01 	streq	r2, [r5, #3841]	; 0xf01
    102c:	01058305 	tsteq	r5, r5, lsl #6
    1030:	820d034b 	andhi	r0, sp, #738197505	; 0x2c000001
    1034:	05830505 	streq	r0, [r3, #1285]	; 0x505
    1038:	0a034b01 	beq	d3c44 <__bss_end__+0xabb94>
    103c:	4b0c0566 	blmi	3025dc <__bss_end__+0x2da52c>
    1040:	044b0105 	strbeq	r0, [fp], #-261	; 0xfffffefb
    1044:	4a380305 	bmi	e01c60 <__bss_end__+0xdd9bb0>
    1048:	054b0f05 	strbeq	r0, [fp, #-3845]	; 0xfffff0fb
    104c:	05856701 	streq	r6, [r5, #1793]	; 0x701
    1050:	01054b0f 	tsteq	r5, pc, lsl #22
    1054:	0f058567 	svceq	0x00058567
    1058:	6701054b 	strvs	r0, [r1, -fp, asr #10]
    105c:	4b0f0585 	blmi	3c2678 <__bss_end__+0x39a5c8>
    1060:	85670105 	strbhi	r0, [r7, #-261]!	; 0xfffffefb
    1064:	054b0f05 	strbeq	r0, [fp, #-3845]	; 0xfffff0fb
    1068:	05856701 	streq	r6, [r5, #1793]	; 0x701
    106c:	01054b0f 	tsteq	r5, pc, lsl #22
    1070:	13058567 	movwne	r8, #21863	; 0x5567
    1074:	6701054b 	strvs	r0, [r1, -fp, asr #10]
    1078:	500f0585 	andpl	r0, pc, r5, lsl #11
    107c:	05662805 	strbeq	r2, [r6, #-2053]!	; 0xfffff7fb
    1080:	05858301 	streq	r8, [r5, #769]	; 0x301
    1084:	10058308 	andne	r8, r5, r8, lsl #6
    1088:	4d050567 	cfstr32mi	mvfx0, [r5, #-412]	; 0xfffffe64
    108c:	054c0c05 	strbeq	r0, [ip, #-3077]	; 0xfffff3fb
    1090:	05696701 	strbeq	r6, [r9, #-1793]!	; 0xfffff8ff
    1094:	10058308 	andne	r8, r5, r8, lsl #6
    1098:	4d260567 	cfstr32mi	mvfx0, [r6, #-412]!	; 0xfffffe64
    109c:	05670805 	strbeq	r0, [r7, #-2053]!	; 0xfffff7fb
    10a0:	05056710 	streq	r6, [r5, #-1808]	; 0xfffff8f0
    10a4:	4c0c054d 	cfstr32mi	mvfx0, [ip], {77}	; 0x4d
    10a8:	05660805 	strbeq	r0, [r6, #-2053]!	; 0xfffff7fb
    10ac:	1b054b20 	blne	153d34 <__bss_end__+0x12bc84>
    10b0:	85210566 	strhi	r0, [r1, #-1382]!	; 0xfffffa9a
    10b4:	05850c05 	streq	r0, [r5, #3077]	; 0xc05
    10b8:	26056608 	strcs	r6, [r5], -r8, lsl #12
    10bc:	01040200 	mrseq	r0, R12_usr
    10c0:	0020054a 	eoreq	r0, r0, sl, asr #10
    10c4:	66010402 	strvs	r0, [r1], -r2, lsl #8
    10c8:	02004705 	andeq	r4, r0, #1310720	; 0x140000
    10cc:	054a0204 	strbeq	r0, [sl, #-516]	; 0xfffffdfc
    10d0:	04020041 	streq	r0, [r2], #-65	; 0xffffffbf
    10d4:	09056602 	stmdbeq	r5, {r1, r9, sl, sp, lr}
    10d8:	080f054d 	stmdaeq	pc, {r0, r2, r3, r6, r8, sl}	; <UNPREDICTABLE>
    10dc:	67010524 	strvs	r0, [r1, -r4, lsr #10]
    10e0:	831a0585 	tsthi	sl, #557842432	; 0x21400000
    10e4:	05831105 	streq	r1, [r3, #261]	; 0x105
    10e8:	0105830c 	tsteq	r5, ip, lsl #6
    10ec:	1e05852f 	cfsh32ne	mvfx8, mvfx5, #31
    10f0:	83150583 	tsthi	r5, #549453824	; 0x20c00000
    10f4:	05830c05 	streq	r0, [r3, #3077]	; 0xc05
    10f8:	05852f01 	streq	r2, [r5, #3841]	; 0xf01
    10fc:	0805830c 	stmdaeq	r5, {r2, r3, r8, r9, pc}
    1100:	4b130566 	blmi	4c26a0 <__bss_end__+0x49a5f0>
    1104:	05661005 	strbeq	r1, [r6, #-5]!
    1108:	08056905 	stmdaeq	r5, {r0, r2, r8, fp, sp, lr}
    110c:	66050534 			; <UNDEFINED> instruction: 0x66050534
    1110:	6e4b0105 	dvfvse	f0, f3, f5
    1114:	05d72c05 	ldrbeq	r2, [r7, #3077]	; 0xc05
    1118:	30054b20 	andcc	r4, r5, r0, lsr #22
    111c:	66180567 	ldrvs	r0, [r8], -r7, ror #10
    1120:	8508052f 	strhi	r0, [r8, #-1327]	; 0xfffffad1
    1124:	02002505 	andeq	r2, r0, #20971520	; 0x1400000
    1128:	05820104 	streq	r0, [r2, #260]	; 0x104
    112c:	0402001b 	streq	r0, [r2], #-27	; 0xffffffe5
    1130:	10056601 	andne	r6, r5, r1, lsl #12
    1134:	4d1f0567 	cfldr32mi	mvfx0, [pc, #-412]	; fa0 <errno+0xf9c>
    1138:	05671405 	strbeq	r1, [r7, #-1029]!	; 0xfffffbfb
    113c:	0c058405 	cfstrseq	mvf8, [r5], {5}
    1140:	2f010584 	svccs	0x00010584
    1144:	d705056e 	strle	r0, [r5, -lr, ror #10]
    1148:	08054b2f 	stmdaeq	r5, {r0, r1, r2, r3, r5, r8, r9, fp, lr}
    114c:	6709052f 	strvs	r0, [r9, -pc, lsr #10]
    1150:	05840505 	streq	r0, [r4, #1285]	; 0x505
    1154:	8383300e 	orrhi	r3, r3, #14
    1158:	84050583 	strhi	r0, [r5], #-1411	; 0xfffffa7d
    115c:	692f0105 	stmdbvs	pc!, {r0, r2, r8}	; <UNPREDICTABLE>
    1160:	05831605 	streq	r1, [r3, #1541]	; 0x605
    1164:	0d05840b 	cfstrseq	mvf8, [r5, #-44]	; 0xffffffd4
    1168:	4a0c052f 	bmi	30262c <__bss_end__+0x2da57c>
    116c:	054b2505 	strbeq	r2, [fp, #-1285]	; 0xfffffafb
    1170:	0d054a1e 	vstreq	s8, [r5, #-120]	; 0xffffff88
    1174:	610b0569 	tstvs	fp, r9, ror #10
    1178:	02001405 	andeq	r1, r0, #83886080	; 0x5000000
    117c:	05660104 	strbeq	r0, [r6, #-260]!	; 0xfffffefc
    1180:	04020011 	streq	r0, [r2], #-17	; 0xffffffef
    1184:	01054a01 	tsteq	r5, r1, lsl #20
    1188:	0e058551 	cfrshl32eq	mvfx5, mvfx1, r8
    118c:	4a050583 	bmi	1427a0 <__bss_end__+0x11a6f0>
    1190:	052f1505 	streq	r1, [pc, #-1285]!	; c93 <errno+0xc8f>
    1194:	09058218 	stmdbeq	r5, {r3, r4, r9, pc}
    1198:	022b052e 	eoreq	r0, fp, #192937984	; 0xb800000
    119c:	33051428 	movwcc	r1, #21544	; 0x5428
    11a0:	4a250582 	bmi	9427b0 <__bss_end__+0x91a700>
    11a4:	05670d05 	strbeq	r0, [r7, #-3333]!	; 0xfffff2fb
    11a8:	3405312c 	strcc	r3, [r5], #-300	; 0xfffffed4
    11ac:	4a260582 	bmi	9827bc <__bss_end__+0x95a70c>
    11b0:	05670d05 	strbeq	r0, [r7, #-3333]!	; 0xfffff2fb
    11b4:	3605312e 	strcc	r3, [r5], -lr, lsr #2
    11b8:	2e280582 	cfsh64cs	mvdx0, mvdx8, #-62
    11bc:	05670d05 	strbeq	r0, [r7, #-3333]!	; 0xfffff2fb
    11c0:	1c05312b 	stfnes	f3, [r5], {43}	; 0x2b
    11c4:	4b100582 	blmi	4027d4 <__bss_end__+0x3da724>
    11c8:	05691a05 	strbeq	r1, [r9, #-2565]!	; 0xfffff5fb
    11cc:	2b058335 	blcs	161ea8 <__bss_end__+0x139df8>
    11d0:	6724054a 	strvs	r0, [r4, -sl, asr #10]!
    11d4:	05830d05 	streq	r0, [r3, #3333]	; 0xd05
    11d8:	39053131 	stmdbcc	r5, {r0, r4, r5, r8, ip, sp}
    11dc:	2e2b0582 	cfsh64cs	mvdx0, mvdx11, #-62
    11e0:	05670d05 	strbeq	r0, [r7, #-3333]!	; 0xfffff2fb
    11e4:	3205312a 	andcc	r3, r5, #-2147483638	; 0x8000000a
    11e8:	4a240582 	bmi	9027f8 <__bss_end__+0x8da748>
    11ec:	31670d05 	cmncc	r7, r5, lsl #26
    11f0:	70031105 	andvc	r1, r3, r5, lsl #2
    11f4:	0031054a 	eorseq	r0, r1, sl, asr #10
    11f8:	03020402 	movweq	r0, #9218	; 0x2402
    11fc:	19052e6f 	stmdbne	r5, {r0, r1, r2, r3, r5, r6, r9, sl, fp, sp}
    1200:	01040200 	mrseq	r0, R12_usr
    1204:	001c0566 	andseq	r0, ip, r6, ror #10
    1208:	82010402 	andhi	r0, r1, #33554432	; 0x2000000
    120c:	02000505 	andeq	r0, r0, #20971520	; 0x1400000
    1210:	052e0104 	streq	r0, [lr, #-260]!	; 0xfffffefc
    1214:	4a240301 	bmi	901e20 <__bss_end__+0x8d9d70>
    1218:	671d05a1 	ldrvs	r0, [sp, -r1, lsr #11]
    121c:	054a0505 	strbeq	r0, [sl, #-1285]	; 0xfffffafb
    1220:	37052f2f 	strcc	r2, [r5, -pc, lsr #30]
    1224:	4a130566 	bmi	4c27c4 <__bss_end__+0x49a714>
    1228:	054b1705 	strbeq	r1, [fp, #-1797]	; 0xfffff8fb
    122c:	0d054a09 	vstreq	s8, [r5, #-36]	; 0xffffffdc
    1230:	05304b4c 	ldreq	r4, [r0, #-2892]!	; 0xfffff4b4
    1234:	04020043 	streq	r0, [r2], #-67	; 0xffffffbd
    1238:	2e790302 	cdpcs	3, 7, cr0, cr9, cr2, {0}
    123c:	02003a05 	andeq	r3, r0, #20480	; 0x5000
    1240:	05660104 	strbeq	r0, [r6, #-260]!	; 0xfffffefc
    1244:	04020005 	streq	r0, [r2], #-5
    1248:	01056601 	tsteq	r5, r1, lsl #12
    124c:	85660a03 	strbhi	r0, [r6, #-2563]!	; 0xfffff5fd
    1250:	05832405 	streq	r2, [r3, #1029]	; 0x405
    1254:	13054a15 	movwne	r4, #23061	; 0x5a15
    1258:	670f052e 	strvs	r0, [pc, -lr, lsr #10]
    125c:	054a0805 	strbeq	r0, [sl, #-2053]	; 0xfffff7fb
    1260:	17054b1f 	smladne	r5, pc, fp, r4	; <UNPREDICTABLE>
    1264:	2005844a 	andcs	r8, r5, sl, asr #8
    1268:	4a180584 	bmi	602880 <__bss_end__+0x5da7d0>
    126c:	00671b05 	rsbeq	r1, r7, r5, lsl #22
    1270:	06010402 	streq	r0, [r1], -r2, lsl #8
    1274:	02009008 	andeq	r9, r0, #8
    1278:	20080204 	andcs	r0, r8, r4, lsl #4
    127c:	04040200 	streq	r0, [r4], #-512	; 0xfffffe00
    1280:	0019052e 	andseq	r0, r9, lr, lsr #10
    1284:	06040402 	streq	r0, [r4], -r2, lsl #8
    1288:	001b054a 	andseq	r0, fp, sl, asr #10
    128c:	67040402 	strvs	r0, [r4, -r2, lsl #8]
    1290:	02001905 	andeq	r1, r0, #81920	; 0x14000
    1294:	3c080404 	cfstrscc	mvf0, [r8], {4}
    1298:	02000105 	andeq	r0, r0, #1073741825	; 0x40000001
    129c:	696a0404 	stmdbvs	sl!, {r2, sl}^
    12a0:	054b1005 	strbeq	r1, [fp, #-5]
    12a4:	09056608 	stmdbeq	r5, {r3, r9, sl, sp, lr}
    12a8:	6801054b 	stmdavs	r1, {r0, r1, r3, r6, r8, sl}
    12ac:	831a054d 	tsthi	sl, #322961408	; 0x13400000
    12b0:	05672605 	strbeq	r2, [r7, #-1541]!	; 0xfffff9fb
    12b4:	27056605 	strcs	r6, [r5, -r5, lsl #12]
    12b8:	661405bb 			; <UNDEFINED> instruction: 0x661405bb
    12bc:	05672a05 	strbeq	r2, [r7, #-2565]!	; 0xfffff5fb
    12c0:	05056640 	streq	r6, [r5, #-1600]	; 0xfffff9c0
    12c4:	a01f0566 	andsge	r0, pc, r6, ror #10
    12c8:	05670805 	strbeq	r0, [r7, #-2053]!	; 0xfffff7fb
    12cc:	1a05671c 	bne	15af44 <__bss_end__+0x132e94>
    12d0:	4c010566 	cfstr32mi	mvfx0, [r1], {102}	; 0x66
    12d4:	831b0569 	tsthi	fp, #440401920	; 0x1a400000
    12d8:	004e0c05 	subeq	r0, lr, r5, lsl #24
    12dc:	06010402 	streq	r0, [r1], -r2, lsl #8
    12e0:	02009008 	andeq	r9, r0, #8
    12e4:	20080204 	andcs	r0, r8, r4, lsl #4
    12e8:	04040200 	streq	r0, [r4], #-512	; 0xfffffe00
    12ec:	0001052e 	andeq	r0, r1, lr, lsr #10
    12f0:	06040402 	streq	r0, [r4], -r2, lsl #8
    12f4:	1b05694b 	blne	15b828 <__bss_end__+0x133778>
    12f8:	4f0e0583 	svcmi	0x000e0583
    12fc:	05680c05 	strbeq	r0, [r8, #-3077]!	; 0xfffff3fb
    1300:	05852f01 	streq	r2, [r5, #3841]	; 0xf01
    1304:	0105830c 	tsteq	r5, ip, lsl #6
    1308:	0c056bbb 			; <UNDEFINED> instruction: 0x0c056bbb
    130c:	30010586 	andcc	r0, r1, r6, lsl #11
    1310:	a00e0585 	andge	r0, lr, r5, lsl #11
    1314:	01040200 	mrseq	r0, R12_usr
    1318:	00580806 	subseq	r0, r8, r6, lsl #16
    131c:	08020402 	stmdaeq	r2, {r1, sl}
    1320:	04020020 	streq	r0, [r2], #-32	; 0xffffffe0
    1324:	0c052e04 	stceq	14, cr2, [r5], {4}
    1328:	04040200 	streq	r0, [r4], #-512	; 0xfffffe00
    132c:	0e054a06 	vmlaeq.f32	s8, s10, s12
    1330:	04040200 	streq	r0, [r4], #-512	; 0xfffffe00
    1334:	0402004c 	streq	r0, [r2], #-76	; 0xffffffb4
    1338:	58080601 	stmdapl	r8, {r0, r9, sl}
    133c:	02040200 	andeq	r0, r4, #0, 4
    1340:	02002008 	andeq	r2, r0, #8
    1344:	052e0404 	streq	r0, [lr, #-1028]!	; 0xfffffbfc
    1348:	0402000c 	streq	r0, [r2], #-12
    134c:	054a0604 	strbeq	r0, [sl, #-1540]	; 0xfffff9fc
    1350:	0402000e 	streq	r0, [r2], #-14
    1354:	02003004 	andeq	r3, r0, #4
    1358:	08060104 	stmdaeq	r6, {r2, r8}
    135c:	04020058 	streq	r0, [r2], #-88	; 0xffffffa8
    1360:	00200802 	eoreq	r0, r0, r2, lsl #16
    1364:	2e040402 	cdpcs	4, 0, cr0, cr4, cr2, {0}
    1368:	02000c05 	andeq	r0, r0, #1280	; 0x500
    136c:	4a060404 	bmi	182384 <__bss_end__+0x15a2d4>
    1370:	02000105 	andeq	r0, r0, #1073741825	; 0x40000001
    1374:	692f0404 	stmdbvs	pc!, {r2, sl}	; <UNPREDICTABLE>
    1378:	834b1305 	movthi	r1, #45829	; 0xb305
    137c:	05831805 	streq	r1, [r3, #2053]	; 0x805
    1380:	1b058319 	blne	161fec <__bss_end__+0x139f3c>
    1384:	08190583 	ldmdaeq	r9, {r0, r1, r7, r8, sl}
    1388:	6a01053c 	bvs	42880 <__bss_end__+0x1a7d0>
    138c:	054a0903 	strbeq	r0, [sl, #-2307]	; 0xfffff6fd
    1390:	0c054b0f 			; <UNDEFINED> instruction: 0x0c054b0f
    1394:	000f0567 	andeq	r0, pc, r7, ror #10
    1398:	4a020402 	bmi	823a8 <__bss_end__+0x5a2f8>
    139c:	02003005 	andeq	r3, r0, #5
    13a0:	054a0204 	strbeq	r0, [sl, #-516]	; 0xfffffdfc
    13a4:	0402000c 	streq	r0, [r2], #-12
    13a8:	02006602 	andeq	r6, r0, #2097152	; 0x200000
    13ac:	4a060304 	bmi	181fc4 <__bss_end__+0x159f14>
    13b0:	04040200 	streq	r0, [r4], #-512	; 0xfffffe00
    13b4:	0001054a 	andeq	r0, r1, sl, asr #10
    13b8:	06070402 	streq	r0, [r7], -r2, lsl #8
    13bc:	0004022f 	andeq	r0, r4, pc, lsr #4
    13c0:	01040101 	tsteq	r4, r1, lsl #2
    13c4:	00030000 	andeq	r0, r3, r0
    13c8:	0000006e 	andeq	r0, r0, lr, rrx
    13cc:	0efb0102 	cdpeq	1, 15, cr0, cr11, cr2, {0}
    13d0:	0101000d 	tsteq	r1, sp
    13d4:	00000101 	andeq	r0, r0, r1, lsl #2
    13d8:	00000100 	andeq	r0, r0, r0, lsl #2
    13dc:	6f682f01 	svcvs	0x00682f01
    13e0:	732f656d 			; <UNDEFINED> instruction: 0x732f656d
    13e4:	76796e75 			; <UNDEFINED> instruction: 0x76796e75
    13e8:	676e6f64 	strbvs	r6, [lr, -r4, ror #30]!
    13ec:	6c65732f 	stclvs	3, cr7, [r5], #-188	; 0xffffff44
    13f0:	696d2f34 	stmdbvs	sp!, {r2, r4, r5, r8, r9, sl, fp, sp}^
    13f4:	625f696e 	subsvs	r6, pc, #1802240	; 0x1b8000
    13f8:	646c6975 	strbtvs	r6, [ip], #-2421	; 0xfffff68b
    13fc:	6c65732f 	stclvs	3, cr7, [r5], #-188	; 0xffffff44
    1400:	75742d34 	ldrbvc	r2, [r4, #-3380]!	; 0xfffff2cc
    1404:	69726f74 	ldmdbvs	r2!, {r2, r4, r5, r6, r8, r9, sl, fp, sp, lr}^
    1408:	2d736c61 	ldclcs	12, cr6, [r3, #-388]!	; 0xfffffe7c
    140c:	696e616d 	stmdbvs	lr!, {r0, r2, r3, r5, r6, r8, sp, lr}^
    1410:	74736566 	ldrbtvc	r6, [r3], #-1382	; 0xfffffa9a
    1414:	6f72702f 	svcvs	0x0072702f
    1418:	7463656a 	strbtvc	r6, [r3], #-1386	; 0xfffffa96
    141c:	65732f73 	ldrbvs	r2, [r3, #-3955]!	; 0xfffff08d
    1420:	7572346c 	ldrbvc	r3, [r2, #-1132]!	; 0xfffffb94
    1424:	6d69746e 	cfstrdvs	mvd7, [r9, #-440]!	; 0xfffffe48
    1428:	72732f65 	rsbsvc	r2, r3, #404	; 0x194
    142c:	69000063 	stmdbvs	r0, {r0, r1, r5, r6}
    1430:	2e74696e 	vsubcs.f16	s13, s8, s29	; <UNPREDICTABLE>
    1434:	00010063 	andeq	r0, r1, r3, rrx
    1438:	01050000 	mrseq	r0, (UNDEF: 5)
    143c:	a8020500 	stmdage	r2, {r8, sl}
    1440:	03000118 	movweq	r0, #280	; 0x118
    1444:	0b05011c 	bleq	1418bc <__bss_end__+0x11980c>
    1448:	9c090569 	cfstr32ls	mvfx0, [r9], {105}	; 0x69
    144c:	054d0e05 	strbeq	r0, [sp, #-3589]	; 0xfffff1fb
    1450:	1e054a05 	vmlane.f32	s8, s10, s10
    1454:	03040200 	movweq	r0, #16896	; 0x4200
    1458:	0009052f 	andeq	r0, r9, pc, lsr #10
    145c:	82030402 	andhi	r0, r3, #33554432	; 0x2000000
    1460:	02002d05 	andeq	r2, r0, #320	; 0x140
    1464:	052d0304 	streq	r0, [sp, #-772]!	; 0xfffffcfc
    1468:	04020005 	streq	r0, [r2], #-5
    146c:	0b056601 	bleq	15ac78 <__bss_end__+0x132bc8>
    1470:	9c090588 	cfstr32ls	mvfx0, [r9], {136}	; 0x88
    1474:	054d0e05 	strbeq	r0, [sp, #-3589]	; 0xfffff1fb
    1478:	1b054a05 	blne	153c94 <__bss_end__+0x12bbe4>
    147c:	03040200 	movweq	r0, #16896	; 0x4200
    1480:	0009052f 	andeq	r0, r9, pc, lsr #10
    1484:	82030402 	andhi	r0, r3, #33554432	; 0x2000000
    1488:	02002a05 	andeq	r2, r0, #20480	; 0x5000
    148c:	052d0304 	streq	r0, [sp, #-772]!	; 0xfffffcfc
    1490:	04020005 	streq	r0, [r2], #-5
    1494:	01056601 	tsteq	r5, r1, lsl #12
    1498:	0b058585 	bleq	162ab4 <__bss_end__+0x13aa04>
    149c:	9c090569 	cfstr32ls	mvfx0, [r9], {105}	; 0x69
    14a0:	054d0e05 	strbeq	r0, [sp, #-3589]	; 0xfffff1fb
    14a4:	1b056605 	blne	15acc0 <__bss_end__+0x132c10>
    14a8:	03040200 	movweq	r0, #16896	; 0x4200
    14ac:	0009052f 	andeq	r0, r9, pc, lsr #10
    14b0:	82030402 	andhi	r0, r3, #33554432	; 0x2000000
    14b4:	02002f05 	andeq	r2, r0, #5, 30
    14b8:	052d0304 	streq	r0, [sp, #-772]!	; 0xfffffcfc
    14bc:	04020005 	streq	r0, [r2], #-5
    14c0:	01056601 	tsteq	r5, r1, lsl #12
    14c4:	0008026a 	andeq	r0, r8, sl, ror #4
    14c8:	02270101 	eoreq	r0, r7, #1073741824	; 0x40000000
    14cc:	00030000 	andeq	r0, r3, r0
    14d0:	000000e9 	andeq	r0, r0, r9, ror #1
    14d4:	0efb0102 	cdpeq	1, 15, cr0, cr11, cr2, {0}
    14d8:	0101000d 	tsteq	r1, sp
    14dc:	00000101 	andeq	r0, r0, r1, lsl #2
    14e0:	00000100 	andeq	r0, r0, r0, lsl #2
    14e4:	6f682f01 	svcvs	0x00682f01
    14e8:	732f656d 			; <UNDEFINED> instruction: 0x732f656d
    14ec:	76796e75 			; <UNDEFINED> instruction: 0x76796e75
    14f0:	676e6f64 	strbvs	r6, [lr, -r4, ror #30]!
    14f4:	6c65732f 	stclvs	3, cr7, [r5], #-188	; 0xffffff44
    14f8:	696d2f34 	stmdbvs	sp!, {r2, r4, r5, r8, r9, sl, fp, sp}^
    14fc:	625f696e 	subsvs	r6, pc, #1802240	; 0x1b8000
    1500:	646c6975 	strbtvs	r6, [ip], #-2421	; 0xfffff68b
    1504:	6c65732f 	stclvs	3, cr7, [r5], #-188	; 0xffffff44
    1508:	75742d34 	ldrbvc	r2, [r4, #-3380]!	; 0xfffff2cc
    150c:	69726f74 	ldmdbvs	r2!, {r2, r4, r5, r6, r8, r9, sl, fp, sp, lr}^
    1510:	2d736c61 	ldclcs	12, cr6, [r3, #-388]!	; 0xfffffe7c
    1514:	696e616d 	stmdbvs	lr!, {r0, r2, r3, r5, r6, r8, sp, lr}^
    1518:	74736566 	ldrbtvc	r6, [r3], #-1382	; 0xfffffa9a
    151c:	6f72702f 	svcvs	0x0072702f
    1520:	7463656a 	strbtvc	r6, [r3], #-1386	; 0xfffffa96
    1524:	65732f73 	ldrbvs	r2, [r3, #-3955]!	; 0xfffff08d
    1528:	7572346c 	ldrbvc	r3, [r2, #-1132]!	; 0xfffffb94
    152c:	6d69746e 	cfstrdvs	mvd7, [r9, #-440]!	; 0xfffffe48
    1530:	72732f65 	rsbsvc	r2, r3, #404	; 0x194
    1534:	682f0063 	stmdavs	pc!, {r0, r1, r5, r6}	; <UNPREDICTABLE>
    1538:	2f656d6f 	svccs	0x00656d6f
    153c:	796e7573 	stmdbvc	lr!, {r0, r1, r4, r5, r6, r8, sl, ip, sp, lr}^
    1540:	6e6f6476 	mcrvs	4, 3, r6, cr15, cr6, {3}
    1544:	65732f67 	ldrbvs	r2, [r3, #-3943]!	; 0xfffff099
    1548:	6d2f346c 	cfstrsvs	mvf3, [pc, #-432]!	; 13a0 <errno+0x139c>
    154c:	5f696e69 	svcpl	0x00696e69
    1550:	6c697562 	cfstr64vs	mvdx7, [r9], #-392	; 0xfffffe78
    1554:	65732f64 	ldrbvs	r2, [r3, #-3940]!	; 0xfffff09c
    1558:	742d346c 	strtvc	r3, [sp], #-1132	; 0xfffffb94
    155c:	726f7475 	rsbvc	r7, pc, #1962934272	; 0x75000000
    1560:	736c6169 	cmnvc	ip, #1073741850	; 0x4000001a
    1564:	6e616d2d 	cdpvs	13, 6, cr6, cr1, cr13, {1}
    1568:	73656669 	cmnvc	r5, #110100480	; 0x6900000
    156c:	72702f74 	rsbsvc	r2, r0, #116, 30	; 0x1d0
    1570:	63656a6f 	cmnvs	r5, #454656	; 0x6f000
    1574:	732f7374 			; <UNDEFINED> instruction: 0x732f7374
    1578:	72346c65 	eorsvc	r6, r4, #25856	; 0x6500
    157c:	69746e75 	ldmdbvs	r4!, {r0, r2, r4, r5, r6, r9, sl, fp, sp, lr}^
    1580:	692f656d 	stmdbvs	pc!, {r0, r2, r3, r5, r6, r8, sl, sp, lr}	; <UNPREDICTABLE>
    1584:	756c636e 	strbvc	r6, [ip, #-878]!	; 0xfffffc92
    1588:	732f6564 			; <UNDEFINED> instruction: 0x732f6564
    158c:	72346c65 	eorsvc	r6, r4, #25856	; 0x6500
    1590:	69746e75 	ldmdbvs	r4!, {r0, r2, r4, r5, r6, r9, sl, fp, sp, lr}^
    1594:	0000656d 	andeq	r6, r0, sp, ror #10
    1598:	736d656d 	cmnvc	sp, #457179136	; 0x1b400000
    159c:	632e7465 			; <UNDEFINED> instruction: 0x632e7465
    15a0:	00000100 	andeq	r0, r0, r0, lsl #2
    15a4:	69647473 	stmdbvs	r4!, {r0, r1, r4, r5, r6, sl, ip, sp, lr}^
    15a8:	682e746e 	stmdavs	lr!, {r1, r2, r3, r5, r6, sl, ip, sp, lr}
    15ac:	00000200 	andeq	r0, r0, r0, lsl #4
    15b0:	64647473 	strbtvs	r7, [r4], #-1139	; 0xfffffb8d
    15b4:	682e6665 	stmdavs	lr!, {r0, r2, r5, r6, r9, sl, sp, lr}
    15b8:	00000200 	andeq	r0, r0, r0, lsl #4
    15bc:	00010500 	andeq	r0, r1, r0, lsl #10
    15c0:	19e80205 	stmibne	r8!, {r0, r2, r9}^
    15c4:	1b030001 	blne	c15d0 <__bss_end__+0x99520>
    15c8:	bb140501 	bllt	5029d4 <__bss_end__+0x4da924>
    15cc:	05510805 	ldrbeq	r0, [r1, #-2053]	; 0xfffff7fb
    15d0:	0d056710 	stceq	7, cr6, [r5, #-64]	; 0xffffffc0
    15d4:	8215054c 	andshi	r0, r5, #76, 10	; 0x13000000
    15d8:	05660d05 	strbeq	r0, [r6, #-3333]!	; 0xfffff2fb
    15dc:	08052e0a 	stmdaeq	r5, {r1, r3, r9, sl, fp, sp}
    15e0:	6710054b 	ldrvs	r0, [r0, -fp, asr #10]
    15e4:	054c0d05 	strbeq	r0, [ip, #-3333]	; 0xfffff2fb
    15e8:	06058215 			; <UNDEFINED> instruction: 0x06058215
    15ec:	4a0d0566 	bmi	342b8c <__bss_end__+0x31aadc>
    15f0:	052e0a05 	streq	r0, [lr, #-2565]!	; 0xfffff5fb
    15f4:	15052f0d 	strne	r2, [r5, #-3853]	; 0xfffff0f3
    15f8:	66060582 	strvs	r0, [r6], -r2, lsl #11
    15fc:	054a0d05 	strbeq	r0, [sl, #-3333]	; 0xfffff2fb
    1600:	08052e0a 	stmdaeq	r5, {r1, r3, r9, sl, fp, sp}
    1604:	6710052f 	ldrvs	r0, [r0, -pc, lsr #10]
    1608:	054c0d05 	strbeq	r0, [ip, #-3333]	; 0xfffff2fb
    160c:	06058215 			; <UNDEFINED> instruction: 0x06058215
    1610:	4a0d0566 	bmi	342bb0 <__bss_end__+0x31ab00>
    1614:	052e0a05 	streq	r0, [lr, #-2565]!	; 0xfffff5fb
    1618:	10052f08 	andne	r2, r5, r8, lsl #30
    161c:	520a0567 	andpl	r0, sl, #432013312	; 0x19c00000
    1620:	052e0905 	streq	r0, [lr, #-2309]!	; 0xfffff6fb
    1624:	834b2e07 	movthi	r2, #48647	; 0xbe07
    1628:	6c230583 	cfstr32vs	mvfx0, [r3], #-524	; 0xfffffdf4
    162c:	05660905 	strbeq	r0, [r6, #-2309]!	; 0xfffff6fb
    1630:	14058a15 	strne	r8, [r5], #-2581	; 0xfffff5eb
    1634:	82190567 	andshi	r0, r9, #432013312	; 0x19c00000
    1638:	054b0805 	strbeq	r0, [fp, #-2053]	; 0xfffff7fb
    163c:	054c6710 	strbeq	r6, [ip, #-1808]	; 0xfffff8f0
    1640:	10054a15 	andne	r4, r5, r5, lsl sl
    1644:	4a15054b 	bmi	542b78 <__bss_end__+0x51aac8>
    1648:	054b1405 	strbeq	r1, [fp, #-1029]	; 0xfffffbfb
    164c:	1405821a 	strne	r8, [r5], #-538	; 0xfffffde6
    1650:	8219054b 	andshi	r0, r9, #314572800	; 0x12c00000
    1654:	054b0805 	strbeq	r0, [fp, #-2053]	; 0xfffff7fb
    1658:	054c6710 	strbeq	r6, [ip, #-1808]	; 0xfffff8f0
    165c:	10054a16 	andne	r4, r5, r6, lsl sl
    1660:	4a16054b 	bmi	582b94 <__bss_end__+0x55aae4>
    1664:	054b1005 	strbeq	r1, [fp, #-5]
    1668:	10054a16 	andne	r4, r5, r6, lsl sl
    166c:	4a16054b 	bmi	582ba0 <__bss_end__+0x55aaf0>
    1670:	054b1405 	strbeq	r1, [fp, #-1029]	; 0xfffffbfb
    1674:	1405821a 	strne	r8, [r5], #-538	; 0xfffffde6
    1678:	821a054b 	andshi	r0, sl, #314572800	; 0x12c00000
    167c:	054b1405 	strbeq	r1, [fp, #-1029]	; 0xfffffbfb
    1680:	1405821a 	strne	r8, [r5], #-538	; 0xfffffde6
    1684:	821a054b 	andshi	r0, sl, #314572800	; 0x12c00000
    1688:	05500f05 	ldrbeq	r0, [r0, #-3845]	; 0xfffff0fb
    168c:	07052e28 	streq	r2, [r5, -r8, lsr #28]
    1690:	05834b2e 	streq	r4, [r3, #2862]	; 0xb2e
    1694:	16058813 			; <UNDEFINED> instruction: 0x16058813
    1698:	661f0566 	ldrvs	r0, [pc], -r6, ror #10
    169c:	05820905 	streq	r0, [r2, #2309]	; 0x905
    16a0:	19056705 	stmdbne	r5, {r0, r2, r8, r9, sl, sp, lr}
    16a4:	02040200 	andeq	r0, r4, #0, 4
    16a8:	0014052f 	andseq	r0, r4, pc, lsr #10
    16ac:	67020402 	strvs	r0, [r2, -r2, lsl #8]
    16b0:	02001905 	andeq	r1, r0, #81920	; 0x14000
    16b4:	054a0204 	strbeq	r0, [sl, #-516]	; 0xfffffdfc
    16b8:	04020014 	streq	r0, [r2], #-20	; 0xffffffec
    16bc:	1a054b02 	bne	1542cc <__bss_end__+0x12c21c>
    16c0:	02040200 	andeq	r0, r4, #0, 4
    16c4:	0014054a 	andseq	r0, r4, sl, asr #10
    16c8:	4b020402 	blmi	826d8 <__bss_end__+0x5a628>
    16cc:	02001a05 	andeq	r1, r0, #20480	; 0x5000
    16d0:	054a0204 	strbeq	r0, [sl, #-516]	; 0xfffffdfc
    16d4:	04020017 	streq	r0, [r2], #-23	; 0xffffffe9
    16d8:	20054602 	andcs	r4, r5, r2, lsl #12
    16dc:	02040200 	andeq	r0, r4, #0, 4
    16e0:	00050566 	andeq	r0, r5, r6, ror #10
    16e4:	66010402 	strvs	r0, [r1], -r2, lsl #8
    16e8:	0d030c05 	stceq	12, cr0, [r3, #-20]	; 0xffffffec
    16ec:	2f010566 	svccs	0x00010566
    16f0:	01000802 	tsteq	r0, r2, lsl #16
    16f4:	0006d201 	andeq	sp, r6, r1, lsl #4
    16f8:	e9000300 	stmdb	r0, {r8, r9}
    16fc:	02000000 	andeq	r0, r0, #0
    1700:	0d0efb01 	vstreq	d15, [lr, #-4]
    1704:	01010100 	mrseq	r0, (UNDEF: 17)
    1708:	00000001 	andeq	r0, r0, r1
    170c:	01000001 	tsteq	r0, r1
    1710:	6d6f682f 	stclvs	8, cr6, [pc, #-188]!	; 165c <errno+0x1658>
    1714:	75732f65 	ldrbvc	r2, [r3, #-3941]!	; 0xfffff09b
    1718:	6476796e 	ldrbtvs	r7, [r6], #-2414	; 0xfffff692
    171c:	2f676e6f 	svccs	0x00676e6f
    1720:	346c6573 	strbtcc	r6, [ip], #-1395	; 0xfffffa8d
    1724:	6e696d2f 	cdpvs	13, 6, cr6, cr9, cr15, {1}
    1728:	75625f69 	strbvc	r5, [r2, #-3945]!	; 0xfffff097
    172c:	2f646c69 	svccs	0x00646c69
    1730:	346c6573 	strbtcc	r6, [ip], #-1395	; 0xfffffa8d
    1734:	7475742d 	ldrbtvc	r7, [r5], #-1069	; 0xfffffbd3
    1738:	6169726f 	cmnvs	r9, pc, ror #4
    173c:	6d2d736c 	stcvs	3, cr7, [sp, #-432]!	; 0xfffffe50
    1740:	66696e61 	strbtvs	r6, [r9], -r1, ror #28
    1744:	2f747365 	svccs	0x00747365
    1748:	6a6f7270 	bvs	1bde110 <__bss_end__+0x1bb6060>
    174c:	73746365 	cmnvc	r4, #-1811939327	; 0x94000001
    1750:	6c65732f 	stclvs	3, cr7, [r5], #-188	; 0xffffff44
    1754:	6e757234 	mrcvs	2, 3, r7, cr5, cr4, {1}
    1758:	656d6974 	strbvs	r6, [sp, #-2420]!	; 0xfffff68c
    175c:	6372732f 	cmnvs	r2, #-1140850688	; 0xbc000000
    1760:	6f682f00 	svcvs	0x00682f00
    1764:	732f656d 			; <UNDEFINED> instruction: 0x732f656d
    1768:	76796e75 			; <UNDEFINED> instruction: 0x76796e75
    176c:	676e6f64 	strbvs	r6, [lr, -r4, ror #30]!
    1770:	6c65732f 	stclvs	3, cr7, [r5], #-188	; 0xffffff44
    1774:	696d2f34 	stmdbvs	sp!, {r2, r4, r5, r8, r9, sl, fp, sp}^
    1778:	625f696e 	subsvs	r6, pc, #1802240	; 0x1b8000
    177c:	646c6975 	strbtvs	r6, [ip], #-2421	; 0xfffff68b
    1780:	6c65732f 	stclvs	3, cr7, [r5], #-188	; 0xffffff44
    1784:	75742d34 	ldrbvc	r2, [r4, #-3380]!	; 0xfffff2cc
    1788:	69726f74 	ldmdbvs	r2!, {r2, r4, r5, r6, r8, r9, sl, fp, sp, lr}^
    178c:	2d736c61 	ldclcs	12, cr6, [r3, #-388]!	; 0xfffffe7c
    1790:	696e616d 	stmdbvs	lr!, {r0, r2, r3, r5, r6, r8, sp, lr}^
    1794:	74736566 	ldrbtvc	r6, [r3], #-1382	; 0xfffffa9a
    1798:	6f72702f 	svcvs	0x0072702f
    179c:	7463656a 	strbtvc	r6, [r3], #-1386	; 0xfffffa96
    17a0:	65732f73 	ldrbvs	r2, [r3, #-3955]!	; 0xfffff08d
    17a4:	7572346c 	ldrbvc	r3, [r2, #-1132]!	; 0xfffffb94
    17a8:	6d69746e 	cfstrdvs	mvd7, [r9, #-440]!	; 0xfffffe48
    17ac:	6e692f65 	cdpvs	15, 6, cr2, cr9, cr5, {3}
    17b0:	64756c63 	ldrbtvs	r6, [r5], #-3171	; 0xfffff39d
    17b4:	65732f65 	ldrbvs	r2, [r3, #-3941]!	; 0xfffff09b
    17b8:	7572346c 	ldrbvc	r3, [r2, #-1132]!	; 0xfffffb94
    17bc:	6d69746e 	cfstrdvs	mvd7, [r9, #-440]!	; 0xfffffe48
    17c0:	6d000065 	stcvs	0, cr0, [r0, #-404]	; 0xfffffe6c
    17c4:	70636d65 	rsbvc	r6, r3, r5, ror #26
    17c8:	00632e79 	rsbeq	r2, r3, r9, ror lr
    17cc:	73000001 	movwvc	r0, #1
    17d0:	6e696474 	mcrvs	4, 3, r6, cr9, cr4, {3}
    17d4:	00682e74 	rsbeq	r2, r8, r4, ror lr
    17d8:	73000002 	movwvc	r0, #2
    17dc:	65646474 	strbvs	r6, [r4, #-1140]!	; 0xfffffb8c
    17e0:	00682e66 	rsbeq	r2, r8, r6, ror #28
    17e4:	00000002 	andeq	r0, r0, r2
    17e8:	05000105 	streq	r0, [r0, #-261]	; 0xfffffefb
    17ec:	011d7402 	tsteq	sp, r2, lsl #8
    17f0:	011b0300 	tsteq	fp, r0, lsl #6
    17f4:	05bb1405 	ldreq	r1, [fp, #1029]!	; 0x405
    17f8:	05054b1a 	streq	r4, [r5, #-2842]	; 0xfffff4e6
    17fc:	054a0f03 	strbeq	r0, [sl, #-3843]	; 0xfffff0fd
    1800:	04020012 	streq	r0, [r2], #-18	; 0xffffffee
    1804:	0b052f03 	bleq	14d418 <__bss_end__+0x125368>
    1808:	03040200 	movweq	r0, #16896	; 0x4200
    180c:	00100566 	andseq	r0, r0, r6, ror #10
    1810:	66030402 	strvs	r0, [r3], -r2, lsl #8
    1814:	02000e05 	andeq	r0, r0, #5, 28	; 0x50
    1818:	052e0304 	streq	r0, [lr, #-772]!	; 0xfffffcfc
    181c:	04020030 	streq	r0, [r2], #-48	; 0xffffffd0
    1820:	0c052d03 	stceq	13, cr2, [r5], {3}
    1824:	01040200 	mrseq	r0, R12_usr
    1828:	00250566 	eoreq	r0, r5, r6, ror #10
    182c:	2e010402 	cdpcs	4, 0, cr0, cr1, cr2, {0}
    1830:	02000505 	andeq	r0, r0, #20971520	; 0x1400000
    1834:	052e0104 	streq	r0, [lr, #-260]!	; 0xfffffefc
    1838:	04020029 	streq	r0, [r2], #-41	; 0xffffffd7
    183c:	09054a02 	stmdbeq	r5, {r1, r9, fp, lr}
    1840:	2e22056a 	cfsh64cs	mvdx0, mvdx2, #58
    1844:	052e0805 	streq	r0, [lr, #-2053]!	; 0xfffff7fb
    1848:	1f054b09 	svcne	0x00054b09
    184c:	02040200 	andeq	r0, r4, #0, 4
    1850:	001d052f 	andseq	r0, sp, pc, lsr #10
    1854:	4a020402 	bmi	82864 <__bss_end__+0x5a7b4>
    1858:	02002a05 	andeq	r2, r0, #20480	; 0x5000
    185c:	054b0204 	strbeq	r0, [fp, #-516]	; 0xfffffdfc
    1860:	04020018 	streq	r0, [r2], #-24	; 0xffffffe8
    1864:	1f054a02 	svcne	0x00054a02
    1868:	02040200 	andeq	r0, r4, #0, 4
    186c:	001d054a 	andseq	r0, sp, sl, asr #10
    1870:	2e020402 	cdpcs	4, 0, cr0, cr2, cr2, {0}
    1874:	02002a05 	andeq	r2, r0, #20480	; 0x5000
    1878:	052f0204 	streq	r0, [pc, #-516]!	; 167c <errno+0x1678>
    187c:	04020018 	streq	r0, [r2], #-24	; 0xffffffe8
    1880:	1f054a02 	svcne	0x00054a02
    1884:	02040200 	andeq	r0, r4, #0, 4
    1888:	001d054a 	andseq	r0, sp, sl, asr #10
    188c:	2e020402 	cdpcs	4, 0, cr0, cr2, cr2, {0}
    1890:	02002b05 	andeq	r2, r0, #5120	; 0x1400
    1894:	052f0204 	streq	r0, [pc, #-516]!	; 1698 <errno+0x1694>
    1898:	04020018 	streq	r0, [r2], #-24	; 0xffffffe8
    189c:	20054a02 	andcs	r4, r5, r2, lsl #20
    18a0:	02040200 	andeq	r0, r4, #0, 4
    18a4:	001e054a 	andseq	r0, lr, sl, asr #10
    18a8:	2e020402 	cdpcs	4, 0, cr0, cr2, cr2, {0}
    18ac:	02001b05 	andeq	r1, r0, #5120	; 0x1400
    18b0:	052a0204 	streq	r0, [sl, #-516]!	; 0xfffffdfc
    18b4:	04020024 	streq	r0, [r2], #-36	; 0xffffffdc
    18b8:	2d056602 	stccs	6, cr6, [r5, #-8]
    18bc:	02040200 	andeq	r0, r4, #0, 4
    18c0:	00090566 	andeq	r0, r9, r6, ror #10
    18c4:	66010402 	strvs	r0, [r1], -r2, lsl #8
    18c8:	056c0f05 	strbeq	r0, [ip, #-3845]!	; 0xfffff0fb
    18cc:	1f054a0c 	svcne	0x00054a0c
    18d0:	4a1d054b 	bmi	742e04 <__bss_end__+0x71ad54>
    18d4:	054b2a05 	strbeq	r2, [fp, #-2565]	; 0xfffff5fb
    18d8:	1f054a18 	svcne	0x00054a18
    18dc:	2e1d054a 	cfmac32cs	mvfx0, mvfx13, mvfx10
    18e0:	672f0f05 	strvs	r0, [pc, -r5, lsl #30]!
    18e4:	4a0c0568 	bmi	302e8c <__bss_end__+0x2daddc>
    18e8:	054b1f05 	strbeq	r1, [fp, #-3845]	; 0xfffff0fb
    18ec:	0f054a1d 	svceq	0x00054a1d
    18f0:	0568674b 	strbeq	r6, [r8, #-1867]!	; 0xfffff8b5
    18f4:	16054a0c 	strne	r4, [r5], -ip, lsl #20
    18f8:	660f054b 	strvs	r0, [pc], -fp, asr #10
    18fc:	05661405 	strbeq	r1, [r6, #-1029]!	; 0xfffffbfb
    1900:	16052e12 			; <UNDEFINED> instruction: 0x16052e12
    1904:	660f052f 	strvs	r0, [pc], -pc, lsr #10
    1908:	05661405 	strbeq	r1, [r6, #-1029]!	; 0xfffffbfb
    190c:	0f052e12 	svceq	0x00052e12
    1910:	4a0c0530 	bmi	302dd8 <__bss_end__+0x2dad28>
    1914:	054b1205 	strbeq	r1, [fp, #-517]	; 0xfffffdfb
    1918:	054c4a10 	strbeq	r4, [ip, #-2576]	; 0xfffff5f0
    191c:	1a054d08 	bne	154d44 <__bss_end__+0x12cc94>
    1920:	01040200 	mrseq	r0, R12_usr
    1924:	00330566 	eorseq	r0, r3, r6, ror #10
    1928:	2e010402 	cdpcs	4, 0, cr0, cr1, cr2, {0}
    192c:	02001205 	andeq	r1, r0, #1342177280	; 0x50000000
    1930:	062e0104 	strteq	r0, [lr], -r4, lsl #2
    1934:	060f054a 	streq	r0, [pc], -sl, asr #10
    1938:	671605d8 			; <UNDEFINED> instruction: 0x671605d8
    193c:	05660f05 	strbeq	r0, [r6, #-3845]!	; 0xfffff0fb
    1940:	12056614 	andne	r6, r5, #20, 12	; 0x1400000
    1944:	2f16052e 	svccs	0x0016052e
    1948:	05660f05 	strbeq	r0, [r6, #-3845]!	; 0xfffff0fb
    194c:	12056614 	andne	r6, r5, #20, 12	; 0x1400000
    1950:	2f16052e 	svccs	0x0016052e
    1954:	05660f05 	strbeq	r0, [r6, #-3845]!	; 0xfffff0fb
    1958:	12056614 	andne	r6, r5, #20, 12	; 0x1400000
    195c:	2f0f052e 	svccs	0x000f052e
    1960:	05670d05 	strbeq	r0, [r7, #-3333]!	; 0xfffff2fb
    1964:	04020020 	streq	r0, [r2], #-32	; 0xffffffe0
    1968:	13052f02 	movwne	r2, #24322	; 0x5f02
    196c:	02040200 	andeq	r0, r4, #0, 4
    1970:	0026054a 	eoreq	r0, r6, sl, asr #10
    1974:	4b020402 	blmi	82984 <__bss_end__+0x5a8d4>
    1978:	02003205 	andeq	r3, r0, #1342177280	; 0x50000000
    197c:	054a0204 	strbeq	r0, [sl, #-516]	; 0xfffffdfc
    1980:	0402002d 	streq	r0, [r2], #-45	; 0xffffffd3
    1984:	21054a02 	tstcs	r5, r2, lsl #20
    1988:	02040200 	andeq	r0, r4, #0, 4
    198c:	0020052e 	eoreq	r0, r0, lr, lsr #10
    1990:	4b020402 	blmi	829a0 <__bss_end__+0x5a8f0>
    1994:	02001305 	andeq	r1, r0, #335544320	; 0x14000000
    1998:	054a0204 	strbeq	r0, [sl, #-516]	; 0xfffffdfc
    199c:	04020026 	streq	r0, [r2], #-38	; 0xffffffda
    19a0:	32054b02 	andcc	r4, r5, #2048	; 0x800
    19a4:	02040200 	andeq	r0, r4, #0, 4
    19a8:	001c054a 	andseq	r0, ip, sl, asr #10
    19ac:	4a020402 	bmi	829bc <__bss_end__+0x5a90c>
    19b0:	02002d05 	andeq	r2, r0, #320	; 0x140
    19b4:	054a0204 	strbeq	r0, [sl, #-516]	; 0xfffffdfc
    19b8:	04020021 	streq	r0, [r2], #-33	; 0xffffffdf
    19bc:	20052e02 	andcs	r2, r5, r2, lsl #28
    19c0:	02040200 	andeq	r0, r4, #0, 4
    19c4:	0013052f 	andseq	r0, r3, pc, lsr #10
    19c8:	4a020402 	bmi	829d8 <__bss_end__+0x5a928>
    19cc:	02002605 	andeq	r2, r0, #5242880	; 0x500000
    19d0:	054b0204 	strbeq	r0, [fp, #-516]	; 0xfffffdfc
    19d4:	04020032 	streq	r0, [r2], #-50	; 0xffffffce
    19d8:	1c054a02 			; <UNDEFINED> instruction: 0x1c054a02
    19dc:	02040200 	andeq	r0, r4, #0, 4
    19e0:	002d054a 	eoreq	r0, sp, sl, asr #10
    19e4:	4a020402 	bmi	829f4 <__bss_end__+0x5a944>
    19e8:	02002105 	andeq	r2, r0, #1073741825	; 0x40000001
    19ec:	052e0204 	streq	r0, [lr, #-516]!	; 0xfffffdfc
    19f0:	04020020 	streq	r0, [r2], #-32	; 0xffffffe0
    19f4:	13052f02 	movwne	r2, #24322	; 0x5f02
    19f8:	02040200 	andeq	r0, r4, #0, 4
    19fc:	0027054a 	eoreq	r0, r7, sl, asr #10
    1a00:	4b020402 	blmi	82a10 <__bss_end__+0x5a960>
    1a04:	02003305 	andeq	r3, r0, #335544320	; 0x14000000
    1a08:	054a0204 	strbeq	r0, [sl, #-516]	; 0xfffffdfc
    1a0c:	0402001c 	streq	r0, [r2], #-28	; 0xffffffe4
    1a10:	2e054a02 	vmlacs.f32	s8, s10, s4
    1a14:	02040200 	andeq	r0, r4, #0, 4
    1a18:	0022054a 	eoreq	r0, r2, sl, asr #10
    1a1c:	2e020402 	cdpcs	4, 0, cr0, cr2, cr2, {0}
    1a20:	02001f05 	andeq	r1, r0, #5, 30
    1a24:	78030204 	stmdavc	r3, {r2, r9}
    1a28:	0028052e 	eoreq	r0, r8, lr, lsr #10
    1a2c:	66020402 	strvs	r0, [r2], -r2, lsl #8
    1a30:	02003105 	andeq	r3, r0, #1073741825	; 0x40000001
    1a34:	05660204 	strbeq	r0, [r6, #-516]!	; 0xfffffdfc
    1a38:	0402000d 	streq	r0, [r2], #-13
    1a3c:	0a036601 	beq	db248 <__bss_end__+0xb3198>
    1a40:	300f0566 	andcc	r0, pc, r6, ror #10
    1a44:	05671605 	strbeq	r1, [r7, #-1541]!	; 0xfffff9fb
    1a48:	1405660f 	strne	r6, [r5], #-1551	; 0xfffff9f1
    1a4c:	2e120566 	cfmsc32cs	mvfx0, mvfx2, mvfx6
    1a50:	052f1605 	streq	r1, [pc, #-1541]!	; 1453 <errno+0x144f>
    1a54:	1405660f 	strne	r6, [r5], #-1551	; 0xfffff9f1
    1a58:	2e120566 	cfmsc32cs	mvfx0, mvfx2, mvfx6
    1a5c:	052f0f05 	streq	r0, [pc, #-3845]!	; b5f <errno+0xb5b>
    1a60:	2005670d 	andcs	r6, r5, sp, lsl #14
    1a64:	02040200 	andeq	r0, r4, #0, 4
    1a68:	0013052f 	andseq	r0, r3, pc, lsr #10
    1a6c:	4a020402 	bmi	82a7c <__bss_end__+0x5a9cc>
    1a70:	02002605 	andeq	r2, r0, #5242880	; 0x500000
    1a74:	054b0204 	strbeq	r0, [fp, #-516]	; 0xfffffdfc
    1a78:	04020032 	streq	r0, [r2], #-50	; 0xffffffce
    1a7c:	2d054a02 	vstrcs	s8, [r5, #-8]
    1a80:	02040200 	andeq	r0, r4, #0, 4
    1a84:	0021054a 	eoreq	r0, r1, sl, asr #10
    1a88:	2e020402 	cdpcs	4, 0, cr0, cr2, cr2, {0}
    1a8c:	02002005 	andeq	r2, r0, #5
    1a90:	054b0204 	strbeq	r0, [fp, #-516]	; 0xfffffdfc
    1a94:	04020013 	streq	r0, [r2], #-19	; 0xffffffed
    1a98:	26054a02 	strcs	r4, [r5], -r2, lsl #20
    1a9c:	02040200 	andeq	r0, r4, #0, 4
    1aa0:	0032054b 	eorseq	r0, r2, fp, asr #10
    1aa4:	4a020402 	bmi	82ab4 <__bss_end__+0x5aa04>
    1aa8:	02001c05 	andeq	r1, r0, #1280	; 0x500
    1aac:	054a0204 	strbeq	r0, [sl, #-516]	; 0xfffffdfc
    1ab0:	0402002d 	streq	r0, [r2], #-45	; 0xffffffd3
    1ab4:	21054a02 	tstcs	r5, r2, lsl #20
    1ab8:	02040200 	andeq	r0, r4, #0, 4
    1abc:	0020052e 	eoreq	r0, r0, lr, lsr #10
    1ac0:	2f020402 	svccs	0x00020402
    1ac4:	02001305 	andeq	r1, r0, #335544320	; 0x14000000
    1ac8:	054a0204 	strbeq	r0, [sl, #-516]	; 0xfffffdfc
    1acc:	04020026 	streq	r0, [r2], #-38	; 0xffffffda
    1ad0:	32054b02 	andcc	r4, r5, #2048	; 0x800
    1ad4:	02040200 	andeq	r0, r4, #0, 4
    1ad8:	001c054a 	andseq	r0, ip, sl, asr #10
    1adc:	4a020402 	bmi	82aec <__bss_end__+0x5aa3c>
    1ae0:	02002d05 	andeq	r2, r0, #320	; 0x140
    1ae4:	054a0204 	strbeq	r0, [sl, #-516]	; 0xfffffdfc
    1ae8:	04020021 	streq	r0, [r2], #-33	; 0xffffffdf
    1aec:	20052e02 	andcs	r2, r5, r2, lsl #28
    1af0:	02040200 	andeq	r0, r4, #0, 4
    1af4:	0013052f 	andseq	r0, r3, pc, lsr #10
    1af8:	4a020402 	bmi	82b08 <__bss_end__+0x5aa58>
    1afc:	02002705 	andeq	r2, r0, #1310720	; 0x140000
    1b00:	054b0204 	strbeq	r0, [fp, #-516]	; 0xfffffdfc
    1b04:	04020033 	streq	r0, [r2], #-51	; 0xffffffcd
    1b08:	1c054a02 			; <UNDEFINED> instruction: 0x1c054a02
    1b0c:	02040200 	andeq	r0, r4, #0, 4
    1b10:	002e054a 	eoreq	r0, lr, sl, asr #10
    1b14:	4a020402 	bmi	82b24 <__bss_end__+0x5aa74>
    1b18:	02002205 	andeq	r2, r0, #1342177280	; 0x50000000
    1b1c:	052e0204 	streq	r0, [lr, #-516]!	; 0xfffffdfc
    1b20:	0402001f 	streq	r0, [r2], #-31	; 0xffffffe1
    1b24:	2e780302 	cdpcs	3, 7, cr0, cr8, cr2, {0}
    1b28:	02002805 	andeq	r2, r0, #327680	; 0x50000
    1b2c:	05660204 	strbeq	r0, [r6, #-516]!	; 0xfffffdfc
    1b30:	04020031 	streq	r0, [r2], #-49	; 0xffffffcf
    1b34:	0d056602 	stceq	6, cr6, [r5, #-8]
    1b38:	01040200 	mrseq	r0, R12_usr
    1b3c:	660a0366 	strvs	r0, [sl], -r6, ror #6
    1b40:	05300f05 	ldreq	r0, [r0, #-3845]!	; 0xfffff0fb
    1b44:	0f056716 	svceq	0x00056716
    1b48:	66140566 	ldrvs	r0, [r4], -r6, ror #10
    1b4c:	052e1205 	streq	r1, [lr, #-517]!	; 0xfffffdfb
    1b50:	0d052f0f 	stceq	15, cr2, [r5, #-60]	; 0xffffffc4
    1b54:	00200567 	eoreq	r0, r0, r7, ror #10
    1b58:	2f020402 	svccs	0x00020402
    1b5c:	02001305 	andeq	r1, r0, #335544320	; 0x14000000
    1b60:	054a0204 	strbeq	r0, [sl, #-516]	; 0xfffffdfc
    1b64:	04020026 	streq	r0, [r2], #-38	; 0xffffffda
    1b68:	31054b02 	tstcc	r5, r2, lsl #22
    1b6c:	02040200 	andeq	r0, r4, #0, 4
    1b70:	002c054a 	eoreq	r0, ip, sl, asr #10
    1b74:	4a020402 	bmi	82b84 <__bss_end__+0x5aad4>
    1b78:	02002105 	andeq	r2, r0, #1073741825	; 0x40000001
    1b7c:	052e0204 	streq	r0, [lr, #-516]!	; 0xfffffdfc
    1b80:	04020020 	streq	r0, [r2], #-32	; 0xffffffe0
    1b84:	13054b02 	movwne	r4, #23298	; 0x5b02
    1b88:	02040200 	andeq	r0, r4, #0, 4
    1b8c:	0026054a 	eoreq	r0, r6, sl, asr #10
    1b90:	4b020402 	blmi	82ba0 <__bss_end__+0x5aaf0>
    1b94:	02003105 	andeq	r3, r0, #1073741825	; 0x40000001
    1b98:	054a0204 	strbeq	r0, [sl, #-516]	; 0xfffffdfc
    1b9c:	0402001c 	streq	r0, [r2], #-28	; 0xffffffe4
    1ba0:	2c054a02 			; <UNDEFINED> instruction: 0x2c054a02
    1ba4:	02040200 	andeq	r0, r4, #0, 4
    1ba8:	0021054a 	eoreq	r0, r1, sl, asr #10
    1bac:	2e020402 	cdpcs	4, 0, cr0, cr2, cr2, {0}
    1bb0:	02002005 	andeq	r2, r0, #5
    1bb4:	052f0204 	streq	r0, [pc, #-516]!	; 19b8 <errno+0x19b4>
    1bb8:	04020013 	streq	r0, [r2], #-19	; 0xffffffed
    1bbc:	26054a02 	strcs	r4, [r5], -r2, lsl #20
    1bc0:	02040200 	andeq	r0, r4, #0, 4
    1bc4:	0031054b 	eorseq	r0, r1, fp, asr #10
    1bc8:	4a020402 	bmi	82bd8 <__bss_end__+0x5ab28>
    1bcc:	02001c05 	andeq	r1, r0, #1280	; 0x500
    1bd0:	054a0204 	strbeq	r0, [sl, #-516]	; 0xfffffdfc
    1bd4:	0402002c 	streq	r0, [r2], #-44	; 0xffffffd4
    1bd8:	21054a02 	tstcs	r5, r2, lsl #20
    1bdc:	02040200 	andeq	r0, r4, #0, 4
    1be0:	0020052e 	eoreq	r0, r0, lr, lsr #10
    1be4:	2f020402 	svccs	0x00020402
    1be8:	02001305 	andeq	r1, r0, #335544320	; 0x14000000
    1bec:	054a0204 	strbeq	r0, [sl, #-516]	; 0xfffffdfc
    1bf0:	04020027 	streq	r0, [r2], #-39	; 0xffffffd9
    1bf4:	32054b02 	andcc	r4, r5, #2048	; 0x800
    1bf8:	02040200 	andeq	r0, r4, #0, 4
    1bfc:	001c054a 	andseq	r0, ip, sl, asr #10
    1c00:	4a020402 	bmi	82c10 <__bss_end__+0x5ab60>
    1c04:	02002d05 	andeq	r2, r0, #320	; 0x140
    1c08:	054a0204 	strbeq	r0, [sl, #-516]	; 0xfffffdfc
    1c0c:	04020022 	streq	r0, [r2], #-34	; 0xffffffde
    1c10:	1f052e02 	svcne	0x00052e02
    1c14:	02040200 	andeq	r0, r4, #0, 4
    1c18:	052e7803 	streq	r7, [lr, #-2051]!	; 0xfffff7fd
    1c1c:	04020028 	streq	r0, [r2], #-40	; 0xffffffd8
    1c20:	31056602 	tstcc	r5, r2, lsl #12
    1c24:	02040200 	andeq	r0, r4, #0, 4
    1c28:	000d0566 	andeq	r0, sp, r6, ror #10
    1c2c:	66010402 	strvs	r0, [r1], -r2, lsl #8
    1c30:	05660a03 	strbeq	r0, [r6, #-2563]!	; 0xfffff5fd
    1c34:	0b053005 	bleq	14dc50 <__bss_end__+0x125ba0>
    1c38:	4a08052e 	bmi	2030f8 <__bss_end__+0x1db048>
    1c3c:	054b1205 	strbeq	r1, [fp, #-517]	; 0xfffffdfb
    1c40:	1005660b 	andne	r6, r5, fp, lsl #12
    1c44:	2e0e0566 	cfsh32cs	mvfx0, mvfx14, #54
    1c48:	052f1205 	streq	r1, [pc, #-517]!	; 1a4b <errno+0x1a47>
    1c4c:	1005660b 	andne	r6, r5, fp, lsl #12
    1c50:	2e0e0566 	cfsh32cs	mvfx0, mvfx14, #54
    1c54:	052f1205 	streq	r1, [pc, #-517]!	; 1a57 <errno+0x1a53>
    1c58:	1005660b 	andne	r6, r5, fp, lsl #12
    1c5c:	2e0e0566 	cfsh32cs	mvfx0, mvfx14, #54
    1c60:	052f1205 	streq	r1, [pc, #-517]!	; 1a63 <errno+0x1a5f>
    1c64:	1005660b 	andne	r6, r5, fp, lsl #12
    1c68:	2e0e0566 	cfsh32cs	mvfx0, mvfx14, #54
    1c6c:	052f1205 	streq	r1, [pc, #-517]!	; 1a6f <errno+0x1a6b>
    1c70:	1005660b 	andne	r6, r5, fp, lsl #12
    1c74:	2e0e0566 	cfsh32cs	mvfx0, mvfx14, #54
    1c78:	052f1205 	streq	r1, [pc, #-517]!	; 1a7b <errno+0x1a77>
    1c7c:	1005660b 	andne	r6, r5, fp, lsl #12
    1c80:	2e0e0566 	cfsh32cs	mvfx0, mvfx14, #54
    1c84:	052f1205 	streq	r1, [pc, #-517]!	; 1a87 <errno+0x1a83>
    1c88:	1005660b 	andne	r6, r5, fp, lsl #12
    1c8c:	2e0e0566 	cfsh32cs	mvfx0, mvfx14, #54
    1c90:	052f1205 	streq	r1, [pc, #-517]!	; 1a93 <errno+0x1a8f>
    1c94:	1005660b 	andne	r6, r5, fp, lsl #12
    1c98:	2e0e0566 	cfsh32cs	mvfx0, mvfx14, #54
    1c9c:	052f1205 	streq	r1, [pc, #-517]!	; 1a9f <errno+0x1a9b>
    1ca0:	1005660b 	andne	r6, r5, fp, lsl #12
    1ca4:	2e0e0566 	cfsh32cs	mvfx0, mvfx14, #54
    1ca8:	052f1205 	streq	r1, [pc, #-517]!	; 1aab <errno+0x1aa7>
    1cac:	1005660b 	andne	r6, r5, fp, lsl #12
    1cb0:	2e0e0566 	cfsh32cs	mvfx0, mvfx14, #54
    1cb4:	052f1205 	streq	r1, [pc, #-517]!	; 1ab7 <errno+0x1ab3>
    1cb8:	1005660b 	andne	r6, r5, fp, lsl #12
    1cbc:	2e0e0566 	cfsh32cs	mvfx0, mvfx14, #54
    1cc0:	052f1205 	streq	r1, [pc, #-517]!	; 1ac3 <errno+0x1abf>
    1cc4:	1005660b 	andne	r6, r5, fp, lsl #12
    1cc8:	2e0e0566 	cfsh32cs	mvfx0, mvfx14, #54
    1ccc:	052f1205 	streq	r1, [pc, #-517]!	; 1acf <errno+0x1acb>
    1cd0:	1005660b 	andne	r6, r5, fp, lsl #12
    1cd4:	2e0e0566 	cfsh32cs	mvfx0, mvfx14, #54
    1cd8:	052f1205 	streq	r1, [pc, #-517]!	; 1adb <errno+0x1ad7>
    1cdc:	1005660b 	andne	r6, r5, fp, lsl #12
    1ce0:	2e0e0566 	cfsh32cs	mvfx0, mvfx14, #54
    1ce4:	052f1205 	streq	r1, [pc, #-517]!	; 1ae7 <errno+0x1ae3>
    1ce8:	1005660b 	andne	r6, r5, fp, lsl #12
    1cec:	2e0e0566 	cfsh32cs	mvfx0, mvfx14, #54
    1cf0:	052f1205 	streq	r1, [pc, #-517]!	; 1af3 <errno+0x1aef>
    1cf4:	1005660b 	andne	r6, r5, fp, lsl #12
    1cf8:	2e0e0566 	cfsh32cs	mvfx0, mvfx14, #54
    1cfc:	05300b05 	ldreq	r0, [r0, #-2821]!	; 0xfffff4fb
    1d00:	12054a08 	andne	r4, r5, #8, 20	; 0x8000
    1d04:	660b054b 	strvs	r0, [fp], -fp, asr #10
    1d08:	05661005 	strbeq	r1, [r6, #-5]!
    1d0c:	12052e0e 	andne	r2, r5, #14, 28	; 0xe0
    1d10:	660b052f 	strvs	r0, [fp], -pc, lsr #10
    1d14:	05661005 	strbeq	r1, [r6, #-5]!
    1d18:	12052e0e 	andne	r2, r5, #14, 28	; 0xe0
    1d1c:	660b052f 	strvs	r0, [fp], -pc, lsr #10
    1d20:	05661005 	strbeq	r1, [r6, #-5]!
    1d24:	12052e0e 	andne	r2, r5, #14, 28	; 0xe0
    1d28:	660b052f 	strvs	r0, [fp], -pc, lsr #10
    1d2c:	05661005 	strbeq	r1, [r6, #-5]!
    1d30:	12052e0e 	andne	r2, r5, #14, 28	; 0xe0
    1d34:	660b052f 	strvs	r0, [fp], -pc, lsr #10
    1d38:	05661005 	strbeq	r1, [r6, #-5]!
    1d3c:	12052e0e 	andne	r2, r5, #14, 28	; 0xe0
    1d40:	660b052f 	strvs	r0, [fp], -pc, lsr #10
    1d44:	05661005 	strbeq	r1, [r6, #-5]!
    1d48:	12052e0e 	andne	r2, r5, #14, 28	; 0xe0
    1d4c:	660b052f 	strvs	r0, [fp], -pc, lsr #10
    1d50:	05661005 	strbeq	r1, [r6, #-5]!
    1d54:	12052e0e 	andne	r2, r5, #14, 28	; 0xe0
    1d58:	660b052f 	strvs	r0, [fp], -pc, lsr #10
    1d5c:	05661005 	strbeq	r1, [r6, #-5]!
    1d60:	0b052e0e 	bleq	14d5a0 <__bss_end__+0x1254f0>
    1d64:	4a080530 	bmi	20322c <__bss_end__+0x1db17c>
    1d68:	054b1205 	strbeq	r1, [fp, #-517]	; 0xfffffdfb
    1d6c:	1005660b 	andne	r6, r5, fp, lsl #12
    1d70:	2e0e0566 	cfsh32cs	mvfx0, mvfx14, #54
    1d74:	052f1205 	streq	r1, [pc, #-517]!	; 1b77 <errno+0x1b73>
    1d78:	1005660b 	andne	r6, r5, fp, lsl #12
    1d7c:	2e0e0566 	cfsh32cs	mvfx0, mvfx14, #54
    1d80:	052f1205 	streq	r1, [pc, #-517]!	; 1b83 <errno+0x1b7f>
    1d84:	1005660b 	andne	r6, r5, fp, lsl #12
    1d88:	2e0e0566 	cfsh32cs	mvfx0, mvfx14, #54
    1d8c:	052f1205 	streq	r1, [pc, #-517]!	; 1b8f <errno+0x1b8b>
    1d90:	1005660b 	andne	r6, r5, fp, lsl #12
    1d94:	2e0e0566 	cfsh32cs	mvfx0, mvfx14, #54
    1d98:	05300b05 	ldreq	r0, [r0, #-2821]!	; 0xfffff4fb
    1d9c:	12054a08 	andne	r4, r5, #8, 20	; 0x8000
    1da0:	660b054b 	strvs	r0, [fp], -fp, asr #10
    1da4:	05661005 	strbeq	r1, [r6, #-5]!
    1da8:	12052e0e 	andne	r2, r5, #14, 28	; 0xe0
    1dac:	660b052f 	strvs	r0, [fp], -pc, lsr #10
    1db0:	05661005 	strbeq	r1, [r6, #-5]!
    1db4:	0b052e0e 	bleq	14d5f4 <__bss_end__+0x125544>
    1db8:	4a080530 	bmi	203280 <__bss_end__+0x1db1d0>
    1dbc:	054b0e05 	strbeq	r0, [fp, #-3589]	; 0xfffff1fb
    1dc0:	054c4a0c 	strbeq	r4, [ip, #-2572]	; 0xfffff5f4
    1dc4:	08023501 	stmdaeq	r2, {r0, r8, sl, ip, sp}
    1dc8:	8d010100 	stfhis	f0, [r1, #-0]
    1dcc:	03000000 	movweq	r0, #0
    1dd0:	00007200 	andeq	r7, r0, r0, lsl #4
    1dd4:	fb010200 	blx	425de <__bss_end__+0x1a52e>
    1dd8:	01000d0e 	tsteq	r0, lr, lsl #26
    1ddc:	00010101 	andeq	r0, r1, r1, lsl #2
    1de0:	00010000 	andeq	r0, r1, r0
    1de4:	682f0100 	stmdavs	pc!, {r8}	; <UNPREDICTABLE>
    1de8:	2f656d6f 	svccs	0x00656d6f
    1dec:	796e7573 	stmdbvc	lr!, {r0, r1, r4, r5, r6, r8, sl, ip, sp, lr}^
    1df0:	6e6f6476 	mcrvs	4, 3, r6, cr15, cr6, {3}
    1df4:	65732f67 	ldrbvs	r2, [r3, #-3943]!	; 0xfffff099
    1df8:	6d2f346c 	cfstrsvs	mvf3, [pc, #-432]!	; 1c50 <errno+0x1c4c>
    1dfc:	5f696e69 	svcpl	0x00696e69
    1e00:	6c697562 	cfstr64vs	mvdx7, [r9], #-392	; 0xfffffe78
    1e04:	65732f64 	ldrbvs	r2, [r3, #-3940]!	; 0xfffff09c
    1e08:	742d346c 	strtvc	r3, [sp], #-1132	; 0xfffffb94
    1e0c:	726f7475 	rsbvc	r7, pc, #1962934272	; 0x75000000
    1e10:	736c6169 	cmnvc	ip, #1073741850	; 0x4000001a
    1e14:	6e616d2d 	cdpvs	13, 6, cr6, cr1, cr13, {1}
    1e18:	73656669 	cmnvc	r5, #110100480	; 0x6900000
    1e1c:	72702f74 	rsbsvc	r2, r0, #116, 30	; 0x1d0
    1e20:	63656a6f 	cmnvs	r5, #454656	; 0x6f000
    1e24:	732f7374 			; <UNDEFINED> instruction: 0x732f7374
    1e28:	72346c65 	eorsvc	r6, r4, #25856	; 0x6500
    1e2c:	69746e75 	ldmdbvs	r4!, {r0, r2, r4, r5, r6, r9, sl, fp, sp, lr}^
    1e30:	732f656d 			; <UNDEFINED> instruction: 0x732f656d
    1e34:	00006372 	andeq	r6, r0, r2, ror r3
    1e38:	73797376 	cmnvc	r9, #-671088639	; 0xd8000001
    1e3c:	6c6c6163 	stfvse	f6, [ip], #-396	; 0xfffffe74
    1e40:	0100632e 	tsteq	r0, lr, lsr #6
    1e44:	05000000 	streq	r0, [r0, #-0]
    1e48:	02050001 	andeq	r0, r5, #1
    1e4c:	000127d8 	ldrdeq	r2, [r1], -r8
    1e50:	670c051a 	smladvs	ip, sl, r5, r0
    1e54:	022f0105 	eoreq	r0, pc, #1073741825	; 0x40000001
    1e58:	0101000a 	tsteq	r1, sl
    1e5c:	000000a3 	andeq	r0, r0, r3, lsr #1
    1e60:	008b0003 	addeq	r0, fp, r3
    1e64:	01020000 	mrseq	r0, (UNDEF: 2)
    1e68:	000d0efb 	strdeq	r0, [sp], -fp
    1e6c:	01010101 	tsteq	r1, r1, lsl #2
    1e70:	01000000 	mrseq	r0, (UNDEF: 0)
    1e74:	2f010000 	svccs	0x00010000
    1e78:	656d6f68 	strbvs	r6, [sp, #-3944]!	; 0xfffff098
    1e7c:	6e75732f 	cdpvs	3, 7, cr7, cr5, cr15, {1}
    1e80:	6f647679 	svcvs	0x00647679
    1e84:	732f676e 			; <UNDEFINED> instruction: 0x732f676e
    1e88:	2f346c65 	svccs	0x00346c65
    1e8c:	696e696d 	stmdbvs	lr!, {r0, r2, r3, r5, r6, r8, fp, sp, lr}^
    1e90:	6975625f 	ldmdbvs	r5!, {r0, r1, r2, r3, r4, r6, r9, sp, lr}^
    1e94:	732f646c 			; <UNDEFINED> instruction: 0x732f646c
    1e98:	2d346c65 	ldccs	12, cr6, [r4, #-404]!	; 0xfffffe6c
    1e9c:	6f747574 	svcvs	0x00747574
    1ea0:	6c616972 			; <UNDEFINED> instruction: 0x6c616972
    1ea4:	616d2d73 	smcvs	53971	; 0xd2d3
    1ea8:	6566696e 	strbvs	r6, [r6, #-2414]!	; 0xfffff692
    1eac:	702f7473 	eorvc	r7, pc, r3, ror r4	; <UNPREDICTABLE>
    1eb0:	656a6f72 	strbvs	r6, [sl, #-3954]!	; 0xfffff08e
    1eb4:	2f737463 	svccs	0x00737463
    1eb8:	346c6573 	strbtcc	r6, [ip], #-1395	; 0xfffffa8d
    1ebc:	746e7572 	strbtvc	r7, [lr], #-1394	; 0xfffffa8e
    1ec0:	2f656d69 	svccs	0x00656d69
    1ec4:	2f637273 	svccs	0x00637273
    1ec8:	346c6573 	strbtcc	r6, [ip], #-1395	; 0xfffffa8d
    1ecc:	6372615f 	cmnvs	r2, #-1073741801	; 0xc0000017
    1ed0:	61612f68 	cmnvs	r1, r8, ror #30
    1ed4:	33686372 	cmncc	r8, #-939524095	; 0xc8000001
    1ed8:	5f000032 	svcpl	0x00000032
    1edc:	6165615f 	cmnvs	r5, pc, asr r1
    1ee0:	725f6962 	subsvc	r6, pc, #1605632	; 0x188000
    1ee4:	5f646165 	svcpl	0x00646165
    1ee8:	532e7074 			; <UNDEFINED> instruction: 0x532e7074
    1eec:	00000100 	andeq	r0, r0, r0, lsl #2
    1ef0:	02050000 	andeq	r0, r5, #0
    1ef4:	000127fc 	strdeq	r2, [r1], -ip
    1ef8:	2f012603 	svccs	0x00012603
    1efc:	02022f2f 	andeq	r2, r2, #47, 30	; 0xbc
    1f00:	74010100 	strvc	r0, [r1], #-256	; 0xffffff00
    1f04:	03000002 	movweq	r0, #2
    1f08:	00024000 	andeq	r4, r2, r0
    1f0c:	fb010200 	blx	42716 <__bss_end__+0x1a666>
    1f10:	01000d0e 	tsteq	r0, lr, lsl #26
    1f14:	00010101 	andeq	r0, r1, r1, lsl #2
    1f18:	00010000 	andeq	r0, r1, r0
    1f1c:	682f0100 	stmdavs	pc!, {r8}	; <UNPREDICTABLE>
    1f20:	2f656d6f 	svccs	0x00656d6f
    1f24:	796e7573 	stmdbvc	lr!, {r0, r1, r4, r5, r6, r8, sl, ip, sp, lr}^
    1f28:	6e6f6476 	mcrvs	4, 3, r6, cr15, cr6, {3}
    1f2c:	65732f67 	ldrbvs	r2, [r3, #-3943]!	; 0xfffff099
    1f30:	6d2f346c 	cfstrsvs	mvf3, [pc, #-432]!	; 1d88 <errno+0x1d84>
    1f34:	5f696e69 	svcpl	0x00696e69
    1f38:	6c697562 	cfstr64vs	mvdx7, [r9], #-392	; 0xfffffe78
    1f3c:	65732f64 	ldrbvs	r2, [r3, #-3940]!	; 0xfffff09c
    1f40:	742d346c 	strtvc	r3, [sp], #-1132	; 0xfffffb94
    1f44:	726f7475 	rsbvc	r7, pc, #1962934272	; 0x75000000
    1f48:	736c6169 	cmnvc	ip, #1073741850	; 0x4000001a
    1f4c:	6e616d2d 	cdpvs	13, 6, cr6, cr1, cr13, {1}
    1f50:	73656669 	cmnvc	r5, #110100480	; 0x6900000
    1f54:	72702f74 	rsbsvc	r2, r0, #116, 30	; 0x1d0
    1f58:	63656a6f 	cmnvs	r5, #454656	; 0x6f000
    1f5c:	732f7374 			; <UNDEFINED> instruction: 0x732f7374
    1f60:	72346c65 	eorsvc	r6, r4, #25856	; 0x6500
    1f64:	69746e75 	ldmdbvs	r4!, {r0, r2, r4, r5, r6, r9, sl, fp, sp, lr}^
    1f68:	692f656d 	stmdbvs	pc!, {r0, r2, r3, r5, r6, r8, sl, sp, lr}	; <UNPREDICTABLE>
    1f6c:	756c636e 	strbvc	r6, [ip, #-878]!	; 0xfffffc92
    1f70:	732f6564 			; <UNDEFINED> instruction: 0x732f6564
    1f74:	5f346c65 	svcpl	0x00346c65
    1f78:	68637261 	stmdavs	r3!, {r0, r5, r6, r9, ip, sp, lr}^
    1f7c:	7261612f 	rsbvc	r6, r1, #-1073741813	; 0xc000000b
    1f80:	32336863 	eorscc	r6, r3, #6488064	; 0x630000
    1f84:	6c65732f 	stclvs	3, cr7, [r5], #-188	; 0xffffff44
    1f88:	6e757234 	mrcvs	2, 3, r7, cr5, cr4, {1}
    1f8c:	656d6974 	strbvs	r6, [sp, #-2420]!	; 0xfffff68c
    1f90:	6f682f00 	svcvs	0x00682f00
    1f94:	732f656d 			; <UNDEFINED> instruction: 0x732f656d
    1f98:	76796e75 			; <UNDEFINED> instruction: 0x76796e75
    1f9c:	676e6f64 	strbvs	r6, [lr, -r4, ror #30]!
    1fa0:	6c65732f 	stclvs	3, cr7, [r5], #-188	; 0xffffff44
    1fa4:	696d2f34 	stmdbvs	sp!, {r2, r4, r5, r8, r9, sl, fp, sp}^
    1fa8:	625f696e 	subsvs	r6, pc, #1802240	; 0x1b8000
    1fac:	646c6975 	strbtvs	r6, [ip], #-2421	; 0xfffff68b
    1fb0:	6c65732f 	stclvs	3, cr7, [r5], #-188	; 0xffffff44
    1fb4:	75742d34 	ldrbvc	r2, [r4, #-3380]!	; 0xfffff2cc
    1fb8:	69726f74 	ldmdbvs	r2!, {r2, r4, r5, r6, r8, r9, sl, fp, sp, lr}^
    1fbc:	2d736c61 	ldclcs	12, cr6, [r3, #-388]!	; 0xfffffe7c
    1fc0:	696e616d 	stmdbvs	lr!, {r0, r2, r3, r5, r6, r8, sp, lr}^
    1fc4:	74736566 	ldrbtvc	r6, [r3], #-1382	; 0xfffffa9a
    1fc8:	6f72702f 	svcvs	0x0072702f
    1fcc:	7463656a 	strbtvc	r6, [r3], #-1386	; 0xfffffa96
    1fd0:	65732f73 	ldrbvs	r2, [r3, #-3955]!	; 0xfffff08d
    1fd4:	7572346c 	ldrbvc	r3, [r2, #-1132]!	; 0xfffffb94
    1fd8:	6d69746e 	cfstrdvs	mvd7, [r9, #-440]!	; 0xfffffe48
    1fdc:	72732f65 	rsbsvc	r2, r3, #404	; 0x194
    1fe0:	65732f63 	ldrbvs	r2, [r3, #-3939]!	; 0xfffff09d
    1fe4:	615f346c 	cmpvs	pc, ip, ror #8
    1fe8:	2f686372 	svccs	0x00686372
    1fec:	63726161 	cmnvs	r2, #1073741848	; 0x40000018
    1ff0:	00323368 	eorseq	r3, r2, r8, ror #6
    1ff4:	6d6f682f 	stclvs	8, cr6, [pc, #-188]!	; 1f40 <errno+0x1f3c>
    1ff8:	75732f65 	ldrbvc	r2, [r3, #-3941]!	; 0xfffff09b
    1ffc:	6476796e 	ldrbtvs	r7, [r6], #-2414	; 0xfffff692
    2000:	2f676e6f 	svccs	0x00676e6f
    2004:	346c6573 	strbtcc	r6, [ip], #-1395	; 0xfffffa8d
    2008:	6e696d2f 	cdpvs	13, 6, cr6, cr9, cr15, {1}
    200c:	75625f69 	strbvc	r5, [r2, #-3945]!	; 0xfffff097
    2010:	2f646c69 	svccs	0x00646c69
    2014:	346c6573 	strbtcc	r6, [ip], #-1395	; 0xfffffa8d
    2018:	7475742d 	ldrbtvc	r7, [r5], #-1069	; 0xfffffbd3
    201c:	6169726f 	cmnvs	r9, pc, ror #4
    2020:	6d2d736c 	stcvs	3, cr7, [sp, #-432]!	; 0xfffffe50
    2024:	66696e61 	strbtvs	r6, [r9], -r1, ror #28
    2028:	2f747365 	svccs	0x00747365
    202c:	6e72656b 	cdpvs	5, 7, cr6, cr2, cr11, {3}
    2030:	6c2f6c65 	stcvs	12, cr6, [pc], #-404	; 1ea4 <errno+0x1ea0>
    2034:	65736269 	ldrbvs	r6, [r3, #-617]!	; 0xfffffd97
    2038:	692f346c 	stmdbvs	pc!, {r2, r3, r5, r6, sl, ip, sp}	; <UNPREDICTABLE>
    203c:	756c636e 	strbvc	r6, [ip, #-878]!	; 0xfffffc92
    2040:	732f6564 			; <UNDEFINED> instruction: 0x732f6564
    2044:	00346c65 	eorseq	r6, r4, r5, ror #24
    2048:	7362696c 	cmnvc	r2, #108, 18	; 0x1b0000
    204c:	2f346c65 	svccs	0x00346c65
    2050:	6c636e69 	stclvs	14, cr6, [r3], #-420	; 0xfffffe5c
    2054:	2f656475 	svccs	0x00656475
    2058:	346c6573 	strbtcc	r6, [ip], #-1395	; 0xfffffa8d
    205c:	6f682f00 	svcvs	0x00682f00
    2060:	732f656d 			; <UNDEFINED> instruction: 0x732f656d
    2064:	76796e75 			; <UNDEFINED> instruction: 0x76796e75
    2068:	676e6f64 	strbvs	r6, [lr, -r4, ror #30]!
    206c:	6c65732f 	stclvs	3, cr7, [r5], #-188	; 0xffffff44
    2070:	696d2f34 	stmdbvs	sp!, {r2, r4, r5, r8, r9, sl, fp, sp}^
    2074:	625f696e 	subsvs	r6, pc, #1802240	; 0x1b8000
    2078:	646c6975 	strbtvs	r6, [ip], #-2421	; 0xfffff68b
    207c:	6c65732f 	stclvs	3, cr7, [r5], #-188	; 0xffffff44
    2080:	75742d34 	ldrbvc	r2, [r4, #-3380]!	; 0xfffff2cc
    2084:	69726f74 	ldmdbvs	r2!, {r2, r4, r5, r6, r8, r9, sl, fp, sp, lr}^
    2088:	2d736c61 	ldclcs	12, cr6, [r3, #-388]!	; 0xfffffe7c
    208c:	696e616d 	stmdbvs	lr!, {r0, r2, r3, r5, r6, r8, sp, lr}^
    2090:	74736566 	ldrbtvc	r6, [r3], #-1382	; 0xfffffa9a
    2094:	6f72702f 	svcvs	0x0072702f
    2098:	7463656a 	strbtvc	r6, [r3], #-1386	; 0xfffffa96
    209c:	65732f73 	ldrbvs	r2, [r3, #-3955]!	; 0xfffff08d
    20a0:	7572346c 	ldrbvc	r3, [r2, #-1132]!	; 0xfffffb94
    20a4:	6d69746e 	cfstrdvs	mvd7, [r9, #-440]!	; 0xfffffe48
    20a8:	6e692f65 	cdpvs	15, 6, cr2, cr9, cr5, {3}
    20ac:	64756c63 	ldrbtvs	r6, [r5], #-3171	; 0xfffff39d
    20b0:	65732f65 	ldrbvs	r2, [r3, #-3941]!	; 0xfffff09b
    20b4:	7572346c 	ldrbvc	r3, [r2, #-1132]!	; 0xfffffb94
    20b8:	6d69746e 	cfstrdvs	mvd7, [r9, #-440]!	; 0xfffffe48
    20bc:	74000065 	strvc	r0, [r0], #-101	; 0xffffff9b
    20c0:	61657268 	cmnvs	r5, r8, ror #4
    20c4:	72615f64 	rsbvc	r5, r1, #100, 30	; 0x190
    20c8:	682e6863 	stmdavs	lr!, {r0, r1, r5, r6, fp, sp, lr}
    20cc:	00000100 	andeq	r0, r0, r0, lsl #2
    20d0:	65615f5f 	strbvs	r5, [r1, #-3935]!	; 0xfffff0a1
    20d4:	5f696261 	svcpl	0x00696261
    20d8:	64616572 	strbtvs	r6, [r1], #-1394	; 0xfffffa8e
    20dc:	5f70745f 	svcpl	0x0070745f
    20e0:	00632e63 	rsbeq	r2, r3, r3, ror #28
    20e4:	73000002 	movwvc	r0, #2
    20e8:	6c706d69 	ldclvs	13, cr6, [r0], #-420	; 0xfffffe5c
    20ec:	79745f65 	ldmdbvc	r4!, {r0, r2, r5, r6, r8, r9, sl, fp, ip, lr}^
    20f0:	2e736570 	mrccs	5, 3, r6, cr3, cr0, {3}
    20f4:	00030068 	andeq	r0, r3, r8, rrx
    20f8:	6a626f00 	bvs	189dd00 <__bss_end__+0x1875c50>
    20fc:	74746365 	ldrbtvc	r6, [r4], #-869	; 0xfffffc9b
    2100:	2e657079 	mcrcs	0, 3, r7, cr5, cr9, {3}
    2104:	00030068 	andeq	r0, r3, r8, rrx
    2108:	61687300 	cmnvs	r8, r0, lsl #6
    210c:	5f646572 	svcpl	0x00646572
    2110:	65707974 	ldrbvs	r7, [r0, #-2420]!	; 0xfffff68c
    2114:	65675f73 	strbvs	r5, [r7, #-3955]!	; 0xfffff08d
    2118:	00682e6e 	rsbeq	r2, r8, lr, ror #28
    211c:	73000004 	movwvc	r0, #4
    2120:	65726168 	ldrbvs	r6, [r2, #-360]!	; 0xfffffe98
    2124:	79745f64 	ldmdbvc	r4!, {r2, r5, r6, r8, r9, sl, fp, ip, lr}^
    2128:	2e736570 	mrccs	5, 3, r6, cr3, cr0, {3}
    212c:	00030068 	andeq	r0, r3, r8, rrx
    2130:	64747300 	ldrbtvs	r7, [r4], #-768	; 0xfffffd00
    2134:	2e746e69 	cdpcs	14, 7, cr6, cr4, cr9, {3}
    2138:	00050068 	andeq	r0, r5, r8, rrx
    213c:	6e756600 	cdpvs	6, 7, cr6, cr5, cr0, {0}
    2140:	6f697463 	svcvs	0x00697463
    2144:	682e736e 	stmdavs	lr!, {r1, r2, r3, r5, r6, r8, r9, ip, sp, lr}
    2148:	00000300 	andeq	r0, r0, r0, lsl #6
    214c:	00010500 	andeq	r0, r1, r0, lsl #10
    2150:	280c0205 	stmdacs	ip, {r0, r2, r9}
    2154:	0e030001 	cdpeq	0, 0, cr0, cr3, cr1, {0}
    2158:	68050501 	stmdavs	r5, {r0, r8, sl}
    215c:	054b0c05 	strbeq	r0, [fp, #-3077]	; 0xfffff3fb
    2160:	1e032f01 	cdpne	15, 0, cr2, cr3, cr1, {0}
    2164:	4b0c0582 	blmi	303774 <__bss_end__+0x2db6c4>
    2168:	044b0105 	strbeq	r0, [fp], #-261	; 0xfffffefb
    216c:	4a580302 	bmi	1602d7c <__bss_end__+0x15daccc>
    2170:	054b1405 	strbeq	r1, [fp, #-1029]	; 0xfffffbfb
    2174:	04024b01 	streq	r4, [r2], #-2817	; 0xfffff4ff
    2178:	ba010100 	blt	42580 <__bss_end__+0x1a4d0>
    217c:	03000001 	movweq	r0, #1
    2180:	00019c00 	andeq	r9, r1, r0, lsl #24
    2184:	fb010200 	blx	4298e <__bss_end__+0x1a8de>
    2188:	01000d0e 	tsteq	r0, lr, lsl #26
    218c:	00010101 	andeq	r0, r1, r1, lsl #2
    2190:	00010000 	andeq	r0, r1, r0
    2194:	682f0100 	stmdavs	pc!, {r8}	; <UNPREDICTABLE>
    2198:	2f656d6f 	svccs	0x00656d6f
    219c:	796e7573 	stmdbvc	lr!, {r0, r1, r4, r5, r6, r8, sl, ip, sp, lr}^
    21a0:	6e6f6476 	mcrvs	4, 3, r6, cr15, cr6, {3}
    21a4:	65732f67 	ldrbvs	r2, [r3, #-3943]!	; 0xfffff099
    21a8:	6d2f346c 	cfstrsvs	mvf3, [pc, #-432]!	; 2000 <errno+0x1ffc>
    21ac:	5f696e69 	svcpl	0x00696e69
    21b0:	6c697562 	cfstr64vs	mvdx7, [r9], #-392	; 0xfffffe78
    21b4:	65732f64 	ldrbvs	r2, [r3, #-3940]!	; 0xfffff09c
    21b8:	742d346c 	strtvc	r3, [sp], #-1132	; 0xfffffb94
    21bc:	726f7475 	rsbvc	r7, pc, #1962934272	; 0x75000000
    21c0:	736c6169 	cmnvc	ip, #1073741850	; 0x4000001a
    21c4:	6e616d2d 	cdpvs	13, 6, cr6, cr1, cr13, {1}
    21c8:	73656669 	cmnvc	r5, #110100480	; 0x6900000
    21cc:	72702f74 	rsbsvc	r2, r0, #116, 30	; 0x1d0
    21d0:	63656a6f 	cmnvs	r5, #454656	; 0x6f000
    21d4:	732f7374 			; <UNDEFINED> instruction: 0x732f7374
    21d8:	72346c65 	eorsvc	r6, r4, #25856	; 0x6500
    21dc:	69746e75 	ldmdbvs	r4!, {r0, r2, r4, r5, r6, r9, sl, fp, sp, lr}^
    21e0:	732f656d 			; <UNDEFINED> instruction: 0x732f656d
    21e4:	2f006372 	svccs	0x00006372
    21e8:	656d6f68 	strbvs	r6, [sp, #-3944]!	; 0xfffff098
    21ec:	6e75732f 	cdpvs	3, 7, cr7, cr5, cr15, {1}
    21f0:	6f647679 	svcvs	0x00647679
    21f4:	732f676e 			; <UNDEFINED> instruction: 0x732f676e
    21f8:	2f346c65 	svccs	0x00346c65
    21fc:	696e696d 	stmdbvs	lr!, {r0, r2, r3, r5, r6, r8, fp, sp, lr}^
    2200:	6975625f 	ldmdbvs	r5!, {r0, r1, r2, r3, r4, r6, r9, sp, lr}^
    2204:	732f646c 			; <UNDEFINED> instruction: 0x732f646c
    2208:	2d346c65 	ldccs	12, cr6, [r4, #-404]!	; 0xfffffe6c
    220c:	6f747574 	svcvs	0x00747574
    2210:	6c616972 			; <UNDEFINED> instruction: 0x6c616972
    2214:	616d2d73 	smcvs	53971	; 0xd2d3
    2218:	6566696e 	strbvs	r6, [r6, #-2414]!	; 0xfffff692
    221c:	6b2f7473 	blvs	bdf3f0 <__bss_end__+0xbb7340>
    2220:	656e7265 	strbvs	r7, [lr, #-613]!	; 0xfffffd9b
    2224:	696c2f6c 	stmdbvs	ip!, {r2, r3, r5, r6, r8, r9, sl, fp, sp}^
    2228:	6c657362 	stclvs	3, cr7, [r5], #-392	; 0xfffffe78
    222c:	6e692f34 	mcrvs	15, 3, r2, cr9, cr4, {1}
    2230:	64756c63 	ldrbtvs	r6, [r5], #-3171	; 0xfffff39d
    2234:	65732f65 	ldrbvs	r2, [r3, #-3941]!	; 0xfffff09b
    2238:	6c00346c 	cfstrsvs	mvf3, [r0], {108}	; 0x6c
    223c:	65736269 	ldrbvs	r6, [r3, #-617]!	; 0xfffffd97
    2240:	692f346c 	stmdbvs	pc!, {r2, r3, r5, r6, sl, ip, sp}	; <UNPREDICTABLE>
    2244:	756c636e 	strbvc	r6, [ip, #-878]!	; 0xfffffc92
    2248:	732f6564 			; <UNDEFINED> instruction: 0x732f6564
    224c:	00346c65 	eorseq	r6, r4, r5, ror #24
    2250:	6d6f682f 	stclvs	8, cr6, [pc, #-188]!	; 219c <errno+0x2198>
    2254:	75732f65 	ldrbvc	r2, [r3, #-3941]!	; 0xfffff09b
    2258:	6476796e 	ldrbtvs	r7, [r6], #-2414	; 0xfffff692
    225c:	2f676e6f 	svccs	0x00676e6f
    2260:	346c6573 	strbtcc	r6, [ip], #-1395	; 0xfffffa8d
    2264:	6e696d2f 	cdpvs	13, 6, cr6, cr9, cr15, {1}
    2268:	75625f69 	strbvc	r5, [r2, #-3945]!	; 0xfffff097
    226c:	2f646c69 	svccs	0x00646c69
    2270:	346c6573 	strbtcc	r6, [ip], #-1395	; 0xfffffa8d
    2274:	7475742d 	ldrbtvc	r7, [r5], #-1069	; 0xfffffbd3
    2278:	6169726f 	cmnvs	r9, pc, ror #4
    227c:	6d2d736c 	stcvs	3, cr7, [sp, #-432]!	; 0xfffffe50
    2280:	66696e61 	strbtvs	r6, [r9], -r1, ror #28
    2284:	2f747365 	svccs	0x00747365
    2288:	6a6f7270 	bvs	1bdec50 <__bss_end__+0x1bb6ba0>
    228c:	73746365 	cmnvc	r4, #-1811939327	; 0x94000001
    2290:	6c65732f 	stclvs	3, cr7, [r5], #-188	; 0xffffff44
    2294:	6e757234 	mrcvs	2, 3, r7, cr5, cr4, {1}
    2298:	656d6974 	strbvs	r6, [sp, #-2420]!	; 0xfffff68c
    229c:	636e692f 	cmnvs	lr, #770048	; 0xbc000
    22a0:	6564756c 	strbvs	r7, [r4, #-1388]!	; 0xfffffa94
    22a4:	6c65732f 	stclvs	3, cr7, [r5], #-188	; 0xffffff44
    22a8:	6e757234 	mrcvs	2, 3, r7, cr5, cr4, {1}
    22ac:	656d6974 	strbvs	r6, [sp, #-2420]!	; 0xfffff68c
    22b0:	74730000 	ldrbtvc	r0, [r3], #-0
    22b4:	2e747261 	cdpcs	2, 7, cr7, cr4, cr1, {3}
    22b8:	00010063 	andeq	r0, r1, r3, rrx
    22bc:	6d697300 	stclvs	3, cr7, [r9, #-0]
    22c0:	5f656c70 	svcpl	0x00656c70
    22c4:	65707974 	ldrbvs	r7, [r0, #-2420]!	; 0xfffff68c
    22c8:	00682e73 	rsbeq	r2, r8, r3, ror lr
    22cc:	6f000002 	svcvs	0x00000002
    22d0:	63656a62 	cmnvs	r5, #401408	; 0x62000
    22d4:	70797474 	rsbsvc	r7, r9, r4, ror r4
    22d8:	00682e65 	rsbeq	r2, r8, r5, ror #28
    22dc:	73000002 	movwvc	r0, #2
    22e0:	65726168 	ldrbvs	r6, [r2, #-360]!	; 0xfffffe98
    22e4:	79745f64 	ldmdbvc	r4!, {r2, r5, r6, r8, r9, sl, fp, ip, lr}^
    22e8:	5f736570 	svcpl	0x00736570
    22ec:	2e6e6567 	cdpcs	5, 6, cr6, cr14, cr7, {3}
    22f0:	00030068 	andeq	r0, r3, r8, rrx
    22f4:	61687300 	cmnvs	r8, r0, lsl #6
    22f8:	5f646572 	svcpl	0x00646572
    22fc:	65707974 	ldrbvs	r7, [r0, #-2420]!	; 0xfffff68c
    2300:	00682e73 	rsbeq	r2, r8, r3, ror lr
    2304:	61000002 	tstvs	r0, r2
    2308:	2e767875 	mrccs	8, 3, r7, cr6, cr5, {3}
    230c:	00040068 	andeq	r0, r4, r8, rrx
    2310:	6e756600 	cdpvs	6, 7, cr6, cr5, cr0, {0}
    2314:	6f697463 	svcvs	0x00697463
    2318:	682e736e 	stmdavs	lr!, {r1, r2, r3, r5, r6, r8, r9, ip, sp, lr}
    231c:	00000200 	andeq	r0, r0, r0, lsl #4
    2320:	00010500 	andeq	r0, r1, r0, lsl #10
    2324:	28640205 	stmdacs	r4!, {r0, r2, r9}^
    2328:	10030001 	andne	r0, r3, r1
    232c:	d7050501 	strle	r0, [r5, -r1, lsl #10]
    2330:	f30105a0 	vrshl.u8	d0, d16, d17
    2334:	01000602 	tsteq	r0, r2, lsl #12
    2338:	Address 0x0000000000002338 is out of bounds.


Disassembly of section .debug_frame:

00000000 <.debug_frame>:
{
   0:	0000000c 	andeq	r0, r0, ip
   4:	ffffffff 			; <UNDEFINED> instruction: 0xffffffff
   8:	7c020001 	stcvc	0, cr0, [r2], {1}
   c:	000d0c0e 	andeq	r0, sp, lr, lsl #24
    bootinfo = bi;
  10:	0000001c 	andeq	r0, r0, ip, lsl r0
  14:	00000000 	andeq	r0, r0, r0
  18:	00010118 	andeq	r0, r1, r8, lsl r1
  1c:	00000128 	andeq	r0, r0, r8, lsr #2
}
  20:	8b080e42 	blhi	203930 <__bss_end__+0x1db880>
  24:	42018e02 	andmi	r8, r1, #2, 28
  28:	02040b0c 	andeq	r0, r4, #12, 22	; 0x3000
  2c:	080d0c8e 	stmdaeq	sp, {r1, r2, r3, r7, sl, fp}
{
  30:	0000001c 	andeq	r0, r0, ip, lsl r0
  34:	00000000 	andeq	r0, r0, r0
    return bootinfo;
  38:	00010240 	andeq	r0, r1, r0, asr #4
  3c:	00000128 	andeq	r0, r0, r8, lsr #2
  40:	8b080e42 	blhi	203950 <__bss_end__+0x1db8a0>
}
  44:	42018e02 	andmi	r8, r1, #2, 28
  48:	02040b0c 	andeq	r0, r4, #12, 22	; 0x3000
  4c:	080d0c8e 	stmdaeq	sp, {r1, r2, r3, r7, sl, fp}
  50:	0000001c 	andeq	r0, r0, ip, lsl r0
  54:	00000000 	andeq	r0, r0, r0
  58:	00010368 	andeq	r0, r1, r8, ror #6
  5c:	00000030 	andeq	r0, r0, r0, lsr r0
  60:	8b040e42 	blhi	103970 <__bss_end__+0xdb8c0>
  64:	0b0d4201 	bleq	350870 <__bss_end__+0x3287c0>
  68:	420d0d50 	andmi	r0, sp, #80, 26	; 0x1400
  6c:	00000ecb 	andeq	r0, r0, fp, asr #29
  70:	0000001c 	andeq	r0, r0, ip, lsl r0
  74:	00000000 	andeq	r0, r0, r0
  78:	00010398 	muleq	r1, r8, r3
  7c:	00000030 	andeq	r0, r0, r0, lsr r0
  80:	8b040e42 	blhi	103990 <__bss_end__+0xdb8e0>
  84:	0b0d4201 	bleq	350890 <__bss_end__+0x3287e0>
  88:	420d0d50 	andmi	r0, sp, #80, 26	; 0x1400
  8c:	00000ecb 	andeq	r0, r0, fp, asr #29
  90:	00000018 	andeq	r0, r0, r8, lsl r0
  94:	00000000 	andeq	r0, r0, r0
  98:	000103c8 	andeq	r0, r1, r8, asr #7
  9c:	00000024 	andeq	r0, r0, r4, lsr #32
  a0:	8b080e42 	blhi	2039b0 <__bss_end__+0x1db900>
  a4:	42018e02 	andmi	r8, r1, #2, 28
  a8:	00040b0c 	andeq	r0, r4, ip, lsl #22
  ac:	0000001c 	andeq	r0, r0, ip, lsl r0
  b0:	00000000 	andeq	r0, r0, r0
  b4:	000103ec 	andeq	r0, r1, ip, ror #7
  b8:	0000003c 	andeq	r0, r0, ip, lsr r0
  bc:	8b080e42 	blhi	2039cc <__bss_end__+0x1db91c>
  c0:	42018e02 	andmi	r8, r1, #2, 28
  c4:	58040b0c 	stmdapl	r4, {r2, r3, r8, r9, fp}
  c8:	00080d0c 	andeq	r0, r8, ip, lsl #26
  cc:	0000001c 	andeq	r0, r0, ip, lsl r0
  d0:	00000000 	andeq	r0, r0, r0
  d4:	00010428 	andeq	r0, r1, r8, lsr #8
  d8:	00000038 	andeq	r0, r0, r8, lsr r0
  dc:	8b080e42 	blhi	2039ec <__bss_end__+0x1db93c>
  e0:	42018e02 	andmi	r8, r1, #2, 28
  e4:	56040b0c 	strpl	r0, [r4], -ip, lsl #22
  e8:	00080d0c 	andeq	r0, r8, ip, lsl #26
  ec:	00000028 	andeq	r0, r0, r8, lsr #32
  f0:	00000000 	andeq	r0, r0, r0
  f4:	00010460 	andeq	r0, r1, r0, ror #8
  f8:	000000ac 	andeq	r0, r0, ip, lsr #1
  fc:	84100e42 	ldrhi	r0, [r0], #-3650	; 0xfffff1be
 100:	87038504 	strhi	r8, [r3, -r4, lsl #10]
 104:	42018b02 	andmi	r8, r1, #2048	; 0x800
 108:	02040b0c 	andeq	r0, r4, #12, 22	; 0x3000
 10c:	100d0c4e 	andne	r0, sp, lr, asr #24
 110:	c5c7cb42 	strbgt	ip, [r7, #2882]	; 0xb42
 114:	00000ec4 	andeq	r0, r0, r4, asr #29
 118:	0000001c 	andeq	r0, r0, ip, lsl r0
 11c:	00000000 	andeq	r0, r0, r0
 120:	0001050c 	andeq	r0, r1, ip, lsl #10
 124:	000001a4 	andeq	r0, r0, r4, lsr #3
 128:	8b080e42 	blhi	203a38 <__bss_end__+0x1db988>
 12c:	42018e02 	andmi	r8, r1, #2, 28
 130:	02040b0c 	andeq	r0, r4, #12, 22	; 0x3000
 134:	080d0ccc 	stmdaeq	sp, {r2, r3, r6, r7, sl, fp}
 138:	0000001c 	andeq	r0, r0, ip, lsl r0
 13c:	00000000 	andeq	r0, r0, r0
 140:	000106b0 			; <UNDEFINED> instruction: 0x000106b0
 144:	00000110 	andeq	r0, r0, r0, lsl r1
 148:	8b080e42 	blhi	203a58 <__bss_end__+0x1db9a8>
 14c:	42018e02 	andmi	r8, r1, #2, 28
 150:	02040b0c 	andeq	r0, r4, #12, 22	; 0x3000
 154:	080d0c82 	stmdaeq	sp, {r1, r7, sl, fp}
 158:	00000018 	andeq	r0, r0, r8, lsl r0
 15c:	00000000 	andeq	r0, r0, r0
 160:	000107c0 	andeq	r0, r1, r0, asr #15
 164:	00000070 	andeq	r0, r0, r0, ror r0
 168:	8b080e42 	blhi	203a78 <__bss_end__+0x1db9c8>
 16c:	42018e02 	andmi	r8, r1, #2, 28
 170:	00040b0c 	andeq	r0, r4, ip, lsl #22
 174:	0000000c 	andeq	r0, r0, ip
 178:	ffffffff 			; <UNDEFINED> instruction: 0xffffffff
 17c:	7c020001 	stcvc	0, cr0, [r2], {1}
 180:	000d0c0e 	andeq	r0, sp, lr, lsl #24
 184:	0000001c 	andeq	r0, r0, ip, lsl r0
 188:	00000174 	andeq	r0, r0, r4, ror r1
 18c:	00000000 	andeq	r0, r0, r0
 190:	00000030 	andeq	r0, r0, r0, lsr r0
 194:	8b040e42 	blhi	103aa4 <__bss_end__+0xdb9f4>
 198:	0b0d4201 	bleq	3509a4 <__bss_end__+0x3288f4>
 19c:	420d0d50 	andmi	r0, sp, #80, 26	; 0x1400
 1a0:	00000ecb 	andeq	r0, r0, fp, asr #29
 1a4:	0000001c 	andeq	r0, r0, ip, lsl r0
 1a8:	00000174 	andeq	r0, r0, r4, ror r1
 1ac:	00000000 	andeq	r0, r0, r0
 1b0:	00000024 	andeq	r0, r0, r4, lsr #32
 1b4:	8b040e42 	blhi	103ac4 <__bss_end__+0xdba14>
 1b8:	0b0d4201 	bleq	3509c4 <__bss_end__+0x328914>
 1bc:	420d0d4a 	andmi	r0, sp, #4736	; 0x1280
 1c0:	00000ecb 	andeq	r0, r0, fp, asr #29
 1c4:	0000000c 	andeq	r0, r0, ip
 1c8:	ffffffff 			; <UNDEFINED> instruction: 0xffffffff
 1cc:	7c020001 	stcvc	0, cr0, [r2], {1}
 1d0:	000d0c0e 	andeq	r0, sp, lr, lsl #24
 1d4:	0000001c 	andeq	r0, r0, ip, lsl r0
 1d8:	000001c4 	andeq	r0, r0, r4, asr #3
 1dc:	00010840 	andeq	r0, r1, r0, asr #16
 1e0:	0000017c 	andeq	r0, r0, ip, ror r1
 1e4:	8b080e42 	blhi	203af4 <__bss_end__+0x1dba44>
 1e8:	42018e02 	andmi	r8, r1, #2, 28
 1ec:	02040b0c 	andeq	r0, r4, #12, 22	; 0x3000
 1f0:	080d0cb8 	stmdaeq	sp, {r3, r4, r5, r7, sl, fp}
 1f4:	0000000c 	andeq	r0, r0, ip
 1f8:	ffffffff 			; <UNDEFINED> instruction: 0xffffffff
 1fc:	7c020001 	stcvc	0, cr0, [r2], {1}
 200:	000d0c0e 	andeq	r0, sp, lr, lsl #24
 204:	00000018 	andeq	r0, r0, r8, lsl r0
 208:	000001f4 	strdeq	r0, [r0], -r4
 20c:	000109bc 			; <UNDEFINED> instruction: 0x000109bc
 210:	00000024 	andeq	r0, r0, r4, lsr #32
 214:	8b080e42 	blhi	203b24 <__bss_end__+0x1dba74>
 218:	42018e02 	andmi	r8, r1, #2, 28
 21c:	00040b0c 	andeq	r0, r4, ip, lsl #22
 220:	00000028 	andeq	r0, r0, r8, lsr #32
 224:	000001f4 	strdeq	r0, [r0], -r4
 228:	000109e0 	andeq	r0, r1, r0, ror #19
 22c:	000000ac 	andeq	r0, r0, ip, lsr #1
 230:	84100e42 	ldrhi	r0, [r0], #-3650	; 0xfffff1be
 234:	87038504 	strhi	r8, [r3, -r4, lsl #10]
 238:	42018b02 	andmi	r8, r1, #2048	; 0x800
 23c:	02040b0c 	andeq	r0, r4, #12, 22	; 0x3000
 240:	100d0c4e 	andne	r0, sp, lr, asr #24
 244:	c5c7cb42 	strbgt	ip, [r7, #2882]	; 0xb42
 248:	00000ec4 	andeq	r0, r0, r4, asr #29
 24c:	0000001c 	andeq	r0, r0, ip, lsl r0
 250:	000001f4 	strdeq	r0, [r0], -r4
 254:	00010a8c 	andeq	r0, r1, ip, lsl #21
 258:	000000ac 	andeq	r0, r0, ip, lsr #1
 25c:	8b080e42 	blhi	203b6c <__bss_end__+0x1dbabc>
 260:	42018e02 	andmi	r8, r1, #2, 28
 264:	02040b0c 	andeq	r0, r4, #12, 22	; 0x3000
 268:	080d0c50 	stmdaeq	sp, {r4, r6, sl, fp}
 26c:	0000001c 	andeq	r0, r0, ip, lsl r0
 270:	000001f4 	strdeq	r0, [r0], -r4
 274:	00010b38 	andeq	r0, r1, r8, lsr fp
 278:	00000028 	andeq	r0, r0, r8, lsr #32
 27c:	8b040e42 	blhi	103b8c <__bss_end__+0xdbadc>
 280:	0b0d4201 	bleq	350a8c <__bss_end__+0x3289dc>
 284:	420d0d4c 	andmi	r0, sp, #76, 26	; 0x1300
 288:	00000ecb 	andeq	r0, r0, fp, asr #29
 28c:	0000001c 	andeq	r0, r0, ip, lsl r0
 290:	000001f4 	strdeq	r0, [r0], -r4
 294:	00010b60 	andeq	r0, r1, r0, ror #22
 298:	00000028 	andeq	r0, r0, r8, lsr #32
 29c:	8b040e42 	blhi	103bac <__bss_end__+0xdbafc>
 2a0:	0b0d4201 	bleq	350aac <__bss_end__+0x3289fc>
 2a4:	420d0d4c 	andmi	r0, sp, #76, 26	; 0x1300
 2a8:	00000ecb 	andeq	r0, r0, fp, asr #29
 2ac:	0000001c 	andeq	r0, r0, ip, lsl r0
 2b0:	000001f4 	strdeq	r0, [r0], -r4
 2b4:	00010b88 	andeq	r0, r1, r8, lsl #23
 2b8:	00000024 	andeq	r0, r0, r4, lsr #32
 2bc:	8b080e42 	blhi	203bcc <__bss_end__+0x1dbb1c>
 2c0:	42018e02 	andmi	r8, r1, #2, 28
 2c4:	4c040b0c 			; <UNDEFINED> instruction: 0x4c040b0c
 2c8:	00080d0c 	andeq	r0, r8, ip, lsl #26
 2cc:	00000018 	andeq	r0, r0, r8, lsl r0
 2d0:	000001f4 	strdeq	r0, [r0], -r4
 2d4:	00010bac 	andeq	r0, r1, ip, lsr #23
 2d8:	00000018 	andeq	r0, r0, r8, lsl r0
 2dc:	8b080e42 	blhi	203bec <__bss_end__+0x1dbb3c>
 2e0:	42018e02 	andmi	r8, r1, #2, 28
 2e4:	00040b0c 	andeq	r0, r4, ip, lsl #22
 2e8:	0000001c 	andeq	r0, r0, ip, lsl r0
 2ec:	000001f4 	strdeq	r0, [r0], -r4
 2f0:	00010bc4 	andeq	r0, r1, r4, asr #23
 2f4:	00000024 	andeq	r0, r0, r4, lsr #32
 2f8:	8b040e42 	blhi	103c08 <__bss_end__+0xdbb58>
 2fc:	0b0d4201 	bleq	350b08 <__bss_end__+0x328a58>
 300:	420d0d4a 	andmi	r0, sp, #4736	; 0x1280
 304:	00000ecb 	andeq	r0, r0, fp, asr #29
 308:	0000001c 	andeq	r0, r0, ip, lsl r0
 30c:	000001f4 	strdeq	r0, [r0], -r4
 310:	00010be8 	andeq	r0, r1, r8, ror #23
 314:	00000024 	andeq	r0, r0, r4, lsr #32
 318:	8b040e42 	blhi	103c28 <__bss_end__+0xdbb78>
 31c:	0b0d4201 	bleq	350b28 <__bss_end__+0x328a78>
 320:	420d0d4a 	andmi	r0, sp, #4736	; 0x1280
 324:	00000ecb 	andeq	r0, r0, fp, asr #29
 328:	0000001c 	andeq	r0, r0, ip, lsl r0
 32c:	000001f4 	strdeq	r0, [r0], -r4
 330:	00010c0c 	andeq	r0, r1, ip, lsl #24
 334:	00000024 	andeq	r0, r0, r4, lsr #32
 338:	8b040e42 	blhi	103c48 <__bss_end__+0xdbb98>
 33c:	0b0d4201 	bleq	350b48 <__bss_end__+0x328a98>
 340:	420d0d4a 	andmi	r0, sp, #4736	; 0x1280
 344:	00000ecb 	andeq	r0, r0, fp, asr #29
 348:	0000001c 	andeq	r0, r0, ip, lsl r0
 34c:	000001f4 	strdeq	r0, [r0], -r4
 350:	00010c30 	andeq	r0, r1, r0, lsr ip
 354:	00000024 	andeq	r0, r0, r4, lsr #32
 358:	8b040e42 	blhi	103c68 <__bss_end__+0xdbbb8>
 35c:	0b0d4201 	bleq	350b68 <__bss_end__+0x328ab8>
 360:	420d0d4a 	andmi	r0, sp, #4736	; 0x1280
 364:	00000ecb 	andeq	r0, r0, fp, asr #29
 368:	0000001c 	andeq	r0, r0, ip, lsl r0
 36c:	000001f4 	strdeq	r0, [r0], -r4
 370:	00010c54 	andeq	r0, r1, r4, asr ip
 374:	00000024 	andeq	r0, r0, r4, lsr #32
 378:	8b040e42 	blhi	103c88 <__bss_end__+0xdbbd8>
 37c:	0b0d4201 	bleq	350b88 <__bss_end__+0x328ad8>
 380:	420d0d4a 	andmi	r0, sp, #4736	; 0x1280
 384:	00000ecb 	andeq	r0, r0, fp, asr #29
 388:	0000001c 	andeq	r0, r0, ip, lsl r0
 38c:	000001f4 	strdeq	r0, [r0], -r4
 390:	00010c78 	andeq	r0, r1, r8, ror ip
 394:	00000024 	andeq	r0, r0, r4, lsr #32
 398:	8b040e42 	blhi	103ca8 <__bss_end__+0xdbbf8>
 39c:	0b0d4201 	bleq	350ba8 <__bss_end__+0x328af8>
 3a0:	420d0d4a 	andmi	r0, sp, #4736	; 0x1280
 3a4:	00000ecb 	andeq	r0, r0, fp, asr #29
 3a8:	0000001c 	andeq	r0, r0, ip, lsl r0
 3ac:	000001f4 	strdeq	r0, [r0], -r4
 3b0:	00010c9c 	muleq	r1, ip, ip
 3b4:	00000024 	andeq	r0, r0, r4, lsr #32
 3b8:	8b040e42 	blhi	103cc8 <__bss_end__+0xdbc18>
 3bc:	0b0d4201 	bleq	350bc8 <__bss_end__+0x328b18>
 3c0:	420d0d4a 	andmi	r0, sp, #4736	; 0x1280
 3c4:	00000ecb 	andeq	r0, r0, fp, asr #29
 3c8:	0000001c 	andeq	r0, r0, ip, lsl r0
 3cc:	000001f4 	strdeq	r0, [r0], -r4
 3d0:	00010cc0 	andeq	r0, r1, r0, asr #25
 3d4:	00000034 	andeq	r0, r0, r4, lsr r0
 3d8:	8b040e42 	blhi	103ce8 <__bss_end__+0xdbc38>
 3dc:	0b0d4201 	bleq	350be8 <__bss_end__+0x328b38>
 3e0:	420d0d52 	andmi	r0, sp, #5248	; 0x1480
 3e4:	00000ecb 	andeq	r0, r0, fp, asr #29
 3e8:	0000001c 	andeq	r0, r0, ip, lsl r0
 3ec:	000001f4 	strdeq	r0, [r0], -r4
 3f0:	00010cf4 	strdeq	r0, [r1], -r4
 3f4:	00000044 	andeq	r0, r0, r4, asr #32
 3f8:	8b080e42 	blhi	203d08 <__bss_end__+0x1dbc58>
 3fc:	42018e02 	andmi	r8, r1, #2, 28
 400:	5c040b0c 			; <UNDEFINED> instruction: 0x5c040b0c
 404:	00080d0c 	andeq	r0, r8, ip, lsl #26
 408:	0000001c 	andeq	r0, r0, ip, lsl r0
 40c:	000001f4 	strdeq	r0, [r0], -r4
 410:	00010d38 	andeq	r0, r1, r8, lsr sp
 414:	00000108 	andeq	r0, r0, r8, lsl #2
 418:	8b080e42 	blhi	203d28 <__bss_end__+0x1dbc78>
 41c:	42018e02 	andmi	r8, r1, #2, 28
 420:	02040b0c 	andeq	r0, r4, #12, 22	; 0x3000
 424:	080d0c7c 	stmdaeq	sp, {r2, r3, r4, r5, r6, sl, fp}
 428:	0000001c 	andeq	r0, r0, ip, lsl r0
 42c:	000001f4 	strdeq	r0, [r0], -r4
 430:	00010e40 	andeq	r0, r1, r0, asr #28
 434:	00000044 	andeq	r0, r0, r4, asr #32
 438:	8b040e42 	blhi	103d48 <__bss_end__+0xdbc98>
 43c:	0b0d4201 	bleq	350c48 <__bss_end__+0x328b98>
 440:	420d0d5a 	andmi	r0, sp, #5760	; 0x1680
 444:	00000ecb 	andeq	r0, r0, fp, asr #29
 448:	0000001c 	andeq	r0, r0, ip, lsl r0
 44c:	000001f4 	strdeq	r0, [r0], -r4
 450:	00010e84 	andeq	r0, r1, r4, lsl #29
 454:	00000044 	andeq	r0, r0, r4, asr #32
 458:	8b040e42 	blhi	103d68 <__bss_end__+0xdbcb8>
 45c:	0b0d4201 	bleq	350c68 <__bss_end__+0x328bb8>
 460:	420d0d5a 	andmi	r0, sp, #5760	; 0x1680
 464:	00000ecb 	andeq	r0, r0, fp, asr #29
 468:	0000001c 	andeq	r0, r0, ip, lsl r0
 46c:	000001f4 	strdeq	r0, [r0], -r4
 470:	00010ec8 	andeq	r0, r1, r8, asr #29
 474:	00000060 	andeq	r0, r0, r0, rrx
 478:	8b080e42 	blhi	203d88 <__bss_end__+0x1dbcd8>
 47c:	42018e02 	andmi	r8, r1, #2, 28
 480:	6a040b0c 	bvs	1030b8 <__bss_end__+0xdb008>
 484:	00080d0c 	andeq	r0, r8, ip, lsl #26
 488:	0000001c 	andeq	r0, r0, ip, lsl r0
 48c:	000001f4 	strdeq	r0, [r0], -r4
 490:	00010f28 	andeq	r0, r1, r8, lsr #30
 494:	000000bc 	strheq	r0, [r0], -ip
 498:	8b080e42 	blhi	203da8 <__bss_end__+0x1dbcf8>
 49c:	42018e02 	andmi	r8, r1, #2, 28
 4a0:	02040b0c 	andeq	r0, r4, #12, 22	; 0x3000
 4a4:	080d0c58 	stmdaeq	sp, {r3, r4, r6, sl, fp}
 4a8:	0000001c 	andeq	r0, r0, ip, lsl r0
 4ac:	000001f4 	strdeq	r0, [r0], -r4
 4b0:	00010fe4 	andeq	r0, r1, r4, ror #31
 4b4:	0000009c 	muleq	r0, ip, r0
 4b8:	8b080e42 	blhi	203dc8 <__bss_end__+0x1dbd18>
 4bc:	42018e02 	andmi	r8, r1, #2, 28
 4c0:	02040b0c 	andeq	r0, r4, #12, 22	; 0x3000
 4c4:	080d0c48 	stmdaeq	sp, {r3, r6, sl, fp}
 4c8:	0000001c 	andeq	r0, r0, ip, lsl r0
 4cc:	000001f4 	strdeq	r0, [r0], -r4
 4d0:	00011080 	andeq	r1, r1, r0, lsl #1
 4d4:	00000080 	andeq	r0, r0, r0, lsl #1
 4d8:	8b040e42 	blhi	103de8 <__bss_end__+0xdbd38>
 4dc:	0b0d4201 	bleq	350ce8 <__bss_end__+0x328c38>
 4e0:	420d0d78 	andmi	r0, sp, #120, 26	; 0x1e00
 4e4:	00000ecb 	andeq	r0, r0, fp, asr #29
 4e8:	0000001c 	andeq	r0, r0, ip, lsl r0
 4ec:	000001f4 	strdeq	r0, [r0], -r4
 4f0:	00011100 	andeq	r1, r1, r0, lsl #2
 4f4:	000001e4 	andeq	r0, r0, r4, ror #3
 4f8:	8b040e42 	blhi	103e08 <__bss_end__+0xdbd58>
 4fc:	0b0d4201 	bleq	350d08 <__bss_end__+0x328c58>
 500:	0d0dea02 	vstreq	s28, [sp, #-8]
 504:	000ecb42 	andeq	ip, lr, r2, asr #22
 508:	0000001c 	andeq	r0, r0, ip, lsl r0
 50c:	000001f4 	strdeq	r0, [r0], -r4
 510:	000112e4 	andeq	r1, r1, r4, ror #5
 514:	00000088 	andeq	r0, r0, r8, lsl #1
 518:	8b080e42 	blhi	203e28 <__bss_end__+0x1dbd78>
 51c:	42018e02 	andmi	r8, r1, #2, 28
 520:	7e040b0c 	vmlavc.f64	d0, d4, d12
 524:	00080d0c 	andeq	r0, r8, ip, lsl #26
 528:	0000001c 	andeq	r0, r0, ip, lsl r0
 52c:	000001f4 	strdeq	r0, [r0], -r4
 530:	0001136c 	andeq	r1, r1, ip, ror #6
 534:	00000124 	andeq	r0, r0, r4, lsr #2
 538:	8b080e42 	blhi	203e48 <__bss_end__+0x1dbd98>
 53c:	42018e02 	andmi	r8, r1, #2, 28
 540:	02040b0c 	andeq	r0, r4, #12, 22	; 0x3000
 544:	080d0c8c 	stmdaeq	sp, {r2, r3, r7, sl, fp}
 548:	00000018 	andeq	r0, r0, r8, lsl r0
 54c:	000001f4 	strdeq	r0, [r0], -r4
 550:	00011490 	muleq	r1, r0, r4
 554:	00000030 	andeq	r0, r0, r0, lsr r0
 558:	8b080e42 	blhi	203e68 <__bss_end__+0x1dbdb8>
 55c:	42018e02 	andmi	r8, r1, #2, 28
 560:	00040b0c 	andeq	r0, r4, ip, lsl #22
 564:	0000001c 	andeq	r0, r0, ip, lsl r0
 568:	000001f4 	strdeq	r0, [r0], -r4
 56c:	000114c0 	andeq	r1, r1, r0, asr #9
 570:	000000bc 	strheq	r0, [r0], -ip
 574:	8b080e42 	blhi	203e84 <__bss_end__+0x1dbdd4>
 578:	42018e02 	andmi	r8, r1, #2, 28
 57c:	02040b0c 	andeq	r0, r4, #12, 22	; 0x3000
 580:	080d0c58 	stmdaeq	sp, {r3, r4, r6, sl, fp}
 584:	0000001c 	andeq	r0, r0, ip, lsl r0
 588:	000001f4 	strdeq	r0, [r0], -r4
 58c:	0001157c 	andeq	r1, r1, ip, ror r5
 590:	00000088 	andeq	r0, r0, r8, lsl #1
 594:	8b080e42 	blhi	203ea4 <__bss_end__+0x1dbdf4>
 598:	42018e02 	andmi	r8, r1, #2, 28
 59c:	7e040b0c 	vmlavc.f64	d0, d4, d12
 5a0:	00080d0c 	andeq	r0, r8, ip, lsl #26
 5a4:	0000001c 	andeq	r0, r0, ip, lsl r0
 5a8:	000001f4 	strdeq	r0, [r0], -r4
 5ac:	00011604 	andeq	r1, r1, r4, lsl #12
 5b0:	00000038 	andeq	r0, r0, r8, lsr r0
 5b4:	8b040e42 	blhi	103ec4 <__bss_end__+0xdbe14>
 5b8:	0b0d4201 	bleq	350dc4 <__bss_end__+0x328d14>
 5bc:	420d0d54 	andmi	r0, sp, #84, 26	; 0x1500
 5c0:	00000ecb 	andeq	r0, r0, fp, asr #29
 5c4:	0000001c 	andeq	r0, r0, ip, lsl r0
 5c8:	000001f4 	strdeq	r0, [r0], -r4
 5cc:	0001163c 	andeq	r1, r1, ip, lsr r6
 5d0:	00000034 	andeq	r0, r0, r4, lsr r0
 5d4:	8b080e42 	blhi	203ee4 <__bss_end__+0x1dbe34>
 5d8:	42018e02 	andmi	r8, r1, #2, 28
 5dc:	54040b0c 	strpl	r0, [r4], #-2828	; 0xfffff4f4
 5e0:	00080d0c 	andeq	r0, r8, ip, lsl #26
 5e4:	0000001c 	andeq	r0, r0, ip, lsl r0
 5e8:	000001f4 	strdeq	r0, [r0], -r4
 5ec:	00011670 	andeq	r1, r1, r0, ror r6
 5f0:	00000024 	andeq	r0, r0, r4, lsr #32
 5f4:	8b040e42 	blhi	103f04 <__bss_end__+0xdbe54>
 5f8:	0b0d4201 	bleq	350e04 <__bss_end__+0x328d54>
 5fc:	420d0d4a 	andmi	r0, sp, #4736	; 0x1280
 600:	00000ecb 	andeq	r0, r0, fp, asr #29
 604:	00000020 	andeq	r0, r0, r0, lsr #32
 608:	000001f4 	strdeq	r0, [r0], -r4
 60c:	00011694 	muleq	r1, r4, r6
 610:	00000144 	andeq	r0, r0, r4, asr #2
 614:	840c0e42 	strhi	r0, [ip], #-3650	; 0xfffff1be
 618:	8e028b03 	vmlahi.f64	d8, d2, d3
 61c:	0b0c4201 	bleq	310e28 <__bss_end__+0x2e8d78>
 620:	0c9c0204 	lfmeq	f0, 4, [ip], {4}
 624:	00000c0d 	andeq	r0, r0, sp, lsl #24
 628:	00000018 	andeq	r0, r0, r8, lsl r0
 62c:	000001f4 	strdeq	r0, [r0], -r4
 630:	000117d8 	ldrdeq	r1, [r1], -r8
 634:	00000084 	andeq	r0, r0, r4, lsl #1
 638:	8b080e42 	blhi	203f48 <__bss_end__+0x1dbe98>
 63c:	42018e02 	andmi	r8, r1, #2, 28
 640:	00040b0c 	andeq	r0, r4, ip, lsl #22
 644:	00000018 	andeq	r0, r0, r8, lsl r0
 648:	000001f4 	strdeq	r0, [r0], -r4
 64c:	0001185c 	andeq	r1, r1, ip, asr r8
 650:	0000004c 	andeq	r0, r0, ip, asr #32
 654:	8b080e42 	blhi	203f64 <__bss_end__+0x1dbeb4>
 658:	42018e02 	andmi	r8, r1, #2, 28
 65c:	00040b0c 	andeq	r0, r4, ip, lsl #22
 660:	0000000c 	andeq	r0, r0, ip
 664:	ffffffff 			; <UNDEFINED> instruction: 0xffffffff
 668:	7c020001 	stcvc	0, cr0, [r2], {1}
 66c:	000d0c0e 	andeq	r0, sp, lr, lsl #24
 670:	0000001c 	andeq	r0, r0, ip, lsl r0
 674:	00000660 	andeq	r0, r0, r0, ror #12
 678:	000118a8 	andeq	r1, r1, r8, lsr #17
 67c:	000000cc 	andeq	r0, r0, ip, asr #1
 680:	8b080e42 	blhi	203f90 <__bss_end__+0x1dbee0>
 684:	42018e02 	andmi	r8, r1, #2, 28
 688:	02040b0c 	andeq	r0, r4, #12, 22	; 0x3000
 68c:	080d0c60 	stmdaeq	sp, {r5, r6, sl, fp}
 690:	0000001c 	andeq	r0, r0, ip, lsl r0
 694:	00000660 	andeq	r0, r0, r0, ror #12
 698:	00011974 	andeq	r1, r1, r4, ror r9
 69c:	00000074 	andeq	r0, r0, r4, ror r0
 6a0:	8b080e42 	blhi	203fb0 <__bss_end__+0x1dbf00>
 6a4:	42018e02 	andmi	r8, r1, #2, 28
 6a8:	74040b0c 	strvc	r0, [r4], #-2828	; 0xfffff4f4
 6ac:	00080d0c 	andeq	r0, r8, ip, lsl #26
 6b0:	0000000c 	andeq	r0, r0, ip
 6b4:	ffffffff 			; <UNDEFINED> instruction: 0xffffffff
 6b8:	7c020001 	stcvc	0, cr0, [r2], {1}
 6bc:	000d0c0e 	andeq	r0, sp, lr, lsl #24
 6c0:	0000002c 	andeq	r0, r0, ip, lsr #32
 6c4:	000006b0 			; <UNDEFINED> instruction: 0x000006b0
 6c8:	000119e8 	andeq	r1, r1, r8, ror #19
 6cc:	0000038c 	andeq	r0, r0, ip, lsl #7
 6d0:	84140e42 	ldrhi	r0, [r4], #-3650	; 0xfffff1be
 6d4:	86048505 	strhi	r8, [r4], -r5, lsl #10
 6d8:	8b028703 	blhi	a22ec <__bss_end__+0x7a23c>
 6dc:	0b0c4201 	bleq	310ee8 <__bss_end__+0x2e8e38>
 6e0:	01be0304 			; <UNDEFINED> instruction: 0x01be0304
 6e4:	42140d0c 	andsmi	r0, r4, #12, 26	; 0x300
 6e8:	c5c6c7cb 	strbgt	ip, [r6, #1995]	; 0x7cb
 6ec:	00000ec4 	andeq	r0, r0, r4, asr #29
 6f0:	0000000c 	andeq	r0, r0, ip
 6f4:	ffffffff 			; <UNDEFINED> instruction: 0xffffffff
 6f8:	7c020001 	stcvc	0, cr0, [r2], {1}
 6fc:	000d0c0e 	andeq	r0, sp, lr, lsl #24
 700:	00000020 	andeq	r0, r0, r0, lsr #32
 704:	000006f0 	strdeq	r0, [r0], -r0	; <UNPREDICTABLE>
 708:	00011d74 	andeq	r1, r1, r4, ror sp
 70c:	00000a64 	andeq	r0, r0, r4, ror #20
 710:	8b040e42 	blhi	104020 <__bss_end__+0xdbf70>
 714:	0b0d4201 	bleq	350f20 <__bss_end__+0x328e70>
 718:	0d052a03 	vstreq	s4, [r5, #-12]
 71c:	0ecb420d 	cdpeq	2, 12, cr4, cr11, cr13, {0}
 720:	00000000 	andeq	r0, r0, r0
 724:	0000000c 	andeq	r0, r0, ip
 728:	ffffffff 			; <UNDEFINED> instruction: 0xffffffff
 72c:	7c020001 	stcvc	0, cr0, [r2], {1}
 730:	000d0c0e 	andeq	r0, sp, lr, lsl #24
 734:	00000030 	andeq	r0, r0, r0, lsr r0
 738:	00000724 	andeq	r0, r0, r4, lsr #14
 73c:	000127d8 	ldrdeq	r2, [r1], -r8
 740:	00000024 	andeq	r0, r0, r4, lsr #32
 744:	80100e42 	andshi	r0, r0, r2, asr #28
 748:	82038104 	andhi	r8, r3, #4, 2
 74c:	42018302 	andmi	r8, r1, #134217728	; 0x8000000
 750:	058b140e 	streq	r1, [fp, #1038]	; 0x40e
 754:	460b0d42 	strmi	r0, [fp], -r2, asr #26
 758:	cb420d0d 	blgt	1083b94 <__bss_end__+0x105bae4>
 75c:	c342100e 	movtgt	r1, #8206	; 0x200e
 760:	0ec0c1c2 	acseqdm	f4, f2
 764:	00000000 	andeq	r0, r0, r0
 768:	0000000c 	andeq	r0, r0, ip
 76c:	ffffffff 			; <UNDEFINED> instruction: 0xffffffff
 770:	7c020001 	stcvc	0, cr0, [r2], {1}
 774:	000d0c0e 	andeq	r0, sp, lr, lsl #24
 778:	0000001c 	andeq	r0, r0, ip, lsl r0
 77c:	00000768 	andeq	r0, r0, r8, ror #14
 780:	0001280c 	andeq	r2, r1, ip, lsl #16
 784:	00000028 	andeq	r0, r0, r8, lsr #32
 788:	8b040e42 	blhi	104098 <__bss_end__+0xdbfe8>
 78c:	0b0d4201 	bleq	350f98 <__bss_end__+0x328ee8>
 790:	420d0d4c 	andmi	r0, sp, #76, 26	; 0x1300
 794:	00000ecb 	andeq	r0, r0, fp, asr #29
 798:	00000018 	andeq	r0, r0, r8, lsl r0
 79c:	00000768 	andeq	r0, r0, r8, ror #14
 7a0:	00012834 	andeq	r2, r1, r4, lsr r8
 7a4:	00000018 	andeq	r0, r0, r8, lsl r0
 7a8:	8b080e42 	blhi	2040b8 <__bss_end__+0x1dc008>
 7ac:	42018e02 	andmi	r8, r1, #2, 28
 7b0:	00040b0c 	andeq	r0, r4, ip, lsl #22
 7b4:	00000018 	andeq	r0, r0, r8, lsl r0
 7b8:	00000768 	andeq	r0, r0, r8, ror #14
 7bc:	0001284c 	andeq	r2, r1, ip, asr #16
 7c0:	00000018 	andeq	r0, r0, r8, lsl r0
 7c4:	8b080e42 	blhi	2040d4 <__bss_end__+0x1dc024>
 7c8:	42018e02 	andmi	r8, r1, #2, 28
 7cc:	00040b0c 	andeq	r0, r4, ip, lsl #22
 7d0:	0000000c 	andeq	r0, r0, ip
 7d4:	ffffffff 			; <UNDEFINED> instruction: 0xffffffff
 7d8:	7c020001 	stcvc	0, cr0, [r2], {1}
 7dc:	000d0c0e 	andeq	r0, sp, lr, lsl #24
 7e0:	0000001c 	andeq	r0, r0, ip, lsl r0
 7e4:	000007d0 	ldrdeq	r0, [r0], -r0	; <UNPREDICTABLE>
 7e8:	00012864 	andeq	r2, r1, r4, ror #16
 7ec:	0000005c 	andeq	r0, r0, ip, asr r0
 7f0:	8b080e42 	blhi	204100 <__bss_end__+0x1dc050>
 7f4:	42018e02 	andmi	r8, r1, #2, 28
 7f8:	68040b0c 	stmdavs	r4, {r2, r3, r8, r9, fp}
 7fc:	00080d0c 	andeq	r0, r8, ip, lsl #26

Disassembly of section .debug_str:

00000000 <.debug_str>:
{
       0:	344c6573 	strbcc	r6, [ip], #-1395	; 0xfffffa8d
       4:	6f4e435f 	svcvs	0x004e435f
       8:	2f006564 	svccs	0x00006564
       c:	656d6f68 	strbvs	r6, [sp, #-3944]!	; 0xfffff098
    bootinfo = bi;
      10:	6e75732f 	cdpvs	3, 7, cr7, cr5, cr15, {1}
      14:	6f647679 	svcvs	0x00647679
      18:	732f676e 			; <UNDEFINED> instruction: 0x732f676e
      1c:	2f346c65 	svccs	0x00346c65
}
      20:	696e696d 	stmdbvs	lr!, {r0, r2, r3, r5, r6, r8, fp, sp, lr}^
      24:	6975625f 	ldmdbvs	r5!, {r0, r1, r2, r3, r4, r6, r9, sp, lr}^
      28:	732f646c 			; <UNDEFINED> instruction: 0x732f646c
      2c:	6c706d69 	ldclvs	13, cr6, [r0], #-420	; 0xfffffe5c
{
      30:	6f725f65 	svcvs	0x00725f65
      34:	6d2f746f 	cfstrsvs	mvf7, [pc, #-444]!	; fffffe80 <__bss_end__+0xfffd7dd0>
    return bootinfo;
      38:	2e6e6961 	vnmulcs.f16	s13, s28, s3	; <UNPREDICTABLE>
      3c:	6f6e0063 	svcvs	0x006e0063
      40:	44496564 	strbmi	r6, [r9], #-1380	; 0xfffffa9c
}
      44:	70657200 	rsbvc	r7, r5, r0, lsl #4
      48:	7300796c 	movwvc	r7, #2412	; 0x96c
      4c:	5f344c65 	svcpl	0x00344c65
      50:	6f766552 	svcvs	0x00766552
      54:	6946656b 	stmdbvs	r6, {r0, r1, r3, r5, r6, r8, sl, sp, lr}^
      58:	00747372 	rsbseq	r7, r4, r2, ror r3
      5c:	344c6573 	strbcc	r6, [ip], #-1395	; 0xfffffa8d
      60:	4350495f 	cmpmi	r0, #1556480	; 0x17c000
      64:	66667542 	strbtvs	r7, [r6], -r2, asr #10
      68:	005f7265 	subseq	r7, pc, r5, ror #4
      6c:	766e496e 	strbtvc	r4, [lr], -lr, ror #18
      70:	7461636f 	strbtvc	r6, [r1], #-879	; 0xfffffc91
      74:	4c6e6f69 	stclmi	15, cr6, [lr], #-420	; 0xfffffe5c
      78:	6c656261 	sfmvs	f6, 2, [r5], #-388	; 0xfffffe7c
      7c:	65730073 	ldrbvs	r0, [r3, #-115]!	; 0xffffff8d
      80:	525f344c 	subspl	r3, pc, #76, 8	; 0x4c000000
      84:	43746f6f 	cmnmi	r4, #444	; 0x1bc
      88:	65646f4e 	strbvs	r6, [r4, #-3918]!	; 0xfffff0b2
      8c:	53706143 	cmnpl	r0, #-1073741808	; 0xc0000010
      90:	73746f6c 	cmnvc	r4, #108, 30	; 0x1b0
      94:	4c657300 	stclmi	3, cr7, [r5], #-0
      98:	61525f34 	cmpvs	r2, r4, lsr pc
      9c:	4565676e 	strbmi	r6, [r5, #-1902]!	; 0xfffff892
      a0:	726f7272 	rsbvc	r7, pc, #536870919	; 0x20000007
      a4:	74786500 	ldrbtvc	r6, [r8], #-1280	; 0xfffffb00
      a8:	61436172 	hvcvs	13842	; 0x3612
      ac:	69007370 	stmdbvs	r0, {r4, r5, r6, r8, r9, ip, sp, lr}
      b0:	76654473 			; <UNDEFINED> instruction: 0x76654473
      b4:	00656369 	rsbeq	r6, r5, r9, ror #6
      b8:	344c6573 	strbcc	r6, [ip], #-1395	; 0xfffffa8d
      bc:	7379535f 	cmnvc	r9, #2080374785	; 0x7c000001
      c0:	75626544 	strbvc	r6, [r2, #-1348]!	; 0xfffffabc
      c4:	616e5367 	cmnvs	lr, r7, ror #6
      c8:	6f687370 	svcvs	0x00687370
      cc:	65730074 	ldrbvs	r0, [r3, #-116]!	; 0xffffff8c
      d0:	4e5f344c 	cdpmi	4, 5, cr3, cr15, cr12, {2}
      d4:	6e45746f 	cdpvs	4, 4, cr7, cr5, cr15, {3}
      d8:	6867756f 	stmdavs	r7!, {r0, r1, r2, r3, r5, r6, r8, sl, ip, sp, lr}^
      dc:	6f6d654d 	svcvs	0x006d654d
      e0:	69007972 	stmdbvs	r0, {r1, r4, r5, r6, r8, fp, ip, sp, lr}
      e4:	756f5f6e 	strbvc	r5, [pc, #-3950]!	; fffff17e <__bss_end__+0xfffd70ce>
      e8:	726d5f74 	rsbvc	r5, sp, #116, 30	; 0x1d0
      ec:	6e690031 	mcrvs	0, 3, r0, cr9, cr1, {1}
      f0:	74756f5f 	ldrbtvc	r6, [r5], #-3935	; 0xfffff0a1
      f4:	32726d5f 	rsbscc	r6, r2, #6080	; 0x17c0
      f8:	4c657300 	stclmi	3, cr7, [r5], #-0
      fc:	61435f34 	cmpvs	r3, r4, lsr pc
     100:	67695270 			; <UNDEFINED> instruction: 0x67695270
     104:	5f737468 	svcpl	0x00737468
     108:	43540074 	cmpmi	r4, #116	; 0x74
     10c:	74655342 	strbtvc	r5, [r5], #-834	; 0xfffffcbe
     110:	42435049 	submi	r5, r3, #73	; 0x49
     114:	65666675 	strbvs	r6, [r6, #-1653]!	; 0xfffff98b
     118:	65730072 	ldrbvs	r0, [r3, #-114]!	; 0xffffff8e
     11c:	435f344c 	cmpmi	pc, #76, 8	; 0x4c000000
     120:	754e7061 	strbvc	r7, [lr, #-97]	; 0xffffff9f
     124:	73006c6c 	movwvc	r6, #3180	; 0xc6c
     128:	5f344c65 	svcpl	0x00344c65
     12c:	42435049 	submi	r5, r3, #73	; 0x49
     130:	65666675 	strbvs	r6, [r6, #-1653]!	; 0xfffff98b
     134:	65730072 	ldrbvs	r0, [r3, #-114]!	; 0xffffff8e
     138:	535f344c 	cmppl	pc, #76, 8	; 0x4c000000
     13c:	65447379 	strbvs	r7, [r4, #-889]	; 0xfffffc87
     140:	4e677562 	cdpmi	5, 6, cr7, cr7, cr2, {3}
     144:	54656d61 	strbtpl	r6, [r5], #-3425	; 0xfffff29f
     148:	61657268 	cmnvs	r5, r8, ror #4
     14c:	65730064 	ldrbvs	r0, [r3, #-100]!	; 0xffffff9c
     150:	535f344c 	cmppl	pc, #76, 8	; 0x4c000000
     154:	69597379 	ldmdbvs	r9, {r0, r3, r4, r5, r6, r8, r9, ip, sp, lr}^
     158:	00646c65 	rsbeq	r6, r4, r5, ror #24
     15c:	646f4e43 	strbtvs	r4, [pc], #-3651	; 164 <errno+0x160>
     160:	766f4d65 	strbtvc	r4, [pc], -r5, ror #26
     164:	72650065 	rsbvc	r0, r5, #101	; 0x65
     168:	00726f72 	rsbseq	r6, r2, r2, ror pc
     16c:	344c6573 	strbcc	r6, [ip], #-1395	; 0xfffffa8d
     170:	7379535f 	cmnvc	r9, #2080374785	; 0x7c000001
     174:	6c706552 	cfldr64vs	mvdx6, [r0], #-328	; 0xfffffeb8
     178:	63655279 	cmnvs	r5, #-1879048185	; 0x90000007
     17c:	65730076 	ldrbvs	r0, [r3, #-118]!	; 0xffffff8a
     180:	535f344c 	cmppl	pc, #76, 8	; 0x4c000000
     184:	524d7465 	subpl	r7, sp, #1694498816	; 0x65000000
     188:	42435400 	submi	r5, r3, #0, 8
     18c:	53746553 	cmnpl	r4, #348127232	; 0x14c00000
     190:	64656863 	strbtvs	r6, [r5], #-2147	; 0xfffff79d
     194:	61726150 	cmnvs	r2, r0, asr r1
     198:	7300736d 	movwvc	r7, #877	; 0x36d
     19c:	5f344c65 	svcpl	0x00344c65
     1a0:	49706143 	ldmdbmi	r0!, {r0, r1, r6, r8, sp, lr}^
     1a4:	5474696e 	ldrbtpl	r6, [r4], #-2414	; 0xfffff692
     1a8:	61657268 	cmnvs	r5, r8, ror #4
     1ac:	70535664 	subsvc	r5, r3, r4, ror #12
     1b0:	00656361 	rsbeq	r6, r5, r1, ror #6
     1b4:	344c6573 	strbcc	r6, [ip], #-1395	; 0xfffffa8d
     1b8:	7061435f 	rsbvc	r4, r1, pc, asr r3
     1bc:	44495341 	strbmi	r5, [r9], #-833	; 0xfffffcbf
     1c0:	746e6f43 	strbtvc	r6, [lr], #-3907	; 0xfffff0bd
     1c4:	006c6f72 	rsbeq	r6, ip, r2, ror pc
     1c8:	61766e49 	cmnvs	r6, r9, asr #28
     1cc:	4964696c 	stmdbmi	r4!, {r2, r3, r5, r6, r8, fp, sp, lr}^
     1d0:	636f766e 	cmnvs	pc, #115343360	; 0x6e00000
     1d4:	6f697461 	svcvs	0x00697461
     1d8:	756f006e 	strbvc	r0, [pc, #-110]!	; 172 <errno+0x16e>
     1dc:	6e695f74 	mcrvs	15, 3, r5, cr9, cr4, {3}
     1e0:	73006f66 	movwvc	r6, #3942	; 0xf66
     1e4:	5f344c65 	svcpl	0x00344c65
     1e8:	44706143 	ldrbtmi	r6, [r0], #-323	; 0xfffffebd
     1ec:	69616d6f 	stmdbvs	r1!, {r0, r1, r2, r3, r5, r6, r8, sl, fp, sp, lr}^
     1f0:	6564006e 	strbvs	r0, [r4, #-110]!	; 0xffffff92
     1f4:	695f7473 	ldmdbvs	pc, {r0, r1, r4, r5, r6, sl, ip, sp, lr}^	; <UNPREDICTABLE>
     1f8:	7865646e 	stmdavc	r5!, {r1, r2, r3, r5, r6, sl, sp, lr}^
     1fc:	42435400 	submi	r5, r3, #0, 8
     200:	666e6f43 	strbtvs	r6, [lr], -r3, asr #30
     204:	72756769 	rsbsvc	r6, r5, #27525120	; 0x1a40000
     208:	65730065 	ldrbvs	r0, [r3, #-101]!	; 0xffffff9b
     20c:	545f344c 	ldrbpl	r3, [pc], #-1100	; 214 <errno+0x210>
     210:	624f4243 	subvs	r4, pc, #805306372	; 0x30000004
     214:	7463656a 	strbtvc	r6, [r3], #-1386	; 0xfffffa96
     218:	4c657300 	stclmi	3, cr7, [r5], #-0
     21c:	79535f34 	ldmdbvc	r3, {r2, r4, r5, r8, r9, sl, fp, ip, lr}^
     220:	6e655373 	mcrvs	3, 3, r5, cr5, cr3, {3}
     224:	65730064 	ldrbvs	r0, [r3, #-100]!	; 0xffffff9c
     228:	575f344c 	ldrbpl	r3, [pc, -ip, asr #8]
     22c:	0064726f 	rsbeq	r7, r4, pc, ror #4
     230:	42637069 	rsbmi	r7, r3, #105	; 0x69
     234:	65666675 	strbvs	r6, [r6, #-1653]!	; 0xfffff98b
     238:	65730072 	ldrbvs	r0, [r3, #-114]!	; 0xffffff8e
     23c:	435f344c 	cmpmi	pc, #76, 8	; 0x4c000000
     240:	6e497061 	cdpvs	0, 4, cr7, cr9, cr1, {3}
     244:	68547469 	ldmdavs	r4, {r0, r3, r5, r6, sl, ip, sp, lr}^
     248:	64616572 	strbtvs	r6, [r1], #-1394	; 0xfffffa8e
     24c:	00424354 	subeq	r4, r2, r4, asr r3
     250:	53424354 	movtpl	r4, #9044	; 0x2354
     254:	434d7465 	movtmi	r7, #54373	; 0xd465
     258:	6f697250 	svcvs	0x00697250
     25c:	79746972 	ldmdbvc	r4!, {r1, r4, r5, r6, r8, fp, sp, lr}^
     260:	735f5f00 	cmpvc	pc, #0, 30
     264:	5f346c65 	svcpl	0x00346c65
     268:	5f637069 	svcpl	0x00637069
     26c:	66667562 	strbtvs	r7, [r6], -r2, ror #10
     270:	73007265 	movwvc	r7, #613	; 0x265
     274:	5f344c65 	svcpl	0x00344c65
     278:	7373654d 	cmnvc	r3, #322961408	; 0x13400000
     27c:	49656761 	stmdbmi	r5!, {r0, r5, r6, r8, r9, sl, sp, lr}^
     280:	5f6f666e 	svcpl	0x006f666e
     284:	68730074 	ldmdavs	r3!, {r2, r4, r5, r6}^
     288:	64657261 	strbtvs	r7, [r5], #-609	; 0xfffffd9f
     28c:	6d617246 	sfmvs	f7, 2, [r1, #-280]!	; 0xfffffee8
     290:	72007365 	andvc	r7, r0, #-1811939327	; 0x94000001
     294:	6c757365 	ldclvs	3, cr7, [r5], #-404	; 0xfffffe6c
     298:	4e430074 	mcrmi	0, 2, r0, cr3, cr4, {3}
     29c:	5365646f 	cmnpl	r5, #1862270976	; 0x6f000000
     2a0:	43657661 	cmnmi	r5, #101711872	; 0x6100000
     2a4:	656c6c61 	strbvs	r6, [ip, #-3169]!	; 0xfffff39f
     2a8:	4e430072 	mcrmi	0, 2, r0, cr3, cr2, {3}
     2ac:	4d65646f 	cfstrdmi	mvd6, [r5, #-444]!	; 0xfffffe44
     2b0:	00746e69 	rsbseq	r6, r4, r9, ror #28
     2b4:	676e6f6c 	strbvs	r6, [lr, -ip, ror #30]!
     2b8:	6e6f6c20 	cdpvs	12, 6, cr6, cr15, cr0, {1}
     2bc:	6e752067 	cdpvs	0, 7, cr2, cr5, cr7, {3}
     2c0:	6e676973 			; <UNDEFINED> instruction: 0x6e676973
     2c4:	69206465 	stmdbvs	r0!, {r0, r2, r5, r6, sl, sp, lr}
     2c8:	5400746e 	strpl	r7, [r0], #-1134	; 0xfffffb92
     2cc:	65524243 	ldrbvs	r4, [r2, #-579]	; 0xfffffdbd
     2d0:	65526461 	ldrbvs	r6, [r2, #-1121]	; 0xfffffb9f
     2d4:	74736967 	ldrbtvc	r6, [r3], #-2407	; 0xfffff699
     2d8:	00737265 	rsbseq	r7, r3, r5, ror #4
     2dc:	646f4e43 	strbtvs	r4, [pc], #-3651	; 2e4 <errno+0x2e0>
     2e0:	6c654465 	cfstrdvs	mvd4, [r5], #-404	; 0xfffffe6c
     2e4:	00657465 	rsbeq	r7, r5, r5, ror #8
     2e8:	344c6573 	strbcc	r6, [ip], #-1395	; 0xfffffa8d
     2ec:	6e69555f 	mcrvs	5, 3, r5, cr9, cr15, {2}
     2f0:	00323374 	eorseq	r3, r2, r4, ror r3
     2f4:	344c6573 	strbcc	r6, [ip], #-1395	; 0xfffffa8d
     2f8:	7379535f 	cmnvc	r9, #2080374785	; 0x7c000001
     2fc:	6c6c6143 	stfvse	f6, [ip], #-268	; 0xfffffef4
     300:	70616300 	rsbvc	r6, r1, r0, lsl #6
     304:	6f6c6c41 	svcvs	0x006c6c41
     308:	69725777 	ldmdbvs	r2!, {r0, r1, r2, r4, r5, r6, r8, r9, sl, ip, lr}^
     30c:	72006574 	andvc	r6, r0, #116, 10	; 0x1d000000
     310:	74686769 	strbtvc	r6, [r8], #-1897	; 0xfffff897
     314:	65730073 	ldrbvs	r0, [r3, #-115]!	; 0xffffff8d
     318:	425f344c 	subsmi	r3, pc, #76, 8	; 0x4c000000
     31c:	49746f6f 	ldmdbmi	r4!, {r0, r1, r2, r3, r5, r6, r8, r9, sl, fp, sp, lr}^
     320:	006f666e 	rsbeq	r6, pc, lr, ror #12
     324:	5f637273 	svcpl	0x00637273
     328:	746f6f72 	strbtvc	r6, [pc], #-3954	; 330 <errno+0x32c>
     32c:	70616300 	rsbvc	r6, r1, r0, lsl #6
     330:	6f6c6c41 	svcvs	0x006c6c41
     334:	61655277 	smcvs	21799	; 0x5527
     338:	6f770064 	svcvs	0x00770064
     33c:	00736472 	rsbseq	r6, r3, r2, ror r4
     340:	41706163 	cmnmi	r0, r3, ror #2
     344:	776f6c6c 	strbvc	r6, [pc, -ip, ror #24]!
     348:	6e617247 	cdpvs	2, 6, cr7, cr1, cr7, {2}
     34c:	4e430074 	mcrmi	0, 2, r0, cr3, cr4, {3}
     350:	5265646f 	rsbpl	r6, r5, #1862270976	; 0x6f000000
     354:	7461746f 	strbtvc	r7, [r1], #-1135	; 0xfffffb91
     358:	73750065 	cmnvc	r5, #101	; 0x65
     35c:	6d497265 	sfmvs	f7, 2, [r9, #-404]	; 0xfffffe6c
     360:	46656761 	strbtmi	r6, [r5], -r1, ror #14
     364:	656d6172 	strbvs	r6, [sp, #-370]!	; 0xfffffe8e
     368:	65730073 	ldrbvs	r0, [r3, #-115]!	; 0xffffff8d
     36c:	445f344c 	ldrbmi	r3, [pc], #-1100	; 374 <errno+0x370>
     370:	69616d6f 	stmdbvs	r1!, {r0, r1, r2, r3, r5, r6, r8, sl, fp, sp, lr}^
     374:	6573006e 	ldrbvs	r0, [r3, #-110]!	; 0xffffff92
     378:	435f344c 	cmpmi	pc, #76, 8	; 0x4c000000
     37c:	65646f4e 	strbvs	r6, [r4, #-3918]!	; 0xfffff0b2
     380:	706f435f 	rsbvc	r4, pc, pc, asr r3	; <UNPREDICTABLE>
     384:	6e690079 	mcrvs	0, 3, r0, cr9, cr9, {3}
     388:	68547469 	ldmdavs	r4, {r0, r3, r5, r6, sl, ip, sp, lr}^
     38c:	64616572 	strbtvs	r6, [r1], #-1394	; 0xfffffa8e
     390:	616d6f44 	cmnvs	sp, r4, asr #30
     394:	49006e69 	stmdbmi	r0, {r0, r3, r5, r6, r9, sl, fp, sp, lr}
     398:	65535152 	ldrbvs	r5, [r3, #-338]	; 0xfffffeae
     39c:	51524974 	cmppl	r2, r4, ror r9
     3a0:	646e6148 	strbtvs	r6, [lr], #-328	; 0xfffffeb8
     3a4:	0072656c 	rsbseq	r6, r2, ip, ror #10
     3a8:	49515249 	ldmdbmi	r1, {r0, r3, r6, r9, ip, lr}^
     3ac:	65757373 	ldrbvs	r7, [r5, #-883]!	; 0xfffffc8d
     3b0:	48515249 	ldmdami	r1, {r0, r3, r6, r9, ip, lr}^
     3b4:	6c646e61 	stclvs	14, cr6, [r4], #-388	; 0xfffffe7c
     3b8:	64007265 	strvs	r7, [r0], #-613	; 0xfffffd9b
     3bc:	70747365 	rsbsvc	r7, r4, r5, ror #6
     3c0:	6e007274 	mcrvs	2, 0, r7, cr0, cr4, {3}
     3c4:	6f4e6d75 	svcvs	0x004e6d75
     3c8:	00736564 	rsbseq	r6, r3, r4, ror #10
     3cc:	5f697061 	svcpl	0x00697061
     3d0:	656a626f 	strbvs	r6, [sl, #-623]!	; 0xfffffd91
     3d4:	73007463 	movwvc	r7, #1123	; 0x463
     3d8:	5f344c65 	svcpl	0x00344c65
     3dc:	44737953 	ldrbtmi	r7, [r3], #-2387	; 0xfffff6ad
     3e0:	67756265 	ldrbvs	r6, [r5, -r5, ror #4]!
     3e4:	746c6148 	strbtvc	r6, [ip], #-328	; 0xfffffeb8
     3e8:	4c657300 	stclmi	3, cr7, [r5], #-0
     3ec:	73415f34 	movtvc	r5, #7988	; 0x1f34
     3f0:	45636e79 	strbmi	r6, [r3, #-3705]!	; 0xfffff187
     3f4:	6f70646e 	svcvs	0x0070646e
     3f8:	4f746e69 	svcmi	0x00746e69
     3fc:	63656a62 	cmnvs	r5, #401408	; 0x62000
     400:	43540074 	cmpmi	r4, #116	; 0x74
     404:	73755342 	cmnvc	r5, #134217729	; 0x8000001
     408:	646e6570 	strbtvs	r6, [lr], #-1392	; 0xfffffa90
     40c:	4c657300 	stclmi	3, cr7, [r5], #-0
     410:	654d5f34 	strbvs	r5, [sp, #-3892]	; 0xfffff0cc
     414:	67617373 			; <UNDEFINED> instruction: 0x67617373
     418:	666e4965 	strbtvs	r4, [lr], -r5, ror #18
     41c:	6573006f 	ldrbvs	r0, [r3, #-111]!	; 0xffffff91
     420:	415f344c 	cmpmi	pc, ip, asr #8
     424:	6e67696c 	vnmulvs.f16	s13, s14, s25	; <UNPREDICTABLE>
     428:	746e656d 	strbtvc	r6, [lr], #-1389	; 0xfffffa93
     42c:	6f727245 	svcvs	0x00727245
     430:	756f0072 	strbvc	r0, [pc, #-114]!	; 3c6 <errno+0x3c2>
     434:	74757074 	ldrbtvc	r7, [r5], #-116	; 0xffffff8c
     438:	6761745f 			; <UNDEFINED> instruction: 0x6761745f
     43c:	4c657300 	stclmi	3, cr7, [r5], #-0
     440:	61435f34 	cmpvs	r3, r4, lsr pc
     444:	4d4d5370 	stclmi	3, cr5, [sp, #-448]	; 0xfffffe40
     448:	44495355 	strbmi	r5, [r9], #-853	; 0xfffffcab
     44c:	746e6f43 	strbtvc	r6, [lr], #-3907	; 0xfffff0bd
     450:	006c6f72 	rsbeq	r6, ip, r2, ror pc
     454:	5f637273 	svcpl	0x00637273
     458:	65646e69 	strbvs	r6, [r4, #-3689]!	; 0xfffff197
     45c:	65730078 	ldrbvs	r0, [r3, #-120]!	; 0xffffff88
     460:	4d5f344c 	cfldrdmi	mvd3, [pc, #-304]	; 338 <errno+0x334>
     464:	61737365 	cmnvs	r3, r5, ror #6
     468:	6e496567 	cdpvs	5, 4, cr6, cr9, cr7, {3}
     46c:	6e5f6f66 	cdpvs	15, 5, cr6, cr15, cr6, {3}
     470:	65007765 	strvs	r7, [r0, #-1893]	; 0xfffff89b
     474:	61727478 	cmnvs	r2, r8, ror r4
     478:	006e654c 	rsbeq	r6, lr, ip, asr #10
     47c:	344c6573 	strbcc	r6, [ip], #-1395	; 0xfffffa8d
     480:	6f6c535f 	svcvs	0x006c535f
     484:	67655274 			; <UNDEFINED> instruction: 0x67655274
     488:	006e6f69 	rsbeq	r6, lr, r9, ror #30
     48c:	344c6573 	strbcc	r6, [ip], #-1395	; 0xfffffa8d
     490:	746e555f 	strbtvc	r5, [lr], #-1375	; 0xfffffaa1
     494:	64657079 	strbtvs	r7, [r5], #-121	; 0xffffff87
     498:	63736544 	cmnvs	r3, #68, 10	; 0x11000000
     49c:	4c657300 	stclmi	3, cr7, [r5], #-0
     4a0:	65475f34 	strbvs	r5, [r7, #-3892]	; 0xfffff0cc
     4a4:	43504974 	cmpmi	r0, #116, 18	; 0x1d0000
     4a8:	66667542 	strbtvs	r7, [r6], -r2, asr #10
     4ac:	63007265 	movwvs	r7, #613	; 0x265
     4b0:	5f737061 	svcpl	0x00737061
     4b4:	625f726f 	subsvs	r7, pc, #-268435450	; 0xf0000006
     4b8:	65676461 	strbvs	r6, [r7, #-1121]!	; 0xfffffb9f
     4bc:	65730073 	ldrbvs	r0, [r3, #-115]!	; 0xffffff8d
     4c0:	435f344c 	cmpmi	pc, #76, 8	; 0x4c000000
     4c4:	6e497061 	cdpvs	0, 4, cr7, cr9, cr1, {3}
     4c8:	68547469 	ldmdavs	r4, {r0, r3, r5, r6, sl, ip, sp, lr}^
     4cc:	64616572 	strbtvs	r6, [r1], #-1394	; 0xfffffa8e
     4d0:	646f4e43 	strbtvs	r4, [pc], #-3651	; 4d8 <errno+0x4d4>
     4d4:	65640065 	strbvs	r0, [r4, #-101]!	; 0xffffff9b
     4d8:	645f7473 	ldrbvs	r7, [pc], #-1139	; 4e0 <errno+0x4dc>
     4dc:	68747065 	ldmdavs	r4!, {r0, r2, r5, r6, ip, sp, lr}^
     4e0:	4c657300 	stclmi	3, cr7, [r5], #-0
     4e4:	61435f34 	cmpvs	r3, r4, lsr pc
     4e8:	51524970 	cmppl	r2, r0, ror r9
     4ec:	746e6f43 	strbtvc	r6, [lr], #-3907	; 0xfffff0bd
     4f0:	006c6f72 	rsbeq	r6, ip, r2, ror pc
     4f4:	676e6f6c 	strbvs	r6, [lr, -ip, ror #30]!
     4f8:	6e6f6c20 	cdpvs	12, 6, cr6, cr15, cr0, {1}
     4fc:	6e692067 	cdpvs	0, 6, cr2, cr9, cr7, {3}
     500:	61700074 	cmnvs	r0, r4, ror r0
     504:	6e696464 	cdpvs	4, 6, cr6, cr9, cr4, {3}
     508:	735f0067 	cmpvc	pc, #103	; 0x67
     50c:	69767265 	ldmdbvs	r6!, {r0, r2, r5, r6, r9, ip, sp, lr}^
     510:	73006563 	movwvc	r6, #1379	; 0x563
     514:	5f344c65 	svcpl	0x00344c65
     518:	746f6c53 	strbtvc	r6, [pc], #-3155	; 520 <errno+0x51c>
     51c:	00736f50 	rsbseq	r6, r3, r0, asr pc
     520:	4967736d 	stmdbmi	r7!, {r0, r2, r3, r5, r6, r8, r9, ip, sp, lr}^
     524:	006f666e 	rsbeq	r6, pc, lr, ror #12
     528:	344c6573 	strbcc	r6, [ip], #-1395	; 0xfffffa8d
     52c:	6c6c495f 			; <UNDEFINED> instruction: 0x6c6c495f
     530:	6c616765 	stclvs	7, cr6, [r1], #-404	; 0xfffffe6c
     534:	7265704f 	rsbvc	r7, r5, #79	; 0x4f
     538:	6f697461 	svcvs	0x00697461
     53c:	6573006e 	ldrbvs	r0, [r3, #-110]!	; 0xffffff92
     540:	435f344c 	cmpmi	pc, #76, 8	; 0x4c000000
     544:	00727450 	rsbseq	r7, r2, r0, asr r4
     548:	344c6573 	strbcc	r6, [ip], #-1395	; 0xfffffa8d
     54c:	7465535f 	strbtvc	r5, [r5], #-863	; 0xfffffca1
     550:	00706143 	rsbseq	r6, r0, r3, asr #2
     554:	344c6573 	strbcc	r6, [ip], #-1395	; 0xfffffa8d
     558:	7379535f 	cmnvc	r9, #2080374785	; 0x7c000001
     55c:	6552424e 	ldrbvs	r4, [r2, #-590]	; 0xfffffdb2
     560:	5f007663 	svcpl	0x00007663
     564:	6d756e65 	ldclvs	14, cr6, [r5, #-404]!	; 0xfffffe6c
     568:	6461705f 	strbtvs	r7, [r1], #-95	; 0xffffffa1
     56c:	4c65735f 	stclmi	3, cr7, [r5], #-380	; 0xfffffe84
     570:	79535f34 	ldmdbvc	r3, {r2, r4, r5, r8, r9, sl, fp, ip, lr}^
     574:	6c616373 	stclvs	3, cr6, [r1], #-460	; 0xfffffe34
     578:	44495f6c 	strbmi	r5, [r9], #-3948	; 0xfffff094
     57c:	6d6f4400 	cfstrdvs	mvd4, [pc, #-0]	; 584 <errno+0x580>
     580:	536e6961 	cmnpl	lr, #1589248	; 0x184000
     584:	65537465 	ldrbvs	r7, [r3, #-1125]	; 0xfffffb9b
     588:	65730074 	ldrbvs	r0, [r3, #-116]!	; 0xffffff8c
     58c:	435f344c 	cmpmi	pc, #76, 8	; 0x4c000000
     590:	4f497061 	svcmi	0x00497061
     594:	63617053 	cmnvs	r1, #83	; 0x53
     598:	4e430065 	cdpmi	0, 4, cr0, cr3, cr5, {3}
     59c:	4365646f 	cmnmi	r5, #1862270976	; 0x6f000000
     5a0:	65636e61 	strbvs	r6, [r3, #-3681]!	; 0xfffff19f
     5a4:	6461426c 	strbtvs	r4, [r1], #-620	; 0xfffffd94
     5a8:	53646567 	cmnpl	r4, #432013312	; 0x19c00000
     5ac:	73646e65 	cmnvc	r4, #1616	; 0x650
     5b0:	42435400 	submi	r5, r3, #0, 8
     5b4:	69626e55 	stmdbvs	r2!, {r0, r2, r4, r6, r9, sl, fp, sp, lr}^
     5b8:	6f4e646e 	svcvs	0x004e646e
     5bc:	69666974 	stmdbvs	r6!, {r2, r4, r5, r6, r8, fp, sp, lr}^
     5c0:	69746163 	ldmdbvs	r4!, {r0, r1, r5, r6, r8, sp, lr}^
     5c4:	73006e6f 	movwvc	r6, #3695	; 0xe6f
     5c8:	5f344c65 	svcpl	0x00344c65
     5cc:	6c6c6143 	stfvse	f6, [ip], #-268	; 0xfffffef4
     5d0:	68746957 	ldmdavs	r4!, {r0, r1, r2, r4, r6, r8, fp, sp, lr}^
     5d4:	0073524d 	rsbseq	r5, r3, sp, asr #4
     5d8:	344c6573 	strbcc	r6, [ip], #-1395	; 0xfffffa8d
     5dc:	6d754e5f 	ldclvs	14, cr4, [r5, #-380]!	; 0xfffffe84
     5e0:	6f727245 	svcvs	0x00727245
     5e4:	73007372 	movwvc	r7, #882	; 0x372
     5e8:	5f344c65 	svcpl	0x00344c65
     5ec:	52706143 	rsbspl	r6, r0, #-1073741808	; 0xc0000010
     5f0:	74686769 	strbtvc	r6, [r8], #-1897	; 0xfffff897
     5f4:	656e5f73 	strbvs	r5, [lr, #-3955]!	; 0xfffff08d
     5f8:	65730077 	ldrbvs	r0, [r3, #-119]!	; 0xffffff89
     5fc:	4e5f344c 	cdpmi	4, 5, cr3, cr15, cr12, {2}
     600:	7272456f 	rsbsvc	r4, r2, #465567744	; 0x1bc00000
     604:	7200726f 	andvc	r7, r0, #-268435450	; 0xf0000006
     608:	69656365 	stmdbvs	r5!, {r0, r2, r5, r6, r8, r9, sp, lr}^
     60c:	4e436576 	mcrmi	5, 2, r6, cr3, cr6, {3}
     610:	0065646f 	rsbeq	r6, r5, pc, ror #8
     614:	344c6573 	strbcc	r6, [ip], #-1395	; 0xfffffa8d
     618:	6961465f 	stmdbvs	r1!, {r0, r1, r2, r3, r4, r6, r9, sl, lr}^
     61c:	4c64656c 	cfstr64mi	mvdx6, [r4], #-432	; 0xfffffe50
     620:	756b6f6f 	strbvc	r6, [fp, #-3951]!	; 0xfffff091
     624:	43540070 	cmpmi	r4, #112	; 0x70
     628:	74655342 	strbtvc	r5, [r5], #-834	; 0xfffffcbe
     62c:	63617053 	cmnvs	r1, #83	; 0x53
     630:	65730065 	ldrbvs	r0, [r3, #-101]!	; 0xffffff9b
     634:	4d5f344c 	cfldrdmi	mvd3, [pc, #-304]	; 50c <errno+0x508>
     638:	61737365 	cmnvs	r3, r5, ror #6
     63c:	6e496567 	cdpvs	5, 4, cr6, cr9, cr7, {3}
     640:	675f6f66 	ldrbvs	r6, [pc, -r6, ror #30]
     644:	6c5f7465 	cfldrdvs	mvd7, [pc], {101}	; 0x65
     648:	74676e65 	strbtvc	r6, [r7], #-3685	; 0xfffff19b
     64c:	65730068 	ldrbvs	r0, [r3, #-104]!	; 0xffffff98
     650:	4e5f344c 	cdpmi	4, 5, cr3, cr15, cr12, {2}
     654:	6669746f 	strbtvs	r7, [r9], -pc, ror #8
     658:	74616369 	strbtvc	r6, [r1], #-873	; 0xfffffc97
     65c:	4f6e6f69 	svcmi	0x006e6f69
     660:	63656a62 	cmnvs	r5, #401408	; 0x62000
     664:	65730074 	ldrbvs	r0, [r3, #-116]!	; 0xffffff8c
     668:	535f344c 	cmppl	pc, #76, 8	; 0x4c000000
     66c:	65527379 	ldrbvs	r7, [r2, #-889]	; 0xfffffc87
     670:	00796c70 	rsbseq	r6, r9, r0, ror ip
     674:	43515249 	cmpmi	r1, #-1879048188	; 0x90000004
     678:	7261656c 	rsbvc	r6, r1, #108, 10	; 0x1b000000
     67c:	48515249 	ldmdami	r1, {r0, r3, r6, r9, ip, lr}^
     680:	6c646e61 	stclvs	14, cr6, [r4], #-388	; 0xfffffe7c
     684:	54007265 	strpl	r7, [r0], #-613	; 0xfffffd9b
     688:	72574243 	subsvc	r4, r7, #805306372	; 0x30000004
     68c:	52657469 	rsbpl	r7, r5, #1761607680	; 0x69000000
     690:	73696765 	cmnvc	r9, #26476544	; 0x1940000
     694:	73726574 	cmnvc	r2, #116, 10	; 0x1d000000
     698:	6f687300 	svcvs	0x00687300
     69c:	69207472 	stmdbvs	r0!, {r1, r4, r5, r6, sl, ip, sp, lr}
     6a0:	7300746e 	movwvc	r7, #1134	; 0x46e
     6a4:	5f344c65 	svcpl	0x00344c65
     6a8:	44737953 	ldrbtmi	r7, [r3], #-2387	; 0xfffff6ad
     6ac:	67756265 	ldrbvs	r6, [r5, -r5, ror #4]!
     6b0:	49706143 	ldmdbmi	r0!, {r0, r1, r6, r8, sp, lr}^
     6b4:	746e6564 	strbtvc	r6, [lr], #-1380	; 0xfffffa9c
     6b8:	00796669 	rsbseq	r6, r9, r9, ror #12
     6bc:	53424354 	movtpl	r4, #9044	; 0x2354
     6c0:	72507465 	subsvc	r7, r0, #1694498816	; 0x65000000
     6c4:	69726f69 	ldmdbvs	r2!, {r0, r3, r5, r6, r8, r9, sl, fp, sp, lr}^
     6c8:	72007974 	andvc	r7, r0, #116, 18	; 0x1d0000
     6cc:	69656365 	stmdbvs	r5!, {r0, r2, r5, r6, r8, r9, sp, lr}^
     6d0:	6e496576 	mcrvs	5, 2, r6, cr9, cr6, {3}
     6d4:	00786564 	rsbseq	r6, r8, r4, ror #10
     6d8:	344c6573 	strbcc	r6, [ip], #-1395	; 0xfffffa8d
     6dc:	646e455f 	strbtvs	r4, [lr], #-1375	; 0xfffffaa1
     6e0:	6e696f70 	mcrvs	15, 3, r6, cr9, cr0, {3}
     6e4:	6a624f74 	bvs	18944bc <__bss_end__+0x186c40c>
     6e8:	00746365 	rsbseq	r6, r4, r5, ror #6
     6ec:	344c6573 	strbcc	r6, [ip], #-1395	; 0xfffffa8d
     6f0:	646f4e5f 	strbtvs	r4, [pc], #-3679	; 6f8 <errno+0x6f4>
     6f4:	00644965 	rsbeq	r4, r4, r5, ror #18
     6f8:	344c6573 	strbcc	r6, [ip], #-1395	; 0xfffffa8d
     6fc:	7379535f 	cmnvc	r9, #2080374785	; 0x7c000001
     700:	75626544 	strbvc	r6, [r2, #-1348]!	; 0xfffffabc
     704:	74755067 	ldrbtvc	r5, [r5], #-103	; 0xffffff99
     708:	72616843 	rsbvc	r6, r1, #4390912	; 0x430000
     70c:	63727300 	cmnvs	r2, #0, 6
     710:	7065645f 	rsbvc	r6, r5, pc, asr r4
     714:	54006874 	strpl	r6, [r0], #-2164	; 0xfffff78c
     718:	69424243 	stmdbvs	r2, {r0, r1, r6, r9, lr}^
     71c:	6f4e646e 	svcvs	0x004e646e
     720:	69666974 	stmdbvs	r6!, {r2, r4, r5, r6, r8, fp, sp, lr}^
     724:	69746163 	ldmdbvs	r4!, {r0, r1, r5, r6, r8, sp, lr}^
     728:	43006e6f 	movwmi	r6, #3695	; 0xe6f
     72c:	65646f4e 	strbvs	r6, [r4, #-3918]!	; 0xfffff0b2
     730:	6174754d 	cmnvs	r4, sp, asr #10
     734:	2f006574 	svccs	0x00006574
     738:	656d6f68 	strbvs	r6, [sp, #-3944]!	; 0xfffff098
     73c:	6e75732f 	cdpvs	3, 7, cr7, cr5, cr15, {1}
     740:	6f647679 	svcvs	0x00647679
     744:	732f676e 			; <UNDEFINED> instruction: 0x732f676e
     748:	2f346c65 	svccs	0x00346c65
     74c:	696e696d 	stmdbvs	lr!, {r0, r2, r3, r5, r6, r8, fp, sp, lr}^
     750:	6975625f 	ldmdbvs	r5!, {r0, r1, r2, r3, r4, r6, r9, sp, lr}^
     754:	732f646c 			; <UNDEFINED> instruction: 0x732f646c
     758:	6c706d69 	ldclvs	13, cr6, [r0], #-420	; 0xfffffe5c
     75c:	6f725f65 	svcvs	0x00725f65
     760:	622f746f 	eorvs	r7, pc, #1862270976	; 0x6f000000
     764:	646c6975 	strbtvs	r6, [ip], #-2421	; 0xfffff68b
     768:	72696600 	rsbvc	r6, r9, #0, 12
     76c:	665f7473 			; <UNDEFINED> instruction: 0x665f7473
     770:	5f656572 	svcpl	0x00656572
     774:	746f6c73 	strbtvc	r6, [pc], #-3187	; 77c <errno+0x778>
     778:	746e7500 	strbtvc	r7, [lr], #-1280	; 0xfffffb00
     77c:	64657079 	strbtvs	r7, [r5], #-121	; 0xffffff87
     780:	7473694c 	ldrbtvc	r6, [r3], #-2380	; 0xfffff6b4
     784:	4c657300 	stclmi	3, cr7, [r5], #-0
     788:	654d5f34 	strbvs	r5, [sp, #-3892]	; 0xfffff0cc
     78c:	67617373 			; <UNDEFINED> instruction: 0x67617373
     790:	666e4965 	strbtvs	r4, [lr], -r5, ror #18
     794:	65675f6f 	strbvs	r5, [r7, #-3951]!	; 0xfffff091
     798:	616c5f74 	smcvs	50676	; 0xc5f4
     79c:	006c6562 	rsbeq	r6, ip, r2, ror #10
     7a0:	52424354 	subpl	r4, r2, #84, 6	; 0x50000001
     7a4:	6d757365 	ldclvs	3, cr7, [r5, #-404]!	; 0xfffffe6c
     7a8:	43540065 	cmpmi	r4, #101	; 0x65
     7ac:	706f4342 	rsbvc	r4, pc, r2, asr #6
     7b0:	67655279 			; <UNDEFINED> instruction: 0x67655279
     7b4:	65747369 	ldrbvs	r7, [r4, #-873]!	; 0xfffffc97
     7b8:	73007372 	movwvc	r7, #882	; 0x372
     7bc:	5f344c65 	svcpl	0x00344c65
     7c0:	6e757254 	mrcvs	2, 3, r7, cr5, cr4, {2}
     7c4:	65746163 	ldrbvs	r6, [r4, #-355]!	; 0xfffffe9d
     7c8:	73654d64 	cmnvc	r5, #100, 26	; 0x1900
     7cc:	65676173 	strbvs	r6, [r7, #-371]!	; 0xfffffe8d
     7d0:	4c657300 	stclmi	3, cr7, [r5], #-0
     7d4:	61435f34 	cmpvs	r3, r4, lsr pc
     7d8:	696e4970 	stmdbvs	lr!, {r4, r5, r6, r8, fp, lr}^
     7dc:	72685474 	rsbvc	r5, r8, #116, 8	; 0x74000000
     7e0:	49646165 	stmdbmi	r4!, {r0, r2, r5, r6, r8, sp, lr}^
     7e4:	75424350 	strbvc	r4, [r2, #-848]	; 0xfffffcb0
     7e8:	72656666 	rsbvc	r6, r5, #106954752	; 0x6600000
     7ec:	65737500 	ldrbvs	r7, [r3, #-1280]!	; 0xfffffb00
     7f0:	616d4972 	smcvs	54418	; 0xd492
     7f4:	61506567 	cmpvs	r0, r7, ror #10
     7f8:	676e6967 	strbvs	r6, [lr, -r7, ror #18]!
     7fc:	4c657300 	stclmi	3, cr7, [r5], #-0
     800:	61435f34 	cmpvs	r3, r4, lsr pc
     804:	696e4970 	stmdbvs	lr!, {r4, r5, r6, r8, fp, lr}^
     808:	72685474 	rsbvc	r5, r8, #116, 8	; 0x74000000
     80c:	53646165 	cmnpl	r4, #1073741849	; 0x40000019
     810:	6d650043 	stclvs	0, cr0, [r5, #-268]!	; 0xfffffef4
     814:	00797470 	rsbseq	r7, r9, r0, ror r4
     818:	73706163 	cmnvc	r0, #-1073741800	; 0xc0000018
     81c:	72776e55 	rsbsvc	r6, r7, #1360	; 0x550
     820:	65707061 	ldrbvs	r7, [r0, #-97]!	; 0xffffff9f
     824:	78650064 	stmdavc	r5!, {r2, r5, r6}^
     828:	42617274 	rsbmi	r7, r1, #116, 4	; 0x40000007
     82c:	67615049 	strbvs	r5, [r1, -r9, asr #32]!
     830:	69007365 	stmdbvs	r0, {r0, r2, r5, r6, r8, r9, ip, sp, lr}
     834:	6170536f 	cmnvs	r0, pc, ror #6
     838:	61436563 	cmpvs	r3, r3, ror #10
     83c:	73007370 	movwvc	r7, #880	; 0x370
     840:	5f344c65 	svcpl	0x00344c65
     844:	49706143 	ldmdbmi	r0!, {r0, r1, r6, r8, sp, lr}^
     848:	726f504f 	rsbvc	r5, pc, #79	; 0x4f
     84c:	6e6f4374 	mcrvs	3, 3, r4, cr15, cr4, {3}
     850:	6c6f7274 	sfmvs	f7, 2, [pc], #-464	; 688 <errno+0x684>
     854:	746e7500 	strbtvc	r7, [lr], #-1280	; 0xfffffb00
     858:	64657079 	strbtvs	r7, [r5], #-121	; 0xffffff87
     85c:	5f6e6900 	svcpl	0x006e6900
     860:	5f74756f 	svcpl	0x0074756f
     864:	0030726d 	eorseq	r7, r0, sp, ror #4
     868:	344c6573 	strbcc	r6, [ip], #-1395	; 0xfffffa8d
     86c:	7379535f 	cmnvc	r9, #2080374785	; 0x7c000001
     870:	6553424e 	ldrbvs	r4, [r3, #-590]	; 0xfffffdb2
     874:	7500646e 	strvc	r6, [r0, #-1134]	; 0xfffffb92
     878:	6769736e 	strbvs	r7, [r9, -lr, ror #6]!
     87c:	2064656e 	rsbcs	r6, r4, lr, ror #10
     880:	72616863 	rsbvc	r6, r1, #6488064	; 0x630000
     884:	5f6e6900 	svcpl	0x006e6900
     888:	5f74756f 	svcpl	0x0074756f
     88c:	0033726d 	eorseq	r7, r3, sp, ror #4
     890:	6f666e69 	svcvs	0x00666e69
     894:	6772615f 			; <UNDEFINED> instruction: 0x6772615f
     898:	4c657300 	stclmi	3, cr7, [r5], #-0
     89c:	61435f34 	cmpvs	r3, r4, lsr pc
     8a0:	4d4d5370 	stclmi	3, cr5, [sp, #-448]	; 0xfffffe40
     8a4:	43424355 	movtmi	r4, #9045	; 0x2355
     8a8:	72746e6f 	rsbsvc	r6, r4, #1776	; 0x6f0
     8ac:	73006c6f 	movwvc	r6, #3183	; 0xc6f
     8b0:	006f6e63 	rsbeq	r6, pc, r3, ror #28
     8b4:	344c6573 	strbcc	r6, [ip], #-1395	; 0xfffffa8d
     8b8:	7061435f 	rsbvc	r4, r1, pc, asr r3
     8bc:	68676952 	stmdavs	r7!, {r1, r4, r6, r8, fp, sp, lr}^
     8c0:	73007374 	movwvc	r7, #884	; 0x374
     8c4:	5f344c65 	svcpl	0x00344c65
     8c8:	496d754e 	stmdbmi	sp!, {r1, r2, r3, r6, r8, sl, ip, sp, lr}^
     8cc:	6974696e 	ldmdbvs	r4!, {r1, r2, r3, r5, r6, r8, fp, sp, lr}^
     8d0:	61436c61 	cmpvs	r3, r1, ror #24
     8d4:	73007370 	movwvc	r7, #880	; 0x370
     8d8:	5f344c65 	svcpl	0x00344c65
     8dc:	416e6f4e 	cmnmi	lr, lr, asr #30
     8e0:	4f686372 	svcmi	0x00686372
     8e4:	63656a62 	cmnvs	r5, #401408	; 0x62000
     8e8:	70795474 	rsbsvc	r5, r9, r4, ror r4
     8ec:	756f4365 	strbvc	r4, [pc, #-869]!	; 58f <errno+0x58b>
     8f0:	6900746e 	stmdbvs	r0, {r1, r2, r3, r5, r6, sl, ip, sp, lr}
     8f4:	5474696e 	ldrbtpl	r6, [r4], #-2414	; 0xfffff692
     8f8:	61657268 	cmnvs	r5, r8, ror #4
     8fc:	6f4e4364 	svcvs	0x004e4364
     900:	69536564 	ldmdbvs	r3, {r2, r5, r6, r8, sl, sp, lr}^
     904:	6942657a 	stmdbvs	r2, {r1, r3, r4, r5, r6, r8, sl, sp, lr}^
     908:	73007374 	movwvc	r7, #884	; 0x374
     90c:	5f344c65 	svcpl	0x00344c65
     910:	61766e49 	cmnvs	r6, r9, asr #28
     914:	4364696c 	cmnmi	r4, #108, 18	; 0x1b0000
     918:	62617061 	rsbvs	r7, r1, #97	; 0x61
     91c:	74696c69 	strbtvc	r6, [r9], #-3177	; 0xfffff397
     920:	69730079 	ldmdbvs	r3!, {r0, r3, r4, r5, r6}^
     924:	6942657a 	stmdbvs	r2, {r1, r3, r4, r5, r6, r8, sl, sp, lr}^
     928:	6d007374 	stcvs	3, cr7, [r0, #-464]	; 0xfffffe30
     92c:	00306773 	eorseq	r6, r0, r3, ror r7
     930:	3167736d 	cmncc	r7, sp, ror #6
     934:	67736d00 	ldrbvs	r6, [r3, -r0, lsl #26]!
     938:	736d0032 	cmnvc	sp, #50	; 0x32
     93c:	73003367 	movwvc	r3, #871	; 0x367
     940:	5f344c65 	svcpl	0x00344c65
     944:	61766e49 	cmnvs	r6, r9, asr #28
     948:	4164696c 	cmnmi	r4, ip, ror #18
     94c:	6d756772 	ldclvs	7, cr6, [r5, #-456]!	; 0xfffffe38
     950:	00746e65 	rsbseq	r6, r4, r5, ror #28
     954:	41515249 	cmpmi	r1, r9, asr #4
     958:	52496b63 	subpl	r6, r9, #101376	; 0x18c00
     95c:	72610051 	rsbvc	r0, r1, #81	; 0x51
     960:	79735f6d 	ldmdbvc	r3!, {r0, r2, r3, r5, r6, r8, r9, sl, fp, ip, lr}^
     964:	65735f73 	ldrbvs	r5, [r3, #-3955]!	; 0xfffff08d
     968:	725f646e 	subsvc	r6, pc, #1845493760	; 0x6e000000
     96c:	00766365 	rsbseq	r6, r6, r5, ror #6
     970:	344c6573 	strbcc	r6, [ip], #-1395	; 0xfffffa8d
     974:	6e69555f 	mcrvs	5, 3, r5, cr9, cr15, {2}
     978:	75003874 	strvc	r3, [r0, #-2164]	; 0xfffff78c
     97c:	44726573 	ldrbtmi	r6, [r2], #-1395	; 0xfffffa8d
     980:	00617461 	rsbeq	r7, r1, r1, ror #8
     984:	726f6873 	rsbvc	r6, pc, #7536640	; 0x730000
     988:	6e752074 	mrcvs	0, 3, r2, cr5, cr4, {3}
     98c:	6e676973 			; <UNDEFINED> instruction: 0x6e676973
     990:	69206465 	stmdbvs	r0!, {r0, r2, r5, r6, sl, sp, lr}
     994:	4300746e 	movwmi	r7, #1134	; 0x46e
     998:	65646f4e 	strbvs	r6, [r4, #-3918]!	; 0xfffff0b2
     99c:	6f766552 	svcvs	0x00766552
     9a0:	5f00656b 	svcpl	0x0000656b
     9a4:	6e75665f 	mrcvs	6, 3, r6, cr5, cr15, {2}
     9a8:	005f5f63 	subseq	r5, pc, r3, ror #30
     9ac:	344c6573 	strbcc	r6, [ip], #-1395	; 0xfffffa8d
     9b0:	7379535f 	cmnvc	r9, #2080374785	; 0x7c000001
     9b4:	76636552 			; <UNDEFINED> instruction: 0x76636552
     9b8:	74756f00 	ldrbtvc	r6, [r5], #-3840	; 0xfffff100
     9bc:	6461625f 	strbtvs	r6, [r1], #-607	; 0xfffffda1
     9c0:	73006567 	movwvc	r6, #1383	; 0x567
     9c4:	5f344c65 	svcpl	0x00344c65
     9c8:	42706143 	rsbsmi	r6, r0, #-1073741808	; 0xc0000010
     9cc:	49746f6f 	ldmdbmi	r4!, {r0, r1, r2, r3, r5, r6, r8, r9, sl, fp, sp, lr}^
     9d0:	466f666e 	strbtmi	r6, [pc], -lr, ror #12
     9d4:	656d6172 	strbvs	r6, [sp, #-370]!	; 0xfffffe8e
     9d8:	74706300 	ldrbtvc	r6, [r0], #-768	; 0xfffffd00
     9dc:	65730072 	ldrbvs	r0, [r3, #-114]!	; 0xffffff8e
     9e0:	555f344c 	ldrbpl	r3, [pc, #-1100]	; 59c <errno+0x598>
     9e4:	7079746e 	rsbsvc	r7, r9, lr, ror #8
     9e8:	624f6465 	subvs	r6, pc, #1694498816	; 0x65000000
     9ec:	7463656a 	strbtvc	r6, [r3], #-1386	; 0xfffffa96
     9f0:	4c657300 	stclmi	3, cr7, [r5], #-0
     9f4:	61435f34 	cmpvs	r3, r4, lsr pc
     9f8:	62615470 	rsbvs	r5, r1, #112, 8	; 0x70000000
     9fc:	624f656c 	subvs	r6, pc, #108, 10	; 0x1b000000
     a00:	7463656a 	strbtvc	r6, [r3], #-1386	; 0xfffffa96
     a04:	554e4700 	strbpl	r4, [lr, #-1792]	; 0xfffff900
     a08:	31314320 	teqcc	r1, r0, lsr #6
     a0c:	342e3920 	strtcc	r3, [lr], #-2336	; 0xfffff6e0
     a10:	2d20302e 	stccs	0, cr3, [r0, #-184]!	; 0xffffff48
     a14:	6d72616d 	ldfvse	f6, [r2, #-436]!	; 0xfffffe4c
     a18:	746d2d20 	strbtvc	r2, [sp], #-3360	; 0xfffff2e0
     a1c:	6f733d70 	svcvs	0x00733d70
     a20:	2d207466 	cfstrscs	mvf7, [r0, #-408]!	; 0xfffffe68
     a24:	2d6f6e6d 	stclcs	14, cr6, [pc, #-436]!	; 878 <errno+0x874>
     a28:	6c616e75 	stclvs	14, cr6, [r1], #-468	; 0xfffffe2c
     a2c:	656e6769 	strbvs	r6, [lr, #-1897]!	; 0xfffff897
     a30:	63612d64 	cmnvs	r1, #100, 26	; 0x1900
     a34:	73736563 	cmnvc	r3, #415236096	; 0x18c00000
     a38:	666d2d20 	strbtvs	r2, [sp], -r0, lsr #26
     a3c:	74616f6c 	strbtvc	r6, [r1], #-3948	; 0xfffff094
     a40:	6962612d 	stmdbvs	r2!, {r0, r2, r3, r5, r8, sp, lr}^
     a44:	666f733d 			; <UNDEFINED> instruction: 0x666f733d
     a48:	20706674 	rsbscs	r6, r0, r4, ror r6
     a4c:	6c746d2d 	ldclvs	13, cr6, [r4], #-180	; 0xffffff4c
     a50:	69642d73 	stmdbvs	r4!, {r0, r1, r4, r5, r6, r8, sl, fp, sp}^
     a54:	63656c61 	cmnvs	r5, #24832	; 0x6100
     a58:	6e673d74 	mcrvs	13, 3, r3, cr7, cr4, {3}
     a5c:	6d2d2075 	stcvs	0, cr2, [sp, #-468]!	; 0xfffffe2c
     a60:	68637261 	stmdavs	r3!, {r0, r5, r6, r9, ip, sp, lr}^
     a64:	6d72613d 	ldfvse	f6, [r2, #-244]!	; 0xffffff0c
     a68:	612d3776 			; <UNDEFINED> instruction: 0x612d3776
     a6c:	20672d20 	rsbcs	r2, r7, r0, lsr #26
     a70:	6474732d 	ldrbtvs	r7, [r4], #-813	; 0xfffffcd3
     a74:	756e673d 	strbvc	r6, [lr, #-1853]!	; 0xfffff8c3
     a78:	2d203131 	stfcss	f3, [r0, #-196]!	; 0xffffff3c
     a7c:	2d6f6e66 	stclcs	14, cr6, [pc, #-408]!	; 8ec <errno+0x8e8>
     a80:	20656970 	rsbcs	r6, r5, r0, ror r9
     a84:	6f6e662d 	svcvs	0x006e662d
     a88:	6174732d 	cmnvs	r4, sp, lsr #6
     a8c:	702d6b63 	eorvc	r6, sp, r3, ror #22
     a90:	65746f72 	ldrbvs	r6, [r4, #-3954]!	; 0xfffff08e
     a94:	726f7463 	rsbvc	r7, pc, #1660944384	; 0x63000000
     a98:	6e662d20 	cdpvs	13, 6, cr2, cr6, cr0, {1}
     a9c:	73612d6f 	cmnvc	r1, #7104	; 0x1bc0
     aa0:	68636e79 	stmdavs	r3!, {r0, r3, r4, r5, r6, r9, sl, fp, sp, lr}^
     aa4:	6f6e6f72 	svcvs	0x006e6f72
     aa8:	752d7375 	strvc	r7, [sp, #-885]!	; 0xfffffc8b
     aac:	6e69776e 	cdpvs	7, 6, cr7, cr9, cr14, {3}
     ab0:	61742d64 	cmnvs	r4, r4, ror #26
     ab4:	73656c62 	cmnvc	r5, #25088	; 0x6200
     ab8:	74662d20 	strbtvc	r2, [r6], #-3360	; 0xfffff2e0
     abc:	6d2d736c 	stcvs	3, cr7, [sp, #-432]!	; 0xfffffe50
     ac0:	6c65646f 	cfstrdvs	mvd6, [r5], #-444	; 0xfffffe44
     ac4:	636f6c3d 	cmnvs	pc, #15616	; 0x3d00
     ac8:	652d6c61 	strvs	r6, [sp, #-3169]!	; 0xfffff39f
     acc:	20636578 	rsbcs	r6, r3, r8, ror r5
     ad0:	7566662d 	strbvc	r6, [r6, #-1581]!	; 0xfffff9d3
     ad4:	6974636e 	ldmdbvs	r4!, {r1, r2, r3, r5, r6, r8, r9, sp, lr}^
     ad8:	732d6e6f 			; <UNDEFINED> instruction: 0x732d6e6f
     adc:	69746365 	ldmdbvs	r4!, {r0, r2, r5, r6, r8, r9, sp, lr}^
     ae0:	20736e6f 	rsbscs	r6, r3, pc, ror #28
     ae4:	6164662d 	cmnvs	r4, sp, lsr #12
     ae8:	732d6174 			; <UNDEFINED> instruction: 0x732d6174
     aec:	69746365 	ldmdbvs	r4!, {r0, r2, r5, r6, r8, r9, sp, lr}^
     af0:	00736e6f 	rsbseq	r6, r3, pc, ror #28
     af4:	65636572 	strbvs	r6, [r3, #-1394]!	; 0xfffffa8e
     af8:	44657669 	strbtmi	r7, [r5], #-1641	; 0xfffff997
     afc:	68747065 	ldmdavs	r4!, {r0, r2, r5, r6, ip, sp, lr}^
     b00:	6d756e00 	ldclvs	14, cr6, [r5, #-0]
     b04:	54504f49 	ldrbpl	r4, [r0], #-3913	; 0xfffff0b7
     b08:	6576654c 	ldrbvs	r6, [r6, #-1356]!	; 0xfffffab4
     b0c:	7300736c 	movwvc	r7, #876	; 0x36c
     b10:	5f344c65 	svcpl	0x00344c65
     b14:	49706143 	ldmdbmi	r0!, {r0, r1, r6, r8, sp, lr}^
     b18:	5474696e 	ldrbtpl	r6, [r4], #-2414	; 0xfffff692
     b1c:	61657268 	cmnvs	r5, r8, ror #4
     b20:	49534164 	ldmdbmi	r3, {r2, r5, r6, r8, lr}^
     b24:	6f6f5044 	svcvs	0x006f5044
     b28:	6573006c 	ldrbvs	r0, [r3, #-108]!	; 0xffffff94
     b2c:	535f344c 	cmppl	pc, #76, 8	; 0x4c000000
     b30:	65447379 	strbvs	r7, [r4, #-889]	; 0xfffffc87
     b34:	44677562 	strbtmi	r7, [r7], #-1378	; 0xfffffa9e
     b38:	53706d75 	cmnpl	r0, #7488	; 0x1d40
     b3c:	64656863 	strbtvs	r6, [r5], #-2147	; 0xfffff79d
     b40:	72656c75 	rsbvc	r6, r5, #29952	; 0x7500
     b44:	4c657300 	stclmi	3, cr7, [r5], #-0
     b48:	624f5f34 	subvs	r5, pc, #52, 30	; 0xd0
     b4c:	7463656a 	strbtvc	r6, [r3], #-1386	; 0xfffffa96
     b50:	65707954 	ldrbvs	r7, [r0, #-2388]!	; 0xfffff6ac
     b54:	42435400 	submi	r5, r3, #0, 8
     b58:	54746553 	ldrbtpl	r6, [r4], #-1363	; 0xfffffaad
     b5c:	6142534c 	cmpvs	r2, ip, asr #6
     b60:	73006573 	movwvc	r6, #1395	; 0x573
     b64:	5f344c65 	svcpl	0x00344c65
     b68:	656c6544 	strbvs	r6, [ip, #-1348]!	; 0xfffffabc
     b6c:	69466574 	stmdbvs	r6, {r2, r4, r5, r6, r8, sl, sp, lr}^
     b70:	00747372 	rsbseq	r7, r4, r2, ror r3
     b74:	344c6573 	strbcc	r6, [ip], #-1395	; 0xfffffa8d
     b78:	7061435f 	rsbvc	r4, r1, pc, asr r3
     b7c:	00434d53 	subeq	r4, r3, r3, asr sp
     b80:	646f4e43 	strbtvs	r4, [pc], #-3651	; b88 <errno+0xb84>
     b84:	706f4365 	rsbvc	r4, pc, r5, ror #6
     b88:	6e550079 	mrcvs	0, 2, r0, cr5, cr9, {3}
     b8c:	65707974 	ldrbvs	r7, [r0, #-2420]!	; 0xfffff68c
     b90:	74655264 	strbtvc	r5, [r5], #-612	; 0xfffffd9c
     b94:	00657079 	rsbeq	r7, r5, r9, ror r0
     b98:	344c6573 	strbcc	r6, [ip], #-1395	; 0xfffffa8d
     b9c:	7272455f 	rsbsvc	r4, r2, #398458880	; 0x17c00000
     ba0:	6300726f 	movwvs	r7, #623	; 0x26f
     ba4:	6c417061 	mcrrvs	0, 6, r7, r1, cr1
     ba8:	47776f6c 	ldrbmi	r6, [r7, -ip, ror #30]!
     bac:	746e6172 	strbtvc	r6, [lr], #-370	; 0xfffffe8e
     bb0:	6c706552 	cfldr64vs	mvdx6, [r0], #-328	; 0xfffffeb8
     bb4:	65730079 	ldrbvs	r0, [r3, #-121]!	; 0xffffff87
     bb8:	415f344c 	cmpmi	pc, ip, asr #8
     bbc:	505f4d52 	subspl	r4, pc, r2, asr sp	; <UNPREDICTABLE>
     bc0:	44656761 	strbtmi	r6, [r5], #-1889	; 0xfffff89f
     bc4:	63657269 	cmnvs	r5, #-1879048186	; 0x90000006
     bc8:	79726f74 	ldmdbvc	r2!, {r2, r4, r5, r6, r8, r9, sl, fp, sp, lr}^
     bcc:	656a624f 	strbvs	r6, [sl, #-591]!	; 0xfffffdb1
     bd0:	73007463 	movwvc	r7, #1123	; 0x463
     bd4:	5f344c65 	svcpl	0x00344c65
     bd8:	42746547 	rsbsmi	r6, r4, #297795584	; 0x11c00000
     bdc:	49746f6f 	ldmdbmi	r4!, {r0, r1, r2, r3, r5, r6, r8, r9, sl, fp, sp, lr}^
     be0:	006f666e 	rsbeq	r6, pc, lr, ror #12
     be4:	504d5241 	subpl	r5, sp, r1, asr #4
     be8:	656c4344 	strbvs	r4, [ip, #-836]!	; 0xfffffcbc
     bec:	445f6e61 	ldrbmi	r6, [pc], #-3681	; bf4 <errno+0xbf0>
     bf0:	00617461 	rsbeq	r7, r1, r1, ror #8
     bf4:	344c6573 	strbcc	r6, [ip], #-1395	; 0xfffffa8d
     bf8:	67734d5f 			; <UNDEFINED> instruction: 0x67734d5f
     bfc:	72747845 	rsbsvc	r7, r4, #4521984	; 0x450000
     c00:	70614361 	rsbvc	r4, r1, r1, ror #6
     c04:	73746942 	cmnvc	r4, #1081344	; 0x108000
     c08:	4c657300 	stclmi	3, cr7, [r5], #-0
     c0c:	734d5f34 	movtvc	r5, #57140	; 0xdf34
     c10:	6e654c67 	cdpvs	12, 6, cr4, cr5, cr7, {3}
     c14:	42687467 	rsbmi	r7, r8, #1728053248	; 0x67000000
     c18:	00737469 	rsbseq	r7, r3, r9, ror #8
     c1c:	504d5241 	subpl	r5, sp, r1, asr #4
     c20:	696e5544 	stmdbvs	lr!, {r2, r6, r8, sl, ip, lr}^
     c24:	495f7966 	ldmdbmi	pc, {r1, r2, r5, r6, r8, fp, ip, sp, lr}^	; <UNPREDICTABLE>
     c28:	7274736e 	rsbsvc	r7, r4, #-1207959551	; 0xb8000001
     c2c:	69746375 	ldmdbvs	r4!, {r0, r2, r4, r5, r6, r8, r9, sp, lr}^
     c30:	73006e6f 	movwvc	r6, #3695	; 0xe6f
     c34:	5f344c65 	svcpl	0x00344c65
     c38:	4c67734d 	stclmi	3, cr7, [r7], #-308	; 0xfffffecc
     c3c:	74696d69 	strbtvc	r6, [r9], #-3433	; 0xfffff297
     c40:	536e0073 	cmnpl	lr, #115	; 0x73
     c44:	41344c65 	teqmi	r4, r5, ror #24
     c48:	49686372 	stmdbmi	r8!, {r1, r4, r5, r6, r8, r9, sp, lr}^
     c4c:	636f766e 	cmnvs	pc, #115343360	; 0x6e00000
     c50:	6f697461 	svcvs	0x00697461
     c54:	62614c6e 	rsbvs	r4, r1, #28160	; 0x6e00
     c58:	00736c65 	rsbseq	r6, r3, r5, ror #24
     c5c:	344c6573 	strbcc	r6, [ip], #-1395	; 0xfffffa8d
     c60:	646f4d5f 	strbtvs	r4, [pc], #-3423	; c68 <errno+0xc64>
     c64:	6a624f65 	bvs	1894a00 <__bss_end__+0x186c950>
     c68:	54746365 	ldrbtpl	r6, [r4], #-869	; 0xfffffc9b
     c6c:	43657079 	cmnmi	r5, #121	; 0x79
     c70:	746e756f 	strbtvc	r7, [lr], #-1391	; 0xfffffa91
     c74:	4c657300 	stclmi	3, cr7, [r5], #-0
     c78:	6e495f34 	mcrvs	15, 2, r5, cr9, cr4, {1}
     c7c:	6f427469 	svcvs	0x00427469
     c80:	6e49746f 	cdpvs	4, 4, cr7, cr9, cr15, {3}
     c84:	47006f66 	strmi	r6, [r0, -r6, ror #30]
     c88:	4320554e 			; <UNDEFINED> instruction: 0x4320554e
     c8c:	39203131 	stmdbcc	r0!, {r0, r4, r5, r8, ip, sp}
     c90:	302e342e 	eorcc	r3, lr, lr, lsr #8
     c94:	616d2d20 	cmnvs	sp, r0, lsr #26
     c98:	2d206d72 	stccs	13, cr6, [r0, #-456]!	; 0xfffffe38
     c9c:	3d70746d 	cfldrdcc	mvd7, [r0, #-436]!	; 0xfffffe4c
     ca0:	74666f73 	strbtvc	r6, [r6], #-3955	; 0xfffff08d
     ca4:	6e6d2d20 	cdpvs	13, 6, cr2, cr13, cr0, {1}
     ca8:	6e752d6f 	cdpvs	13, 7, cr2, cr5, cr15, {3}
     cac:	67696c61 	strbvs	r6, [r9, -r1, ror #24]!
     cb0:	2d64656e 	cfstr64cs	mvdx6, [r4, #-440]!	; 0xfffffe48
     cb4:	65636361 	strbvs	r6, [r3, #-865]!	; 0xfffffc9f
     cb8:	2d207373 	stccs	3, cr7, [r0, #-460]!	; 0xfffffe34
     cbc:	6f6c666d 	svcvs	0x006c666d
     cc0:	612d7461 			; <UNDEFINED> instruction: 0x612d7461
     cc4:	733d6962 	teqvc	sp, #1605632	; 0x188000
     cc8:	6674666f 	ldrbtvs	r6, [r4], -pc, ror #12
     ccc:	6d2d2070 	stcvs	0, cr2, [sp, #-448]!	; 0xfffffe40
     cd0:	2d736c74 	ldclcs	12, cr6, [r3, #-464]!	; 0xfffffe30
     cd4:	6c616964 			; <UNDEFINED> instruction: 0x6c616964
     cd8:	3d746365 	ldclcc	3, cr6, [r4, #-404]!	; 0xfffffe6c
     cdc:	20756e67 	rsbscs	r6, r5, r7, ror #28
     ce0:	72616d2d 	rsbvc	r6, r1, #2880	; 0xb40
     ce4:	613d6863 	teqvs	sp, r3, ror #16
     ce8:	37766d72 			; <UNDEFINED> instruction: 0x37766d72
     cec:	2d20612d 	stfcss	f6, [r0, #-180]!	; 0xffffff4c
     cf0:	732d2067 			; <UNDEFINED> instruction: 0x732d2067
     cf4:	673d6474 			; <UNDEFINED> instruction: 0x673d6474
     cf8:	3131756e 	teqcc	r1, lr, ror #10
     cfc:	6e662d20 	cdpvs	13, 6, cr2, cr6, cr0, {1}
     d00:	69702d6f 	ldmdbvs	r0!, {r0, r1, r2, r3, r5, r6, r8, sl, fp, sp}^
     d04:	662d2065 	strtvs	r2, [sp], -r5, rrx
     d08:	732d6f6e 			; <UNDEFINED> instruction: 0x732d6f6e
     d0c:	6b636174 	blvs	18d92e4 <__bss_end__+0x18b1234>
     d10:	6f72702d 	svcvs	0x0072702d
     d14:	74636574 	strbtvc	r6, [r3], #-1396	; 0xfffffa8c
     d18:	2d20726f 	sfmcs	f7, 4, [r0, #-444]!	; 0xfffffe44
     d1c:	2d6f6e66 	stclcs	14, cr6, [pc, #-408]!	; b8c <errno+0xb88>
     d20:	6e797361 	cdpvs	3, 7, cr7, cr9, cr1, {3}
     d24:	6f726863 	svcvs	0x00726863
     d28:	73756f6e 	cmnvc	r5, #440	; 0x1b8
     d2c:	776e752d 	strbvc	r7, [lr, -sp, lsr #10]!
     d30:	2d646e69 	stclcs	14, cr6, [r4, #-420]!	; 0xfffffe5c
     d34:	6c626174 	stfvse	f6, [r2], #-464	; 0xfffffe30
     d38:	2d207365 	stccs	3, cr7, [r0, #-404]!	; 0xfffffe6c
     d3c:	736c7466 	cmnvc	ip, #1711276032	; 0x66000000
     d40:	646f6d2d 	strbtvs	r6, [pc], #-3373	; d48 <errno+0xd44>
     d44:	6c3d6c65 	ldcvs	12, cr6, [sp], #-404	; 0xfffffe6c
     d48:	6c61636f 	stclvs	3, cr6, [r1], #-444	; 0xfffffe44
     d4c:	6578652d 	ldrbvs	r6, [r8, #-1325]!	; 0xfffffad3
     d50:	65730063 	ldrbvs	r0, [r3, #-99]!	; 0xffffff9d
     d54:	4d5f344c 	cfldrdmi	mvd3, [pc, #-304]	; c2c <errno+0xc28>
     d58:	614d6773 	hvcvs	54899	; 0xd673
     d5c:	6e654c78 	mcrvs	12, 3, r4, cr5, cr8, {3}
     d60:	00687467 	rsbeq	r7, r8, r7, ror #8
     d64:	504d5241 	subpl	r5, sp, r1, asr #4
     d68:	656c4344 	strbvs	r4, [ip, #-836]!	; 0xfffffcbc
     d6c:	6e496e61 	cdpvs	14, 4, cr6, cr9, cr1, {3}
     d70:	696c6176 	stmdbvs	ip!, {r1, r2, r4, r5, r6, r8, sp, lr}^
     d74:	65746164 	ldrbvs	r6, [r4, #-356]!	; 0xfffffe9c
     d78:	7461445f 	strbtvc	r4, [r1], #-1119	; 0xfffffba1
     d7c:	52410061 	subpl	r0, r1, #97	; 0x61
     d80:	4944504d 	stmdbmi	r4, {r0, r2, r3, r6, ip, lr}^
     d84:	6c61766e 	stclvs	6, cr7, [r1], #-440	; 0xfffffe48
     d88:	74616469 	strbtvc	r6, [r1], #-1129	; 0xfffffb97
     d8c:	61445f65 	cmpvs	r4, r5, ror #30
     d90:	5f006174 	svcpl	0x00006174
     d94:	65646f6d 	strbvs	r6, [r4, #-3949]!	; 0xfffff093
     d98:	6a626f5f 	bvs	189cb1c <__bss_end__+0x1874a6c>
     d9c:	00746365 	rsbseq	r6, r4, r5, ror #6
     da0:	6d6f682f 	stclvs	8, cr6, [pc, #-188]!	; cec <errno+0xce8>
     da4:	75732f65 	ldrbvc	r2, [r3, #-3941]!	; 0xfffff09b
     da8:	6476796e 	ldrbtvs	r7, [r6], #-2414	; 0xfffff692
     dac:	2f676e6f 	svccs	0x00676e6f
     db0:	346c6573 	strbtcc	r6, [ip], #-1395	; 0xfffffa8d
     db4:	6e696d2f 	cdpvs	13, 6, cr6, cr9, cr15, {1}
     db8:	75625f69 	strbvc	r5, [r2, #-3945]!	; 0xfffff097
     dbc:	2f646c69 	svccs	0x00646c69
     dc0:	346c6573 	strbtcc	r6, [ip], #-1395	; 0xfffffa8d
     dc4:	7475742d 	ldrbtvc	r7, [r5], #-1069	; 0xfffffbd3
     dc8:	6169726f 	cmnvs	r9, pc, ror #4
     dcc:	6d2d736c 	stcvs	3, cr7, [sp, #-432]!	; 0xfffffe50
     dd0:	66696e61 	strbtvs	r6, [r9], -r1, ror #28
     dd4:	2f747365 	svccs	0x00747365
     dd8:	6f747574 	svcvs	0x00747574
     ddc:	6c616972 			; <UNDEFINED> instruction: 0x6c616972
     de0:	6975625f 	ldmdbvs	r5!, {r0, r1, r2, r3, r4, r6, r9, sp, lr}^
     de4:	2f00646c 	svccs	0x0000646c
     de8:	656d6f68 	strbvs	r6, [sp, #-3944]!	; 0xfffff098
     dec:	6e75732f 	cdpvs	3, 7, cr7, cr5, cr15, {1}
     df0:	6f647679 	svcvs	0x00647679
     df4:	732f676e 			; <UNDEFINED> instruction: 0x732f676e
     df8:	2f346c65 	svccs	0x00346c65
     dfc:	696e696d 	stmdbvs	lr!, {r0, r2, r3, r5, r6, r8, fp, sp, lr}^
     e00:	6975625f 	ldmdbvs	r5!, {r0, r1, r2, r3, r4, r6, r9, sp, lr}^
     e04:	732f646c 			; <UNDEFINED> instruction: 0x732f646c
     e08:	2d346c65 	ldccs	12, cr6, [r4, #-404]!	; 0xfffffe6c
     e0c:	6f747574 	svcvs	0x00747574
     e10:	6c616972 			; <UNDEFINED> instruction: 0x6c616972
     e14:	616d2d73 	smcvs	53971	; 0xd2d3
     e18:	6566696e 	strbvs	r6, [r6, #-2414]!	; 0xfffff692
     e1c:	6b2f7473 	blvs	bddff0 <__bss_end__+0xbb5f40>
     e20:	656e7265 	strbvs	r7, [lr, #-613]!	; 0xfffffd9b
     e24:	696c2f6c 	stmdbvs	ip!, {r2, r3, r5, r6, r8, r9, sl, fp, sp}^
     e28:	6c657362 	stclvs	3, cr7, [r5], #-392	; 0xfffffe78
     e2c:	72732f34 	rsbsvc	r2, r3, #52, 30	; 0xd0
     e30:	65732f63 	ldrbvs	r2, [r3, #-3939]!	; 0xfffff09d
     e34:	625f346c 	subsvs	r3, pc, #108, 8	; 0x6c000000
     e38:	69746f6f 	ldmdbvs	r4!, {r0, r1, r2, r3, r5, r6, r8, r9, sl, fp, sp, lr}^
     e3c:	2e6f666e 	cdpcs	6, 6, cr6, cr15, cr14, {3}
     e40:	65730063 	ldrbvs	r0, [r3, #-99]!	; 0xffffff9d
     e44:	615f346c 	cmpvs	pc, ip, ror #8
     e48:	5f686372 	svcpl	0x00686372
     e4c:	6f766e69 	svcvs	0x00766e69
     e50:	69746163 	ldmdbvs	r4!, {r0, r1, r5, r6, r8, sp, lr}^
     e54:	6c5f6e6f 	mrrcvs	14, 6, r6, pc, cr15	; <UNPREDICTABLE>
     e58:	6c656261 	sfmvs	f6, 2, [r5], #-388	; 0xfffffe7c
     e5c:	6f682f00 	svcvs	0x00682f00
     e60:	732f656d 			; <UNDEFINED> instruction: 0x732f656d
     e64:	76796e75 			; <UNDEFINED> instruction: 0x76796e75
     e68:	676e6f64 	strbvs	r6, [lr, -r4, ror #30]!
     e6c:	6c65732f 	stclvs	3, cr7, [r5], #-188	; 0xffffff44
     e70:	696d2f34 	stmdbvs	sp!, {r2, r4, r5, r8, r9, sl, fp, sp}^
     e74:	625f696e 	subsvs	r6, pc, #1802240	; 0x1b8000
     e78:	646c6975 	strbtvs	r6, [ip], #-2421	; 0xfffff68b
     e7c:	6c65732f 	stclvs	3, cr7, [r5], #-188	; 0xffffff44
     e80:	75742d34 	ldrbvc	r2, [r4, #-3380]!	; 0xfffff2cc
     e84:	69726f74 	ldmdbvs	r2!, {r2, r4, r5, r6, r8, r9, sl, fp, sp, lr}^
     e88:	2d736c61 	ldclcs	12, cr6, [r3, #-388]!	; 0xfffffe7c
     e8c:	696e616d 	stmdbvs	lr!, {r0, r2, r3, r5, r6, r8, sp, lr}^
     e90:	74736566 	ldrbtvc	r6, [r3], #-1382	; 0xfffffa9a
     e94:	6f72702f 	svcvs	0x0072702f
     e98:	7463656a 	strbtvc	r6, [r3], #-1386	; 0xfffffa96
     e9c:	65732f73 	ldrbvs	r2, [r3, #-3955]!	; 0xfffff08d
     ea0:	7572346c 	ldrbvc	r3, [r2, #-1132]!	; 0xfffffb94
     ea4:	6d69746e 	cfstrdvs	mvd7, [r9, #-440]!	; 0xfffffe48
     ea8:	72632f65 	rsbvc	r2, r3, #404	; 0x194
     eac:	65732f74 	ldrbvs	r2, [r3, #-3956]!	; 0xfffff08c
     eb0:	615f346c 	cmpvs	pc, ip, ror #8
     eb4:	2f686372 	svccs	0x00686372
     eb8:	63726161 	cmnvs	r2, #1073741848	; 0x40000018
     ebc:	2f323368 	svccs	0x00323368
     ec0:	346c6573 	strbtcc	r6, [ip], #-1395	; 0xfffffa8d
     ec4:	7472635f 	ldrbtvc	r6, [r2], #-863	; 0xfffffca1
     ec8:	00532e30 	subseq	r2, r3, r0, lsr lr
     ecc:	20554e47 	subscs	r4, r5, r7, asr #28
     ed0:	32205341 	eorcc	r5, r0, #67108865	; 0x4000001
     ed4:	0034332e 	eorseq	r3, r4, lr, lsr #6
     ed8:	5f666c45 	svcpl	0x00666c45
     edc:	72646441 	rsbvc	r6, r4, #1090519040	; 0x41000000
     ee0:	665f6100 	ldrbvs	r6, [pc], -r0, lsl #2
     ee4:	4500636e 	strmi	r6, [r0, #-878]	; 0xfffffc92
     ee8:	3233666c 	eorscc	r6, r3, #108, 12	; 0x6c00000
     eec:	726f575f 	rsbvc	r5, pc, #24903680	; 0x17c0000
     ef0:	682f0064 	stmdavs	pc!, {r2, r5, r6}	; <UNPREDICTABLE>
     ef4:	2f656d6f 	svccs	0x00656d6f
     ef8:	796e7573 	stmdbvc	lr!, {r0, r1, r4, r5, r6, r8, sl, ip, sp, lr}^
     efc:	6e6f6476 	mcrvs	4, 3, r6, cr15, cr6, {3}
     f00:	65732f67 	ldrbvs	r2, [r3, #-3943]!	; 0xfffff099
     f04:	6d2f346c 	cfstrsvs	mvf3, [pc, #-432]!	; d5c <errno+0xd58>
     f08:	5f696e69 	svcpl	0x00696e69
     f0c:	6c697562 	cfstr64vs	mvdx7, [r9], #-392	; 0xfffffe78
     f10:	65732f64 	ldrbvs	r2, [r3, #-3940]!	; 0xfffff09c
     f14:	742d346c 	strtvc	r3, [sp], #-1132	; 0xfffffb94
     f18:	726f7475 	rsbvc	r7, pc, #1962934272	; 0x75000000
     f1c:	736c6169 	cmnvc	ip, #1073741850	; 0x4000001a
     f20:	6e616d2d 	cdpvs	13, 6, cr6, cr1, cr13, {1}
     f24:	73656669 	cmnvc	r5, #110100480	; 0x6900000
     f28:	72702f74 	rsbsvc	r2, r0, #116, 30	; 0x1d0
     f2c:	63656a6f 	cmnvs	r5, #454656	; 0x6f000
     f30:	732f7374 			; <UNDEFINED> instruction: 0x732f7374
     f34:	72346c65 	eorsvc	r6, r4, #25856	; 0x6500
     f38:	69746e75 	ldmdbvs	r4!, {r0, r2, r4, r5, r6, r9, sl, fp, sp, lr}^
     f3c:	732f656d 			; <UNDEFINED> instruction: 0x732f656d
     f40:	732f6372 			; <UNDEFINED> instruction: 0x732f6372
     f44:	74726174 	ldrbtvc	r6, [r2], #-372	; 0xfffffe8c
     f48:	6f6f725f 	svcvs	0x006f725f
     f4c:	00632e74 	rsbeq	r2, r3, r4, ror lr
     f50:	656d5f70 	strbvs	r5, [sp, #-3952]!	; 0xfffff090
     f54:	007a736d 	rsbseq	r7, sl, sp, ror #6
     f58:	346c6573 	strbtcc	r6, [ip], #-1395	; 0xfffffa8d
     f5c:	746e7572 	strbtvc	r7, [lr], #-1394	; 0xfffffa8e
     f60:	5f656d69 	svcpl	0x00656d69
     f64:	746e6975 	strbtvc	r6, [lr], #-2421	; 0xfffff68b
     f68:	745f3233 	ldrbvc	r3, [pc], #-563	; f70 <errno+0xf6c>
     f6c:	705f7000 	subsvc	r7, pc, r0
     f70:	72646461 	rsbvc	r6, r4, #1627389952	; 0x61000000
     f74:	705f6100 	subsvc	r6, pc, r0, lsl #2
     f78:	70007274 	andvc	r7, r0, r4, ror r2
     f7c:	7079745f 	rsbsvc	r7, r9, pc, asr r4
     f80:	745f0065 	ldrbvc	r0, [pc], #-101	; f88 <errno+0xf84>
     f84:	61746164 	cmnvs	r4, r4, ror #2
     f88:	6174735f 	cmnvs	r4, pc, asr r3
     f8c:	61007472 	tstvs	r0, r2, ror r4
     f90:	7079745f 	rsbsvc	r7, r9, pc, asr r4
     f94:	6c450065 	mcrrvs	0, 6, r0, r5, cr5
     f98:	5f323366 	svcpl	0x00323366
     f9c:	0066664f 	rsbeq	r6, r6, pc, asr #12
     fa0:	61765f61 	cmnvs	r6, r1, ror #30
     fa4:	6c45006c 	mcrrvs	0, 6, r0, r5, cr12
     fa8:	5f323366 	svcpl	0x00323366
     fac:	72646850 	rsbvc	r6, r4, #80, 16	; 0x500000
     fb0:	666c4500 	strbtvs	r4, [ip], -r0, lsl #10
     fb4:	6468505f 	strbtvs	r5, [r8], #-95	; 0xffffffa1
     fb8:	6f620072 	svcvs	0x00620072
     fbc:	695f746f 	ldmdbvs	pc, {r0, r1, r2, r3, r5, r6, sl, ip, sp, lr}^	; <UNPREDICTABLE>
     fc0:	006f666e 	rsbeq	r6, pc, lr, ror #12
     fc4:	6c665f70 	stclvs	15, cr5, [r6], #-448	; 0xfffffe40
     fc8:	00736761 	rsbseq	r6, r3, r1, ror #14
     fcc:	6e755f61 	cdpvs	15, 7, cr5, cr5, cr1, {3}
     fd0:	735f5f00 	cmpvc	pc, #0, 30
     fd4:	5f346c65 	svcpl	0x00346c65
     fd8:	72617473 	rsbvc	r7, r1, #1929379840	; 0x73000000
     fdc:	6f725f74 	svcvs	0x00725f74
     fe0:	7000746f 	andvc	r7, r0, pc, ror #8
     fe4:	66666f5f 	uqsaxvs	r6, r6, pc	; <UNPREDICTABLE>
     fe8:	00746573 	rsbseq	r6, r4, r3, ror r5
     fec:	7362745f 	cmnvc	r2, #1593835520	; 0x5f000000
     ff0:	6e655f73 	mcrvs	15, 3, r5, cr5, cr3, {3}
     ff4:	5f700064 	svcpl	0x00700064
     ff8:	656c6966 	strbvs	r6, [ip, #-2406]!	; 0xfffff69a
     ffc:	70007a73 	andvc	r7, r0, r3, ror sl
    1000:	6461765f 	strbtvs	r7, [r1], #-1631	; 0xfffff9a1
    1004:	5f007264 	svcpl	0x00007264
    1008:	73736274 	cmnvc	r3, #116, 4	; 0x40000007
    100c:	6174735f 	cmnvs	r4, pc, asr r3
    1010:	70007472 	andvc	r7, r0, r2, ror r4
    1014:	696c615f 	stmdbvs	ip!, {r0, r1, r2, r3, r4, r6, r8, sp, lr}^
    1018:	61006e67 	tstvs	r0, r7, ror #28
    101c:	5f767875 	svcpl	0x00767875
    1020:	6c740074 	ldclvs	0, cr0, [r4], #-464	; 0xfffffe30
    1024:	65685f73 	strbvs	r5, [r8, #-3955]!	; 0xfffff08d
    1028:	72656461 	rsbvc	r6, r5, #1627389952	; 0x61000000
    102c:	666c4500 	strbtvs	r4, [ip], -r0, lsl #10
    1030:	415f3233 	cmpmi	pc, r3, lsr r2	; <UNPREDICTABLE>
    1034:	00726464 	rsbseq	r6, r2, r4, ror #8
    1038:	6164745f 	cmnvs	r4, pc, asr r4
    103c:	655f6174 	ldrbvs	r6, [pc, #-372]	; ed0 <errno+0xecc>
    1040:	7300646e 	movwvc	r6, #1134	; 0x46e
    1044:	72346c65 	eorsvc	r6, r4, #25856	; 0x6500
    1048:	69746e75 	ldmdbvs	r4!, {r0, r2, r4, r5, r6, r9, sl, fp, sp, lr}^
    104c:	755f656d 	ldrbvc	r6, [pc, #-1389]	; ae7 <errno+0xae3>
    1050:	70746e69 	rsbsvc	r6, r4, r9, ror #28
    1054:	745f7274 	ldrbvc	r7, [pc], #-628	; 105c <errno+0x1058>
    1058:	6c657300 	stclvs	3, cr7, [r5], #-0
    105c:	6e757234 	mrcvs	2, 3, r7, cr5, cr4, {1}
    1060:	656d6974 	strbvs	r6, [sp, #-2420]!	; 0xfffff68c
    1064:	6978655f 	ldmdbvs	r8!, {r0, r1, r2, r3, r4, r6, r8, sl, sp, lr}^
    1068:	62635f74 	rsbvs	r5, r3, #116, 30	; 0x1d0
    106c:	6c657300 	stclvs	3, cr7, [r5], #-0
    1070:	6e757234 	mrcvs	2, 3, r7, cr5, cr4, {1}
    1074:	656d6974 	strbvs	r6, [sp, #-2420]!	; 0xfffff68c
    1078:	7465735f 	strbtvc	r7, [r5], #-863	; 0xfffffca1
    107c:	6978655f 	ldmdbvs	r8!, {r0, r1, r2, r3, r4, r6, r8, sl, sp, lr}^
    1080:	65730074 	ldrbvs	r0, [r3, #-116]!	; 0xffffff8c
    1084:	7572346c 	ldrbvc	r3, [r2, #-1132]!	; 0xfffffb94
    1088:	6d69746e 	cfstrdvs	mvd7, [r9, #-440]!	; 0xfffffe48
    108c:	72775f65 	rsbsvc	r5, r7, #404	; 0x194
    1090:	5f657469 	svcpl	0x00657469
    1094:	64697074 	strbtvs	r7, [r9], #-116	; 0xffffff8c
    1098:	6c655f72 	stclvs	15, cr5, [r5], #-456	; 0xfffffe38
    109c:	65730030 	ldrbvs	r0, [r3, #-48]!	; 0xffffffd0
    10a0:	7572346c 	ldrbvc	r3, [r2, #-1132]!	; 0xfffffb94
    10a4:	6d69746e 	cfstrdvs	mvd7, [r9, #-440]!	; 0xfffffe48
    10a8:	6f6d5f65 	svcvs	0x006d5f65
    10ac:	695f6576 	ldmdbvs	pc, {r1, r2, r4, r5, r6, r8, sl, sp, lr}^	; <UNPREDICTABLE>
    10b0:	6974696e 	ldmdbvs	r4!, {r1, r2, r3, r5, r6, r8, fp, sp, lr}^
    10b4:	745f6c61 	ldrbvc	r6, [pc], #-3169	; 10bc <errno+0x10b8>
    10b8:	6500736c 	strvs	r7, [r0, #-876]	; 0xfffffc94
    10bc:	7974706d 	ldmdbvc	r4!, {r0, r2, r3, r5, r6, ip, sp, lr}^
    10c0:	736c745f 	cmnvc	ip, #1593835520	; 0x5f000000
    10c4:	6c657300 	stclvs	3, cr7, [r5], #-0
    10c8:	6e757234 	mrcvs	2, 3, r7, cr5, cr4, {1}
    10cc:	656d6974 	strbvs	r6, [sp, #-2420]!	; 0xfffff68c
    10d0:	7a69735f 	bvc	1a5de54 <__bss_end__+0x1a35da4>
    10d4:	00745f65 	rsbseq	r5, r4, r5, ror #30
    10d8:	74696e69 	strbtvc	r6, [r9], #-3689	; 0xfffff197
    10dc:	5f6c6169 	svcpl	0x006c6169
    10e0:	65726874 	ldrbvs	r6, [r2, #-2164]!	; 0xfffff78c
    10e4:	695f6461 	ldmdbvs	pc, {r0, r5, r6, sl, sp, lr}^	; <UNPREDICTABLE>
    10e8:	625f6370 	subsvs	r6, pc, #112, 6	; 0xc0000001
    10ec:	65666675 	strbvs	r6, [r6, #-1653]!	; 0xfffff98b
    10f0:	65680072 	strbvs	r0, [r8, #-114]!	; 0xffffff8e
    10f4:	72656461 	rsbvc	r6, r5, #1627389952	; 0x61000000
    10f8:	65730073 	ldrbvs	r0, [r3, #-115]!	; 0xffffff8d
    10fc:	7572346c 	ldrbvc	r3, [r2, #-1132]!	; 0xfffffb94
    1100:	6d69746e 	cfstrdvs	mvd7, [r9, #-440]!	; 0xfffffe48
    1104:	6e655f65 	cdpvs	15, 6, cr5, cr5, cr5, {3}
    1108:	73007076 	movwvc	r7, #118	; 0x76
    110c:	72346c65 	eorsvc	r6, r4, #25856	; 0x6500
    1110:	69746e75 	ldmdbvs	r4!, {r0, r2, r4, r5, r6, r9, sl, fp, sp, lr}^
    1114:	675f656d 	ldrbvs	r6, [pc, -sp, ror #10]
    1118:	745f7465 	ldrbvc	r7, [pc], #-1125	; 1120 <errno+0x111c>
    111c:	625f736c 	subsvs	r7, pc, #108, 6	; 0xb0000001
    1120:	00657361 	rsbeq	r7, r5, r1, ror #6
    1124:	67616d69 	strbvs	r6, [r1, -r9, ror #26]!
    1128:	69735f65 	ldmdbvs	r3!, {r0, r2, r5, r6, r8, r9, sl, fp, ip, lr}^
    112c:	6300657a 	movwvs	r6, #1402	; 0x57a
    1130:	746e756f 	strbtvc	r7, [lr], #-1391	; 0xfffffa91
    1134:	6c657300 	stclvs	3, cr7, [r5], #-0
    1138:	6e757234 	mrcvs	2, 3, r7, cr5, cr4, {1}
    113c:	656d6974 	strbvs	r6, [sp, #-2420]!	; 0xfffff68c
    1140:	6f6f625f 	svcvs	0x006f625f
    1144:	666e6974 			; <UNDEFINED> instruction: 0x666e6974
    1148:	656d006f 	strbvs	r0, [sp, #-111]!	; 0xffffff91
    114c:	79726f6d 	ldmdbvc	r2!, {r0, r2, r3, r5, r6, r8, r9, sl, fp, sp, lr}^
    1150:	7a69735f 	bvc	1a5ded4 <__bss_end__+0x1a35e24>
    1154:	73690065 	cmnvc	r9, #101	; 0x65
    1158:	696e695f 	stmdbvs	lr!, {r0, r1, r2, r3, r4, r6, r8, fp, sp, lr}^
    115c:	6c616974 			; <UNDEFINED> instruction: 0x6c616974
    1160:	7268745f 	rsbvc	r7, r8, #1593835520	; 0x5f000000
    1164:	00646165 	rsbeq	r6, r4, r5, ror #2
    1168:	346c6573 	strbtcc	r6, [ip], #-1395	; 0xfffffa8d
    116c:	746e7572 	strbtvc	r7, [lr], #-1394	; 0xfffffa8e
    1170:	5f656d69 	svcpl	0x00656d69
    1174:	5f746573 	svcpl	0x00746573
    1178:	5f736c74 	svcpl	0x00736c74
    117c:	65736162 	ldrbvs	r6, [r3, #-354]!	; 0xfffffe9e
    1180:	73656400 	cmnvc	r5, #0, 8
    1184:	6c745f74 	ldclvs	15, cr5, [r4], #-464	; 0xfffffe30
    1188:	65730073 	ldrbvs	r0, [r3, #-115]!	; 0xffffff8d
    118c:	7572346c 	ldrbvc	r3, [r2, #-1132]!	; 0xfffffb94
    1190:	6d69746e 	cfstrdvs	mvd7, [r9, #-440]!	; 0xfffffe48
    1194:	78655f65 	stmdavc	r5!, {r0, r2, r5, r6, r8, r9, sl, fp, ip, lr}^
    1198:	70007469 	andvc	r7, r0, r9, ror #8
    119c:	72676f72 	rsbvc	r6, r7, #456	; 0x1c8
    11a0:	685f6d61 	ldmdavs	pc, {r0, r5, r6, r8, sl, fp, sp, lr}^	; <UNPREDICTABLE>
    11a4:	65646165 	strbvs	r6, [r4, #-357]!	; 0xfffffe9b
    11a8:	6f6c0072 	svcvs	0x006c0072
    11ac:	5f6c6163 	svcpl	0x006c6163
    11b0:	5f736c74 	svcpl	0x00736c74
    11b4:	74736564 	ldrbtvc	r6, [r3], #-1380	; 0xfffffa9c
    11b8:	6d656d00 	stclvs	13, cr6, [r5, #-0]
    11bc:	7a69735f 	bvc	1a5df40 <__bss_end__+0x1a35e90>
    11c0:	6e690065 	cdpvs	0, 6, cr0, cr9, cr5, {3}
    11c4:	61697469 	cmnvs	r9, r9, ror #8
    11c8:	68745f6c 	ldmdavs	r4!, {r2, r3, r5, r6, r8, r9, sl, fp, ip, lr}^
    11cc:	64616572 	strbtvs	r6, [r1], #-1394	; 0xfffffa8e
    11d0:	736c745f 	cmnvc	ip, #1593835520	; 0x5f000000
    11d4:	7361625f 	cmnvc	r1, #-268435451	; 0xf0000005
    11d8:	6f630065 	svcvs	0x00630065
    11dc:	73006564 	movwvc	r6, #1380	; 0x564
    11e0:	72346c65 	eorsvc	r6, r4, #25856	; 0x6500
    11e4:	69746e75 	ldmdbvs	r4!, {r0, r2, r4, r5, r6, r9, sl, fp, sp, lr}^
    11e8:	615f656d 	cmpvs	pc, sp, ror #10
    11ec:	00767875 	rsbseq	r7, r6, r5, ror r8
    11f0:	346c6573 	strbtcc	r6, [ip], #-1395	; 0xfffffa8d
    11f4:	746e7572 	strbtvc	r7, [lr], #-1394	; 0xfffffa8e
    11f8:	5f656d69 	svcpl	0x00656d69
    11fc:	64616572 	strbtvs	r6, [r1], #-1394	; 0xfffffa8e
    1200:	6970745f 	ldmdbvs	r0!, {r0, r1, r2, r3, r4, r6, sl, ip, sp, lr}^
    1204:	655f7264 	ldrbvs	r7, [pc, #-612]	; fa8 <errno+0xfa4>
    1208:	7400306c 	strvc	r3, [r0], #-108	; 0xffffff94
    120c:	61657268 	cmnvs	r5, r8, ror #4
    1210:	6f6c5f64 	svcvs	0x006c5f64
    1214:	70756b6f 	rsbsvc	r6, r5, pc, ror #22
    1218:	6f72665f 	svcvs	0x0072665f
    121c:	6c745f6d 	ldclvs	15, cr5, [r4], #-436	; 0xfffffe4c
    1220:	65725f73 	ldrbvs	r5, [r2, #-3955]!	; 0xfffff08d
    1224:	6e6f6967 	vnmulvs.f16	s13, s30, s15	; <UNPREDICTABLE>
    1228:	6c657300 	stclvs	3, cr7, [r5], #-0
    122c:	6e757234 	mrcvs	2, 3, r7, cr5, cr4, {1}
    1230:	656d6974 	strbvs	r6, [sp, #-2420]!	; 0xfffff68c
    1234:	7465675f 	strbtvc	r6, [r5], #-1887	; 0xfffff8a1
    1238:	736c745f 	cmnvc	ip, #1593835520	; 0x5f000000
    123c:	7a69735f 	bvc	1a5dfc0 <__bss_end__+0x1a35f10>
    1240:	6f630065 	svcvs	0x00630065
    1244:	745f7970 	ldrbvc	r7, [pc], #-2416	; 124c <errno+0x1248>
    1248:	645f736c 	ldrbvs	r7, [pc], #-876	; 1250 <errno+0x124c>
    124c:	00617461 	rsbeq	r7, r1, r1, ror #8
    1250:	346c6573 	strbtcc	r6, [ip], #-1395	; 0xfffffa8d
    1254:	746e7572 	strbtvc	r7, [lr], #-1394	; 0xfffffa8e
    1258:	5f656d69 	svcpl	0x00656d69
    125c:	74697277 	strbtvc	r7, [r9], #-631	; 0xfffffd89
    1260:	6c745f65 	ldclvs	15, cr5, [r4], #-404	; 0xfffffe6c
    1264:	6d695f73 	stclvs	15, cr5, [r9, #-460]!	; 0xfffffe34
    1268:	00656761 	rsbeq	r6, r5, r1, ror #14
    126c:	6b6f6f6c 	blvs	1bdd024 <__bss_end__+0x1bb4f74>
    1270:	73007075 	movwvc	r7, #117	; 0x75
    1274:	72346c65 	eorsvc	r6, r4, #25856	; 0x6500
    1278:	69746e75 	ldmdbvs	r4!, {r0, r2, r4, r5, r6, r9, sl, fp, sp, lr}^
    127c:	615f656d 	cmpvs	pc, sp, ror #10
    1280:	00636772 	rsbeq	r6, r3, r2, ror r7
    1284:	346c6573 	strbtcc	r6, [ip], #-1395	; 0xfffffa8d
    1288:	746e7572 	strbtvc	r7, [lr], #-1394	; 0xfffffa8e
    128c:	5f656d69 	svcpl	0x00656d69
    1290:	76677261 	strbtvc	r7, [r7], -r1, ror #4
    1294:	756e7500 	strbvc	r7, [lr, #-1280]!	; 0xfffffb00
    1298:	31646573 	smccc	18003	; 0x4653
    129c:	756e7500 	strbvc	r7, [lr, #-1280]!	; 0xfffffb00
    12a0:	33646573 	cmncc	r4, #482344960	; 0x1cc00000
    12a4:	756e7500 	strbvc	r7, [lr, #-1280]!	; 0xfffffb00
    12a8:	34646573 	strbtcc	r6, [r4], #-1395	; 0xfffffa8d
    12ac:	756e7500 	strbvc	r7, [lr, #-1280]!	; 0xfffffb00
    12b0:	35646573 	strbcc	r6, [r4, #-1395]!	; 0xfffffa8d
    12b4:	72617000 	rsbvc	r7, r1, #0
    12b8:	615f6573 	cmpvs	pc, r3, ror r5	; <UNPREDICTABLE>
    12bc:	00767875 	rsbseq	r7, r6, r5, ror r8
    12c0:	5f736c74 	svcpl	0x00736c74
    12c4:	65736162 	ldrbvs	r6, [r3, #-354]!	; 0xfffffe9e
    12c8:	6f72665f 	svcvs	0x0072665f
    12cc:	6c745f6d 	ldclvs	15, cr5, [r4], #-436	; 0xfffffe4c
    12d0:	65725f73 	ldrbvs	r5, [r2, #-3955]!	; 0xfffff08d
    12d4:	6e6f6967 	vnmulvs.f16	s13, s30, s15	; <UNPREDICTABLE>
    12d8:	616f6c00 	cmnvs	pc, r0, lsl #24
    12dc:	6c745f64 	ldclvs	15, cr5, [r4], #-400	; 0xfffffe70
    12e0:	61645f73 	smcvs	17907	; 0x45f3
    12e4:	6c006174 	stfvss	f6, [r0], {116}	; 0x74
    12e8:	6c61636f 	stclvs	3, cr6, [r1], #-444	; 0xfffffe44
    12ec:	736c745f 	cmnvc	ip, #1593835520	; 0x5f000000
    12f0:	7361625f 	cmnvc	r1, #-268435451	; 0xf0000005
    12f4:	68740065 	ldmdavs	r4!, {r0, r2, r5, r6}^
    12f8:	64616572 	strbtvs	r6, [r1], #-1394	; 0xfffffa8e
    12fc:	6f6f6c5f 	svcvs	0x006f6c5f
    1300:	5f70756b 	svcpl	0x0070756b
    1304:	65640074 	strbvs	r0, [r4, #-116]!	; 0xffffff8c
    1308:	745f7473 	ldrbvc	r7, [pc], #-1139	; 1310 <errno+0x130c>
    130c:	625f736c 	subsvs	r7, pc, #108, 6	; 0xb0000001
    1310:	00657361 	rsbeq	r7, r5, r1, ror #6
    1314:	5f736c74 	svcpl	0x00736c74
    1318:	72646461 	rsbvc	r6, r4, #1627389952	; 0x61000000
    131c:	735f5f00 	cmpvc	pc, #0, 30
    1320:	72346c65 	eorsvc	r6, r4, #25856	; 0x6500
    1324:	69746e75 	ldmdbvs	r4!, {r0, r2, r4, r5, r6, r9, sl, fp, sp, lr}^
    1328:	6c5f656d 	cfldr64vs	mvdx6, [pc], {109}	; 0x6d
    132c:	5f64616f 	svcpl	0x0064616f
    1330:	00766e65 	rsbseq	r6, r6, r5, ror #28
    1334:	5f797274 	svcpl	0x00797274
    1338:	74696e69 	strbtvc	r6, [r9], #-3689	; 0xfffff197
    133c:	6174735f 	cmnvs	r4, pc, asr r3
    1340:	5f636974 	svcpl	0x00636974
    1344:	00736c74 	rsbseq	r6, r3, r4, ror ip
    1348:	6d6f682f 	stclvs	8, cr6, [pc, #-188]!	; 1294 <errno+0x1290>
    134c:	75732f65 	ldrbvc	r2, [r3, #-3941]!	; 0xfffff09b
    1350:	6476796e 	ldrbtvs	r7, [r6], #-2414	; 0xfffff692
    1354:	2f676e6f 	svccs	0x00676e6f
    1358:	346c6573 	strbtcc	r6, [ip], #-1395	; 0xfffffa8d
    135c:	6e696d2f 	cdpvs	13, 6, cr6, cr9, cr15, {1}
    1360:	75625f69 	strbvc	r5, [r2, #-3945]!	; 0xfffff097
    1364:	2f646c69 	svccs	0x00646c69
    1368:	346c6573 	strbtcc	r6, [ip], #-1395	; 0xfffffa8d
    136c:	7475742d 	ldrbtvc	r7, [r5], #-1069	; 0xfffffbd3
    1370:	6169726f 	cmnvs	r9, pc, ror #4
    1374:	6d2d736c 	stcvs	3, cr7, [sp, #-432]!	; 0xfffffe50
    1378:	66696e61 	strbtvs	r6, [r9], -r1, ror #28
    137c:	2f747365 	svccs	0x00747365
    1380:	6a6f7270 	bvs	1bddd48 <__bss_end__+0x1bb5c98>
    1384:	73746365 	cmnvc	r4, #-1811939327	; 0x94000001
    1388:	6c65732f 	stclvs	3, cr7, [r5], #-188	; 0xffffff44
    138c:	6e757234 	mrcvs	2, 3, r7, cr5, cr4, {1}
    1390:	656d6974 	strbvs	r6, [sp, #-2420]!	; 0xfffff68c
    1394:	6372732f 	cmnvs	r2, #-1140850688	; 0xbc000000
    1398:	766e652f 	strbtvc	r6, [lr], -pc, lsr #10
    139c:	6200632e 	andvs	r6, r0, #-1207959552	; 0xb8000000
    13a0:	73657479 	cmnvc	r5, #2030043136	; 0x79000000
    13a4:	736c7400 	cmnvc	ip, #0, 8
    13a8:	6f72665f 	svcvs	0x0072665f
    13ac:	6c745f6d 	ldclvs	15, cr5, [r4], #-436	; 0xfffffe4c
    13b0:	65725f73 	ldrbvs	r5, [r2, #-3955]!	; 0xfffff08d
    13b4:	6e6f6967 	vnmulvs.f16	s13, s30, s15	; <UNPREDICTABLE>
    13b8:	735f5f00 	cmpvc	pc, #0, 30
    13bc:	72346c65 	eorsvc	r6, r4, #25856	; 0x6500
    13c0:	69746e75 	ldmdbvs	r4!, {r0, r2, r4, r5, r6, r9, sl, fp, sp, lr}^
    13c4:	775f656d 	ldrbvc	r6, [pc, -sp, ror #10]
    13c8:	65746972 	ldrbvs	r6, [r4, #-2418]!	; 0xfffff68e
    13cc:	736c745f 	cmnvc	ip, #1593835520	; 0x5f000000
    13d0:	7261765f 	rsbvc	r7, r1, #99614720	; 0x5f00000
    13d4:	6c626169 	stfvse	f6, [r2], #-420	; 0xfffffe5c
    13d8:	6c740065 	ldclvs	0, cr0, [r4], #-404	; 0xfffffe6c
    13dc:	656d5f73 	strbvs	r5, [sp, #-3955]!	; 0xfffff08d
    13e0:	79726f6d 	ldmdbvc	r2!, {r0, r2, r3, r5, r6, r8, r9, sl, fp, sp, lr}^
    13e4:	636f6c00 	cmnvs	pc, #0, 24
    13e8:	745f6c61 	ldrbvc	r6, [pc], #-3169	; 13f0 <errno+0x13ec>
    13ec:	7500736c 	strvc	r7, [r0, #-876]	; 0xfffffc94
    13f0:	6573756e 	ldrbvs	r7, [r3, #-1390]!	; 0xfffffa92
    13f4:	75003064 	strvc	r3, [r0, #-100]	; 0xffffff9c
    13f8:	6573756e 	ldrbvs	r7, [r3, #-1390]!	; 0xfffffa92
    13fc:	73003264 	movwvc	r3, #612	; 0x264
    1400:	72346c65 	eorsvc	r6, r4, #25856	; 0x6500
    1404:	69746e75 	ldmdbvs	r4!, {r0, r2, r4, r5, r6, r9, sl, fp, sp, lr}^
    1408:	695f656d 	ldmdbvs	pc, {r0, r2, r3, r5, r6, r8, sl, sp, lr}^	; <UNPREDICTABLE>
    140c:	6974696e 	ldmdbvs	r4!, {r1, r2, r3, r5, r6, r8, fp, sp, lr}^
    1410:	745f6c61 	ldrbvc	r6, [pc], #-3169	; 1418 <errno+0x1414>
    1414:	655f736c 	ldrbvs	r7, [pc, #-876]	; 10b0 <errno+0x10ac>
    1418:	6c62616e 	stfvse	f6, [r2], #-440	; 0xfffffe48
    141c:	74006465 	strvc	r6, [r0], #-1125	; 0xfffffb9b
    1420:	725f736c 	subsvc	r7, pc, #108, 6	; 0xb0000001
    1424:	6f696765 	svcvs	0x00696765
    1428:	69735f6e 	ldmdbvs	r3!, {r1, r2, r3, r5, r6, r8, r9, sl, fp, ip, lr}^
    142c:	7400657a 	strvc	r6, [r0], #-1402	; 0xfffffa86
    1430:	665f736c 	ldrbvs	r7, [pc], -ip, ror #6
    1434:	5f6d6f72 	svcpl	0x006d6f72
    1438:	5f736c74 	svcpl	0x00736c74
    143c:	65736162 	ldrbvs	r6, [r3, #-354]!	; 0xfffffe9e
    1440:	6c657300 	stclvs	3, cr7, [r5], #-0
    1444:	6e757234 	mrcvs	2, 3, r7, cr5, cr4, {1}
    1448:	656d6974 	strbvs	r6, [sp, #-2420]!	; 0xfffff68c
    144c:	7465735f 	strbtvc	r7, [r5], #-863	; 0xfffffca1
    1450:	6572705f 	ldrbvs	r7, [r2, #-95]!	; 0xffffffa1
    1454:	6978655f 	ldmdbvs	r8!, {r0, r1, r2, r3, r4, r6, r8, sl, sp, lr}^
    1458:	65730074 	ldrbvs	r0, [r3, #-116]!	; 0xffffff8c
    145c:	445f344c 	ldrbmi	r3, [pc], #-1100	; 1464 <errno+0x1460>
    1460:	67756265 	ldrbvs	r6, [r5, -r5, ror #4]!
    1464:	656d614e 	strbvs	r6, [sp, #-334]!	; 0xfffffeb2
    1468:	65726854 	ldrbvs	r6, [r2, #-2132]!	; 0xfffff7ac
    146c:	6e006461 	cdpvs	4, 0, cr6, cr0, cr1, {3}
    1470:	5f656d61 	svcpl	0x00656d61
    1474:	636f7270 	cmnvs	pc, #112, 4
    1478:	00737365 	rsbseq	r7, r3, r5, ror #6
    147c:	346c6573 	strbtcc	r6, [ip], #-1395	; 0xfffffa8d
    1480:	746e7572 	strbtvc	r7, [lr], #-1394	; 0xfffffa8e
    1484:	5f656d69 	svcpl	0x00656d69
    1488:	636f7270 	cmnvs	pc, #112, 4
    148c:	5f737365 	svcpl	0x00737365
    1490:	656d616e 	strbvs	r6, [sp, #-366]!	; 0xfffffe92
    1494:	6c657300 	stclvs	3, cr7, [r5], #-0
    1498:	6e757234 	mrcvs	2, 3, r7, cr5, cr4, {1}
    149c:	656d6974 	strbvs	r6, [sp, #-2420]!	; 0xfffff68c
    14a0:	6572705f 	ldrbvs	r7, [r2, #-95]!	; 0xffffffa1
    14a4:	6978655f 	ldmdbvs	r8!, {r0, r1, r2, r3, r4, r6, r8, sl, sp, lr}^
    14a8:	62635f74 	rsbvs	r5, r3, #116, 30	; 0x1d0
    14ac:	73627400 	cmnvc	r2, #0, 8
    14b0:	65640073 	strbvs	r0, [r4, #-115]!	; 0xffffff8d
    14b4:	615f7473 	cmpvs	pc, r3, ror r4	; <UNPREDICTABLE>
    14b8:	00726464 	rsbseq	r6, r2, r4, ror #8
    14bc:	74696e69 	strbtvc	r6, [r9], #-3689	; 0xfffff197
    14c0:	5f6c6169 	svcpl	0x006c6169
    14c4:	65726874 	ldrbvs	r6, [r2, #-2164]!	; 0xfffff78c
    14c8:	745f6461 	ldrbvc	r6, [pc], #-1121	; 14d0 <errno+0x14cc>
    14cc:	70006263 	andvc	r6, r0, r3, ror #4
    14d0:	65737261 	ldrbvs	r7, [r3, #-609]!	; 0xfffffd9f
    14d4:	6468705f 	strbtvs	r7, [r8], #-95	; 0xffffffa1
    14d8:	5f007372 	svcpl	0x00007372
    14dc:	6e69665f 	mcrvs	6, 3, r6, cr9, cr15, {2}
    14e0:	72615f69 	rsbvc	r5, r1, #420	; 0x1a4
    14e4:	5f796172 	svcpl	0x00796172
    14e8:	72617473 	rsbvc	r7, r1, #1929379840	; 0x73000000
    14ec:	6f720074 	svcvs	0x00720074
    14f0:	6e697475 	mcrvs	4, 3, r7, cr9, cr5, {3}
    14f4:	5f5f0065 	svcpl	0x005f0065
    14f8:	346c6573 	strbtcc	r6, [ip], #-1395	; 0xfffffa8d
    14fc:	746e7572 	strbtvc	r7, [lr], #-1394	; 0xfffffa8e
    1500:	5f656d69 	svcpl	0x00656d69
    1504:	5f6e7572 	svcpl	0x006e7572
    1508:	74736564 	ldrbtvc	r6, [r3], #-1380	; 0xfffffa9c
    150c:	74637572 	strbtvc	r7, [r3], #-1394	; 0xfffffa8e
    1510:	0073726f 	rsbseq	r7, r3, pc, ror #4
    1514:	65735f5f 	ldrbvs	r5, [r3, #-3935]!	; 0xfffff0a1
    1518:	7572346c 	ldrbvc	r3, [r2, #-1132]!	; 0xfffffb94
    151c:	6d69746e 	cfstrdvs	mvd7, [r9, #-440]!	; 0xfffffe48
    1520:	75725f65 	ldrbvc	r5, [r2, #-3941]!	; 0xfffff09b
    1524:	6f635f6e 	svcvs	0x00635f6e
    1528:	7274736e 	rsbsvc	r7, r4, #-1207959551	; 0xb8000001
    152c:	6f746375 	svcvs	0x00746375
    1530:	70007372 	andvc	r7, r0, r2, ror r3
    1534:	6e696572 	mcrvs	5, 3, r6, cr9, cr2, {3}
    1538:	615f7469 	cmpvs	pc, r9, ror #8
    153c:	79617272 	stmdbvc	r1!, {r1, r4, r5, r6, r9, ip, sp, lr}^
    1540:	6e656c5f 	mcrvs	12, 3, r6, cr5, cr15, {2}
    1544:	695f5f00 	ldmdbvs	pc, {r8, r9, sl, fp, ip, lr}^	; <UNPREDICTABLE>
    1548:	5f74696e 	svcpl	0x0074696e
    154c:	61727261 	cmnvs	r2, r1, ror #4
    1550:	74735f79 	ldrbtvc	r5, [r3], #-3961	; 0xfffff087
    1554:	00747261 	rsbseq	r7, r4, r1, ror #4
    1558:	6e695f5f 	mcrvs	15, 3, r5, cr9, cr15, {2}
    155c:	615f7469 	cmpvs	pc, r9, ror #8
    1560:	79617272 	stmdbvc	r1!, {r1, r4, r5, r6, r9, ip, sp, lr}^
    1564:	646e655f 	strbtvs	r6, [lr], #-1375	; 0xfffffaa1
    1568:	705f5f00 	subsvc	r5, pc, r0, lsl #30
    156c:	6e696572 	mcrvs	5, 3, r6, cr9, cr2, {3}
    1570:	615f7469 	cmpvs	pc, r9, ror #8
    1574:	79617272 	stmdbvc	r1!, {r1, r4, r5, r6, r9, ip, sp, lr}^
    1578:	6174735f 	cmnvs	r4, pc, asr r3
    157c:	2f007472 	svccs	0x00007472
    1580:	656d6f68 	strbvs	r6, [sp, #-3944]!	; 0xfffff098
    1584:	6e75732f 	cdpvs	3, 7, cr7, cr5, cr15, {1}
    1588:	6f647679 	svcvs	0x00647679
    158c:	732f676e 			; <UNDEFINED> instruction: 0x732f676e
    1590:	2f346c65 	svccs	0x00346c65
    1594:	696e696d 	stmdbvs	lr!, {r0, r2, r3, r5, r6, r8, fp, sp, lr}^
    1598:	6975625f 	ldmdbvs	r5!, {r0, r1, r2, r3, r4, r6, r9, sp, lr}^
    159c:	732f646c 			; <UNDEFINED> instruction: 0x732f646c
    15a0:	2d346c65 	ldccs	12, cr6, [r4, #-404]!	; 0xfffffe6c
    15a4:	6f747574 	svcvs	0x00747574
    15a8:	6c616972 			; <UNDEFINED> instruction: 0x6c616972
    15ac:	616d2d73 	smcvs	53971	; 0xd2d3
    15b0:	6566696e 	strbvs	r6, [r6, #-2414]!	; 0xfffff692
    15b4:	702f7473 	eorvc	r7, pc, r3, ror r4	; <UNPREDICTABLE>
    15b8:	656a6f72 	strbvs	r6, [sl, #-3954]!	; 0xfffff08e
    15bc:	2f737463 	svccs	0x00737463
    15c0:	346c6573 	strbtcc	r6, [ip], #-1395	; 0xfffffa8d
    15c4:	746e7572 	strbtvc	r7, [lr], #-1394	; 0xfffffa8e
    15c8:	2f656d69 	svccs	0x00656d69
    15cc:	2f637273 	svccs	0x00637273
    15d0:	74696e69 	strbtvc	r6, [r9], #-3689	; 0xfffff197
    15d4:	5f00632e 	svcpl	0x0000632e
    15d8:	6572705f 	ldrbvs	r7, [r2, #-95]!	; 0xffffffa1
    15dc:	74696e69 	strbtvc	r6, [r9], #-3689	; 0xfffff197
    15e0:	7272615f 	rsbsvc	r6, r2, #-1073741801	; 0xc0000017
    15e4:	655f7961 	ldrbvs	r7, [pc, #-2401]	; c8b <errno+0xc87>
    15e8:	6600646e 	strvs	r6, [r0], -lr, ror #8
    15ec:	5f696e69 	svcpl	0x00696e69
    15f0:	61727261 	cmnvs	r2, r1, ror #4
    15f4:	656c5f79 	strbvs	r5, [ip, #-3961]!	; 0xfffff087
    15f8:	5f5f006e 	svcpl	0x005f006e
    15fc:	696e6966 	stmdbvs	lr!, {r1, r2, r5, r6, r8, fp, sp, lr}^
    1600:	7272615f 	rsbsvc	r6, r2, #-1073741801	; 0xc0000017
    1604:	655f7961 	ldrbvs	r7, [pc, #-2401]	; cab <errno+0xca7>
    1608:	5f00646e 	svcpl	0x0000646e
    160c:	6c65735f 	stclvs	3, cr7, [r5], #-380	; 0xfffffe84
    1610:	6e757234 	mrcvs	2, 3, r7, cr5, cr4, {1}
    1614:	656d6974 	strbvs	r6, [sp, #-2420]!	; 0xfffff68c
    1618:	6d656d5f 	stclvs	13, cr6, [r5, #-380]!	; 0xfffffe84
    161c:	00746573 	rsbseq	r6, r4, r3, ror r5
    1620:	6d6f682f 	stclvs	8, cr6, [pc, #-188]!	; 156c <errno+0x1568>
    1624:	75732f65 	ldrbvc	r2, [r3, #-3941]!	; 0xfffff09b
    1628:	6476796e 	ldrbtvs	r7, [r6], #-2414	; 0xfffff692
    162c:	2f676e6f 	svccs	0x00676e6f
    1630:	346c6573 	strbtcc	r6, [ip], #-1395	; 0xfffffa8d
    1634:	6e696d2f 	cdpvs	13, 6, cr6, cr9, cr15, {1}
    1638:	75625f69 	strbvc	r5, [r2, #-3945]!	; 0xfffff097
    163c:	2f646c69 	svccs	0x00646c69
    1640:	346c6573 	strbtcc	r6, [ip], #-1395	; 0xfffffa8d
    1644:	7475742d 	ldrbtvc	r7, [r5], #-1069	; 0xfffffbd3
    1648:	6169726f 	cmnvs	r9, pc, ror #4
    164c:	6d2d736c 	stcvs	3, cr7, [sp, #-432]!	; 0xfffffe50
    1650:	66696e61 	strbtvs	r6, [r9], -r1, ror #28
    1654:	2f747365 	svccs	0x00747365
    1658:	6a6f7270 	bvs	1bde020 <__bss_end__+0x1bb5f70>
    165c:	73746365 	cmnvc	r4, #-1811939327	; 0x94000001
    1660:	6c65732f 	stclvs	3, cr7, [r5], #-188	; 0xffffff44
    1664:	6e757234 	mrcvs	2, 3, r7, cr5, cr4, {1}
    1668:	656d6974 	strbvs	r6, [sp, #-2420]!	; 0xfffff68c
    166c:	6372732f 	cmnvs	r2, #-1140850688	; 0xbc000000
    1670:	6d656d2f 	stclvs	13, cr6, [r5, #-188]!	; 0xffffff44
    1674:	2e746573 	mrccs	5, 3, r6, cr4, cr3, {3}
    1678:	682f0063 	stmdavs	pc!, {r0, r1, r5, r6}	; <UNPREDICTABLE>
    167c:	2f656d6f 	svccs	0x00656d6f
    1680:	796e7573 	stmdbvc	lr!, {r0, r1, r4, r5, r6, r8, sl, ip, sp, lr}^
    1684:	6e6f6476 	mcrvs	4, 3, r6, cr15, cr6, {3}
    1688:	65732f67 	ldrbvs	r2, [r3, #-3943]!	; 0xfffff099
    168c:	6d2f346c 	cfstrsvs	mvf3, [pc, #-432]!	; 14e4 <errno+0x14e0>
    1690:	5f696e69 	svcpl	0x00696e69
    1694:	6c697562 	cfstr64vs	mvdx7, [r9], #-392	; 0xfffffe78
    1698:	65732f64 	ldrbvs	r2, [r3, #-3940]!	; 0xfffff09c
    169c:	742d346c 	strtvc	r3, [sp], #-1132	; 0xfffffb94
    16a0:	726f7475 	rsbvc	r7, pc, #1962934272	; 0x75000000
    16a4:	736c6169 	cmnvc	ip, #1073741850	; 0x4000001a
    16a8:	6e616d2d 	cdpvs	13, 6, cr6, cr1, cr13, {1}
    16ac:	73656669 	cmnvc	r5, #110100480	; 0x6900000
    16b0:	72702f74 	rsbsvc	r2, r0, #116, 30	; 0x1d0
    16b4:	63656a6f 	cmnvs	r5, #454656	; 0x6f000
    16b8:	732f7374 			; <UNDEFINED> instruction: 0x732f7374
    16bc:	72346c65 	eorsvc	r6, r4, #25856	; 0x6500
    16c0:	69746e75 	ldmdbvs	r4!, {r0, r2, r4, r5, r6, r9, sl, fp, sp, lr}^
    16c4:	732f656d 			; <UNDEFINED> instruction: 0x732f656d
    16c8:	6d2f6372 	stcvs	3, cr6, [pc, #-456]!	; 1508 <errno+0x1504>
    16cc:	70636d65 	rsbvc	r6, r3, r5, ror #26
    16d0:	00632e79 	rsbeq	r2, r3, r9, ror lr
    16d4:	65735f5f 	ldrbvs	r5, [r3, #-3935]!	; 0xfffff0a1
    16d8:	7572346c 	ldrbvc	r3, [r2, #-1132]!	; 0xfffffb94
    16dc:	6d69746e 	cfstrdvs	mvd7, [r9, #-440]!	; 0xfffffe48
    16e0:	656d5f65 	strbvs	r5, [sp, #-3941]!	; 0xfffff09b
    16e4:	7970636d 	ldmdbvc	r0!, {r0, r2, r3, r5, r6, r8, r9, sp, lr}^
    16e8:	735f5f00 	cmpvc	pc, #0, 30
    16ec:	72346c65 	eorsvc	r6, r4, #25856	; 0x6500
    16f0:	69746e75 	ldmdbvs	r4!, {r0, r2, r4, r5, r6, r9, sl, fp, sp, lr}^
    16f4:	765f656d 	ldrbvc	r6, [pc], -sp, ror #10
    16f8:	63737973 	cmnvs	r3, #1884160	; 0x1cc000
    16fc:	006c6c61 	rsbeq	r6, ip, r1, ror #24
    1700:	6e737973 			; <UNDEFINED> instruction: 0x6e737973
    1704:	2f006d75 	svccs	0x00006d75
    1708:	656d6f68 	strbvs	r6, [sp, #-3944]!	; 0xfffff098
    170c:	6e75732f 	cdpvs	3, 7, cr7, cr5, cr15, {1}
    1710:	6f647679 	svcvs	0x00647679
    1714:	732f676e 			; <UNDEFINED> instruction: 0x732f676e
    1718:	2f346c65 	svccs	0x00346c65
    171c:	696e696d 	stmdbvs	lr!, {r0, r2, r3, r5, r6, r8, fp, sp, lr}^
    1720:	6975625f 	ldmdbvs	r5!, {r0, r1, r2, r3, r4, r6, r9, sp, lr}^
    1724:	732f646c 			; <UNDEFINED> instruction: 0x732f646c
    1728:	2d346c65 	ldccs	12, cr6, [r4, #-404]!	; 0xfffffe6c
    172c:	6f747574 	svcvs	0x00747574
    1730:	6c616972 			; <UNDEFINED> instruction: 0x6c616972
    1734:	616d2d73 	smcvs	53971	; 0xd2d3
    1738:	6566696e 	strbvs	r6, [r6, #-2414]!	; 0xfffff692
    173c:	702f7473 	eorvc	r7, pc, r3, ror r4	; <UNPREDICTABLE>
    1740:	656a6f72 	strbvs	r6, [sl, #-3954]!	; 0xfffff08e
    1744:	2f737463 	svccs	0x00737463
    1748:	346c6573 	strbtcc	r6, [ip], #-1395	; 0xfffffa8d
    174c:	746e7572 	strbtvc	r7, [lr], #-1394	; 0xfffffa8e
    1750:	2f656d69 	svccs	0x00656d69
    1754:	2f637273 	svccs	0x00637273
    1758:	73797376 	cmnvc	r9, #-671088639	; 0xd8000001
    175c:	6c6c6163 	stfvse	f6, [ip], #-396	; 0xfffffe74
    1760:	2f00632e 	svccs	0x0000632e
    1764:	656d6f68 	strbvs	r6, [sp, #-3944]!	; 0xfffff098
    1768:	6e75732f 	cdpvs	3, 7, cr7, cr5, cr15, {1}
    176c:	6f647679 	svcvs	0x00647679
    1770:	732f676e 			; <UNDEFINED> instruction: 0x732f676e
    1774:	2f346c65 	svccs	0x00346c65
    1778:	696e696d 	stmdbvs	lr!, {r0, r2, r3, r5, r6, r8, fp, sp, lr}^
    177c:	6975625f 	ldmdbvs	r5!, {r0, r1, r2, r3, r4, r6, r9, sp, lr}^
    1780:	732f646c 			; <UNDEFINED> instruction: 0x732f646c
    1784:	2d346c65 	ldccs	12, cr6, [r4, #-404]!	; 0xfffffe6c
    1788:	6f747574 	svcvs	0x00747574
    178c:	6c616972 			; <UNDEFINED> instruction: 0x6c616972
    1790:	616d2d73 	smcvs	53971	; 0xd2d3
    1794:	6566696e 	strbvs	r6, [r6, #-2414]!	; 0xfffff692
    1798:	702f7473 	eorvc	r7, pc, r3, ror r4	; <UNPREDICTABLE>
    179c:	656a6f72 	strbvs	r6, [sl, #-3954]!	; 0xfffff08e
    17a0:	2f737463 	svccs	0x00737463
    17a4:	346c6573 	strbtcc	r6, [ip], #-1395	; 0xfffffa8d
    17a8:	746e7572 	strbtvc	r7, [lr], #-1394	; 0xfffffa8e
    17ac:	2f656d69 	svccs	0x00656d69
    17b0:	2f637273 	svccs	0x00637273
    17b4:	346c6573 	strbtcc	r6, [ip], #-1395	; 0xfffffa8d
    17b8:	6372615f 	cmnvs	r2, #-1073741801	; 0xc0000017
    17bc:	61612f68 	cmnvs	r1, r8, ror #30
    17c0:	33686372 	cmncc	r8, #-939524095	; 0xc8000001
    17c4:	5f5f2f32 	svcpl	0x005f2f32
    17c8:	62616561 	rsbvs	r6, r1, #406847488	; 0x18400000
    17cc:	65725f69 	ldrbvs	r5, [r2, #-3945]!	; 0xfffff097
    17d0:	745f6461 	ldrbvc	r6, [pc], #-1121	; 17d8 <errno+0x17d4>
    17d4:	00532e70 	subseq	r2, r3, r0, ror lr
    17d8:	65615f5f 	strbvs	r5, [r1, #-3935]!	; 0xfffff0a1
    17dc:	5f696261 	svcpl	0x00696261
    17e0:	64616572 	strbtvs	r6, [r1], #-1394	; 0xfffffa8e
    17e4:	5f70745f 	svcpl	0x0070745f
    17e8:	682f0063 	stmdavs	pc!, {r0, r1, r5, r6}	; <UNPREDICTABLE>
    17ec:	2f656d6f 	svccs	0x00656d6f
    17f0:	796e7573 	stmdbvc	lr!, {r0, r1, r4, r5, r6, r8, sl, ip, sp, lr}^
    17f4:	6e6f6476 	mcrvs	4, 3, r6, cr15, cr6, {3}
    17f8:	65732f67 	ldrbvs	r2, [r3, #-3943]!	; 0xfffff099
    17fc:	6d2f346c 	cfstrsvs	mvf3, [pc, #-432]!	; 1654 <errno+0x1650>
    1800:	5f696e69 	svcpl	0x00696e69
    1804:	6c697562 	cfstr64vs	mvdx7, [r9], #-392	; 0xfffffe78
    1808:	65732f64 	ldrbvs	r2, [r3, #-3940]!	; 0xfffff09c
    180c:	742d346c 	strtvc	r3, [sp], #-1132	; 0xfffffb94
    1810:	726f7475 	rsbvc	r7, pc, #1962934272	; 0x75000000
    1814:	736c6169 	cmnvc	ip, #1073741850	; 0x4000001a
    1818:	6e616d2d 	cdpvs	13, 6, cr6, cr1, cr13, {1}
    181c:	73656669 	cmnvc	r5, #110100480	; 0x6900000
    1820:	72702f74 	rsbsvc	r2, r0, #116, 30	; 0x1d0
    1824:	63656a6f 	cmnvs	r5, #454656	; 0x6f000
    1828:	732f7374 			; <UNDEFINED> instruction: 0x732f7374
    182c:	72346c65 	eorsvc	r6, r4, #25856	; 0x6500
    1830:	69746e75 	ldmdbvs	r4!, {r0, r2, r4, r5, r6, r9, sl, fp, sp, lr}^
    1834:	732f656d 			; <UNDEFINED> instruction: 0x732f656d
    1838:	732f6372 			; <UNDEFINED> instruction: 0x732f6372
    183c:	5f346c65 	svcpl	0x00346c65
    1840:	68637261 	stmdavs	r3!, {r0, r5, r6, r9, ip, sp, lr}^
    1844:	7261612f 	rsbvc	r6, r1, #-1073741813	; 0xc000000b
    1848:	32336863 	eorscc	r6, r3, #6488064	; 0x630000
    184c:	615f5f2f 	cmpvs	pc, pc, lsr #30
    1850:	69626165 	stmdbvs	r2!, {r0, r2, r5, r6, r8, sp, lr}^
    1854:	6165725f 	cmnvs	r5, pc, asr r2
    1858:	70745f64 	rsbsvc	r5, r4, r4, ror #30
    185c:	632e635f 			; <UNDEFINED> instruction: 0x632e635f
    1860:	735f5f00 	cmpvc	pc, #0, 30
    1864:	72346c65 	eorsvc	r6, r4, #25856	; 0x6500
    1868:	69746e75 	ldmdbvs	r4!, {r0, r2, r4, r5, r6, r9, sl, fp, sp, lr}^
    186c:	735f656d 	cmpvc	pc, #457179136	; 0x1b400000
    1870:	74726174 	ldrbtvc	r6, [r2], #-372	; 0xfffffe8c
    1874:	69616d5f 	stmdbvs	r1!, {r0, r1, r2, r3, r4, r6, r8, sl, fp, sp, lr}^
    1878:	682f006e 	stmdavs	pc!, {r1, r2, r3, r5, r6}	; <UNPREDICTABLE>
    187c:	2f656d6f 	svccs	0x00656d6f
    1880:	796e7573 	stmdbvc	lr!, {r0, r1, r4, r5, r6, r8, sl, ip, sp, lr}^
    1884:	6e6f6476 	mcrvs	4, 3, r6, cr15, cr6, {3}
    1888:	65732f67 	ldrbvs	r2, [r3, #-3943]!	; 0xfffff099
    188c:	6d2f346c 	cfstrsvs	mvf3, [pc, #-432]!	; 16e4 <errno+0x16e0>
    1890:	5f696e69 	svcpl	0x00696e69
    1894:	6c697562 	cfstr64vs	mvdx7, [r9], #-392	; 0xfffffe78
    1898:	65732f64 	ldrbvs	r2, [r3, #-3940]!	; 0xfffff09c
    189c:	742d346c 	strtvc	r3, [sp], #-1132	; 0xfffffb94
    18a0:	726f7475 	rsbvc	r7, pc, #1962934272	; 0x75000000
    18a4:	736c6169 	cmnvc	ip, #1073741850	; 0x4000001a
    18a8:	6e616d2d 	cdpvs	13, 6, cr6, cr1, cr13, {1}
    18ac:	73656669 	cmnvc	r5, #110100480	; 0x6900000
    18b0:	72702f74 	rsbsvc	r2, r0, #116, 30	; 0x1d0
    18b4:	63656a6f 	cmnvs	r5, #454656	; 0x6f000
    18b8:	732f7374 			; <UNDEFINED> instruction: 0x732f7374
    18bc:	72346c65 	eorsvc	r6, r4, #25856	; 0x6500
    18c0:	69746e75 	ldmdbvs	r4!, {r0, r2, r4, r5, r6, r9, sl, fp, sp, lr}^
    18c4:	732f656d 			; <UNDEFINED> instruction: 0x732f656d
    18c8:	732f6372 			; <UNDEFINED> instruction: 0x732f6372
    18cc:	74726174 	ldrbtvc	r6, [r2], #-372	; 0xfffffe8c
    18d0:	Address 0x00000000000018d0 is out of bounds.


Disassembly of section .debug_ranges:

00000000 <.debug_ranges>:
{
   0:	00010118 	andeq	r0, r1, r8, lsl r1
   4:	00010240 	andeq	r0, r1, r0, asr #4
   8:	00010240 	andeq	r0, r1, r0, asr #4
   c:	00010368 	andeq	r0, r1, r8, ror #6
    bootinfo = bi;
  10:	00010368 	andeq	r0, r1, r8, ror #6
  14:	00010398 	muleq	r1, r8, r3
  18:	00010398 	muleq	r1, r8, r3
  1c:	000103c8 	andeq	r0, r1, r8, asr #7
}
  20:	000103c8 	andeq	r0, r1, r8, asr #7
  24:	000103ec 	andeq	r0, r1, ip, ror #7
  28:	000103ec 	andeq	r0, r1, ip, ror #7
  2c:	00010428 	andeq	r0, r1, r8, lsr #8
{
  30:	00010428 	andeq	r0, r1, r8, lsr #8
  34:	00010460 	andeq	r0, r1, r0, ror #8
    return bootinfo;
  38:	00010460 	andeq	r0, r1, r0, ror #8
  3c:	0001050c 	andeq	r0, r1, ip, lsl #10
  40:	0001050c 	andeq	r0, r1, ip, lsl #10
}
  44:	000106b0 			; <UNDEFINED> instruction: 0x000106b0
  48:	000106b0 			; <UNDEFINED> instruction: 0x000106b0
  4c:	000107c0 	andeq	r0, r1, r0, asr #15
  50:	000107c0 	andeq	r0, r1, r0, asr #15
  54:	00010830 	andeq	r0, r1, r0, lsr r8
	...
  60:	00000838 	andeq	r0, r0, r8, lsr r8
  64:	00000894 	muleq	r0, r4, r8
  68:	000008e8 	andeq	r0, r0, r8, ror #17
  6c:	000008ec 	andeq	r0, r0, ip, ror #17
	...
