
hello-world:     file format elf32-littlearm


Disassembly of section .init:

00010118 <_init>:
.syntax unified

.section .init
.global _init
_init:
	stmdb sp!, {fp, lr}
   10118:	e92d4800 	push	{fp, lr}
	mov fp, sp
   1011c:	e1a0b00d 	mov	fp, sp
 * SPDX-License-Identifier: BSD-2-Clause
 */
.syntax unified

.section .init
	ldmia sp!, {fp, lr}
   10120:	e8bd4800 	pop	{fp, lr}
	bx lr
   10124:	e12fff1e 	bx	lr

Disassembly of section .text:

00010128 <exit>:
   10128:	e92d4010 	push	{r4, lr}
   1012c:	e1a04000 	mov	r4, r0
   10130:	eb00391b 	bl	1e5a4 <__funcs_on_exit>
   10134:	eb00391b 	bl	1e5a8 <__libc_exit_fini>
   10138:	eb005680 	bl	25b40 <__stdio_exit>
   1013c:	e1a00004 	mov	r0, r4
   10140:	eb004918 	bl	225a8 <_Exit>

00010144 <_start>:
.syntax unified

.section .text
.global _start
_start:
	mov fp, 0
   10144:	e3a0b000 	mov	fp, #0
	mov lr, 0
   10148:	e3a0e000 	mov	lr, #0

	mov a1, sp
   1014c:	e1a0000d 	mov	r0, sp
	bl __sel4_start_c
   10150:	eb000034 	bl	10228 <__sel4_start_c>

	/* should not return */
1:
	b 1b
   10154:	eafffffe 	b	10154 <_start+0x10>

00010158 <deregister_tm_clones>:
   10158:	e59f0018 	ldr	r0, [pc, #24]	; 10178 <deregister_tm_clones+0x20>
   1015c:	e59f3018 	ldr	r3, [pc, #24]	; 1017c <deregister_tm_clones+0x24>
   10160:	e1530000 	cmp	r3, r0
   10164:	012fff1e 	bxeq	lr
   10168:	e59f3010 	ldr	r3, [pc, #16]	; 10180 <deregister_tm_clones+0x28>
   1016c:	e3530000 	cmp	r3, #0
   10170:	012fff1e 	bxeq	lr
   10174:	e12fff13 	bx	r3
   10178:	0002c8d8 	ldrdeq	ip, [r2], -r8
   1017c:	0002c8d8 	ldrdeq	ip, [r2], -r8
   10180:	00000000 	andeq	r0, r0, r0

00010184 <register_tm_clones>:
   10184:	e59f0024 	ldr	r0, [pc, #36]	; 101b0 <register_tm_clones+0x2c>
   10188:	e59f1024 	ldr	r1, [pc, #36]	; 101b4 <register_tm_clones+0x30>
   1018c:	e0413000 	sub	r3, r1, r0
   10190:	e1a01fa3 	lsr	r1, r3, #31
   10194:	e0811143 	add	r1, r1, r3, asr #2
   10198:	e1b010c1 	asrs	r1, r1, #1
   1019c:	012fff1e 	bxeq	lr
   101a0:	e59f3010 	ldr	r3, [pc, #16]	; 101b8 <register_tm_clones+0x34>
   101a4:	e3530000 	cmp	r3, #0
   101a8:	012fff1e 	bxeq	lr
   101ac:	e12fff13 	bx	r3
   101b0:	0002c8d8 	ldrdeq	ip, [r2], -r8
   101b4:	0002c8d8 	ldrdeq	ip, [r2], -r8
   101b8:	00000000 	andeq	r0, r0, r0

000101bc <__do_global_dtors_aux>:
   101bc:	e92d4010 	push	{r4, lr}
   101c0:	e59f4018 	ldr	r4, [pc, #24]	; 101e0 <__do_global_dtors_aux+0x24>
   101c4:	e5d43000 	ldrb	r3, [r4]
   101c8:	e3530000 	cmp	r3, #0
   101cc:	18bd8010 	popne	{r4, pc}
   101d0:	ebffffe0 	bl	10158 <deregister_tm_clones>
   101d4:	e3a03001 	mov	r3, #1
   101d8:	e5c43000 	strb	r3, [r4]
   101dc:	e8bd8010 	pop	{r4, pc}
   101e0:	00030000 	andeq	r0, r3, r0

000101e4 <frame_dummy>:
   101e4:	eaffffe6 	b	10184 <register_tm_clones>

000101e8 <main>:

#include <stdio.h>


int main(int argc, char *argv[]) {
   101e8:	e92d4800 	push	{fp, lr}
   101ec:	e28db004 	add	fp, sp, #4
   101f0:	e24dd008 	sub	sp, sp, #8
   101f4:	e50b0008 	str	r0, [fp, #-8]
   101f8:	e50b100c 	str	r1, [fp, #-12]
    printf("Hello, World!\n");
   101fc:	e3070658 	movw	r0, #30296	; 0x7658
   10200:	e3400002 	movt	r0, #2
   10204:	eb003d8d 	bl	1f840 <puts>

    return 0;
   10208:	e3a03000 	mov	r3, #0
}
   1020c:	e1a00003 	mov	r0, r3
   10210:	e24bd004 	sub	sp, fp, #4
   10214:	e8bd8800 	pop	{fp, pc}

00010218 <_sel4_start>:
.syntax unified

.section .text
.global _sel4_start
_sel4_start:
	ldr sp, =__stack_top
   10218:	e59fd004 	ldr	sp, [pc, #4]	; 10224 <_sel4_start+0xc>
	bl __sel4_start_root
   1021c:	eb000046 	bl	1033c <__sel4_start_root>
	/* should not return */
1:
	b 1b
   10220:	eafffffe 	b	10220 <_sel4_start+0x8>
	ldr sp, =__stack_top
   10224:	00044000 	andeq	r4, r4, r0

00010228 <__sel4_start_c>:
 * * array of auxiliary vector entries,
 * * an 'zero' auxiliary vector, then
 * * unspecified data.
 */
void __sel4_start_c(void const *stack)
{
   10228:	e92d4800 	push	{fp, lr}
   1022c:	e28db004 	add	fp, sp, #4
   10230:	e24dd028 	sub	sp, sp, #40	; 0x28
   10234:	e50b0020 	str	r0, [fp, #-32]	; 0xffffffe0
    // First word on the stack is argument count.
    unsigned long argc = *((unsigned long const *) stack);
   10238:	e51b3020 	ldr	r3, [fp, #-32]	; 0xffffffe0
   1023c:	e5933000 	ldr	r3, [r3]
   10240:	e50b300c 	str	r3, [fp, #-12]

    // Second word on the stack is the start of the argument vector.
    char const *const *argv = &((char const * const *) stack)[1];
   10244:	e51b3020 	ldr	r3, [fp, #-32]	; 0xffffffe0
   10248:	e2833004 	add	r3, r3, #4
   1024c:	e50b3010 	str	r3, [fp, #-16]

    // The environment pointer vector follows after the argv.
    char const *const *envp = &argv[argc + 1];
   10250:	e51b300c 	ldr	r3, [fp, #-12]
   10254:	e2833001 	add	r3, r3, #1
   10258:	e1a03103 	lsl	r3, r3, #2
   1025c:	e51b2010 	ldr	r2, [fp, #-16]
   10260:	e0823003 	add	r3, r2, r3
   10264:	e50b3014 	str	r3, [fp, #-20]	; 0xffffffec
    int envc = 0;
   10268:	e3a03000 	mov	r3, #0
   1026c:	e50b3008 	str	r3, [fp, #-8]
    while (envp[envc] != SEL4RUNTIME_NULL) {
   10270:	ea000002 	b	10280 <__sel4_start_c+0x58>
        envc++;
   10274:	e51b3008 	ldr	r3, [fp, #-8]
   10278:	e2833001 	add	r3, r3, #1
   1027c:	e50b3008 	str	r3, [fp, #-8]
    while (envp[envc] != SEL4RUNTIME_NULL) {
   10280:	e51b3008 	ldr	r3, [fp, #-8]
   10284:	e1a03103 	lsl	r3, r3, #2
   10288:	e51b2014 	ldr	r2, [fp, #-20]	; 0xffffffec
   1028c:	e0823003 	add	r3, r2, r3
   10290:	e5933000 	ldr	r3, [r3]
   10294:	e3530000 	cmp	r3, #0
   10298:	1afffff5 	bne	10274 <__sel4_start_c+0x4c>
    }


    // The auxiliary vector follows the environment pointer vector.
    auxv_t const *auxv = (void const *)(&envp[envc + 1]);
   1029c:	e51b3008 	ldr	r3, [fp, #-8]
   102a0:	e2833001 	add	r3, r3, #1
   102a4:	e1a03103 	lsl	r3, r3, #2
   102a8:	e51b2014 	ldr	r2, [fp, #-20]	; 0xffffffec
   102ac:	e0823003 	add	r3, r2, r3
   102b0:	e50b3018 	str	r3, [fp, #-24]	; 0xffffffe8

    __sel4runtime_start_main(main, argc, argv, envp, auxv);
   102b4:	e51b3018 	ldr	r3, [fp, #-24]	; 0xffffffe8
   102b8:	e58d3000 	str	r3, [sp]
   102bc:	e51b3014 	ldr	r3, [fp, #-20]	; 0xffffffec
   102c0:	e51b2010 	ldr	r2, [fp, #-16]
   102c4:	e51b100c 	ldr	r1, [fp, #-12]
   102c8:	e30001e8 	movw	r0, #488	; 0x1e8
   102cc:	e3400001 	movt	r0, #1
   102d0:	eb000002 	bl	102e0 <__sel4runtime_start_main>
}
   102d4:	e320f000 	nop	{0}
   102d8:	e24bd004 	sub	sp, fp, #4
   102dc:	e8bd8800 	pop	{fp, pc}

000102e0 <__sel4runtime_start_main>:
    unsigned long argc,
    char const *const *argv,
    char const *const *envp,
    auxv_t const auxv[]
)
{
   102e0:	e92d4800 	push	{fp, lr}
   102e4:	e28db004 	add	fp, sp, #4
   102e8:	e24dd010 	sub	sp, sp, #16
   102ec:	e50b0008 	str	r0, [fp, #-8]
   102f0:	e50b100c 	str	r1, [fp, #-12]
   102f4:	e50b2010 	str	r2, [fp, #-16]
   102f8:	e50b3014 	str	r3, [fp, #-20]	; 0xffffffec
    __sel4runtime_load_env(argc, argv, envp, auxv);
   102fc:	e51b000c 	ldr	r0, [fp, #-12]
   10300:	e59b3004 	ldr	r3, [fp, #4]
   10304:	e51b2014 	ldr	r2, [fp, #-20]	; 0xffffffec
   10308:	e51b1010 	ldr	r1, [fp, #-16]
   1030c:	eb0001f3 	bl	10ae0 <__sel4runtime_load_env>

    sel4runtime_exit(main(argc, argv, envp));
   10310:	e51b3008 	ldr	r3, [fp, #-8]
   10314:	e51b2014 	ldr	r2, [fp, #-20]	; 0xffffffec
   10318:	e51b1010 	ldr	r1, [fp, #-16]
   1031c:	e51b000c 	ldr	r0, [fp, #-12]
   10320:	e12fff33 	blx	r3
   10324:	e1a03000 	mov	r3, r0
   10328:	e1a00003 	mov	r0, r3
   1032c:	eb0001a4 	bl	109c4 <sel4runtime_exit>
}
   10330:	e320f000 	nop	{0}
   10334:	e24bd004 	sub	sp, fp, #4
   10338:	e8bd8800 	pop	{fp, pc}

0001033c <__sel4_start_root>:
 *
 * This is invoked by _sel4_start, which simply sets up a static stack
 * and passes the argument to us.
 */
void __sel4_start_root(seL4_BootInfo *boot_info)
{
   1033c:	e92d4800 	push	{fp, lr}
   10340:	e28db004 	add	fp, sp, #4
   10344:	e24dd088 	sub	sp, sp, #136	; 0x88
   10348:	e50b0080 	str	r0, [fp, #-128]	; 0xffffff80
    sel4runtime_uintptr_t tdata_start = (sel4runtime_uintptr_t) &_tdata_start[0];
   1034c:	e30a380c 	movw	r3, #43020	; 0xa80c
   10350:	e3403002 	movt	r3, #2
   10354:	e50b3008 	str	r3, [fp, #-8]
    sel4runtime_uintptr_t tdata_end = (sel4runtime_uintptr_t) &_tdata_end[0];
   10358:	e30a380c 	movw	r3, #43020	; 0xa80c
   1035c:	e3403002 	movt	r3, #2
   10360:	e50b300c 	str	r3, [fp, #-12]
    sel4runtime_uintptr_t tbss_start = (sel4runtime_uintptr_t) &_tbss_start[0];
   10364:	e30a380c 	movw	r3, #43020	; 0xa80c
   10368:	e3403002 	movt	r3, #2
   1036c:	e50b3010 	str	r3, [fp, #-16]
    sel4runtime_uintptr_t tbss_end = (sel4runtime_uintptr_t) &_tbss_end[0];
   10370:	e30a3814 	movw	r3, #43028	; 0xa814
   10374:	e3403002 	movt	r3, #2
   10378:	e50b3014 	str	r3, [fp, #-20]	; 0xffffffec
     * region p_memsz value will be wrong.
     * Assigning empty tbss_start to tdata[_start|_end] will
     * follow ld.bfd and results in the proper 0 p_memsz.
     * The .tdata section is empty and hence, the linker script variables are zero
     */
    if (tdata_start == 0) {
   1037c:	e51b3008 	ldr	r3, [fp, #-8]
   10380:	e3530000 	cmp	r3, #0
   10384:	1a000003 	bne	10398 <__sel4_start_root+0x5c>
        tdata_start = tbss_start;
   10388:	e51b3010 	ldr	r3, [fp, #-16]
   1038c:	e50b3008 	str	r3, [fp, #-8]
        tdata_end = tbss_start;
   10390:	e51b3010 	ldr	r3, [fp, #-16]
   10394:	e50b300c 	str	r3, [fp, #-12]
    }

    Elf_Phdr tls_header = {
   10398:	e24b3034 	sub	r3, fp, #52	; 0x34
   1039c:	e3a02020 	mov	r2, #32
   103a0:	e3a01000 	mov	r1, #0
   103a4:	e1a00003 	mov	r0, r3
   103a8:	eb004652 	bl	21cf8 <memset>
   103ac:	e3a03007 	mov	r3, #7
   103b0:	e50b3034 	str	r3, [fp, #-52]	; 0xffffffcc
   103b4:	e51b3008 	ldr	r3, [fp, #-8]
   103b8:	e50b302c 	str	r3, [fp, #-44]	; 0xffffffd4
        .p_type   = PT_TLS,
        .p_offset = 0,
        .p_vaddr  = (Elf_Addr) tdata_start,
        .p_paddr  = 0,
        .p_filesz = tdata_end - tdata_start,
   103bc:	e51b200c 	ldr	r2, [fp, #-12]
   103c0:	e51b3008 	ldr	r3, [fp, #-8]
   103c4:	e0423003 	sub	r3, r2, r3
    Elf_Phdr tls_header = {
   103c8:	e50b3024 	str	r3, [fp, #-36]	; 0xffffffdc
        .p_memsz  = tbss_end - tdata_start,
   103cc:	e51b2014 	ldr	r2, [fp, #-20]	; 0xffffffec
   103d0:	e51b3008 	ldr	r3, [fp, #-8]
   103d4:	e0423003 	sub	r3, r2, r3
    Elf_Phdr tls_header = {
   103d8:	e50b3020 	str	r3, [fp, #-32]	; 0xffffffe0
   103dc:	e3a03004 	mov	r3, #4
   103e0:	e50b3018 	str	r3, [fp, #-24]	; 0xffffffe8

    struct {
        char const *const argv[2];
        char const *const envp[2];
        auxv_t auxv[7];
    } info = {
   103e4:	e3073674 	movw	r3, #30324	; 0x7674
   103e8:	e3403002 	movt	r3, #2
   103ec:	e50b307c 	str	r3, [fp, #-124]	; 0xffffff84
   103f0:	e3a03000 	mov	r3, #0
   103f4:	e50b3078 	str	r3, [fp, #-120]	; 0xffffff88
   103f8:	e3073680 	movw	r3, #30336	; 0x7680
   103fc:	e3403002 	movt	r3, #2
   10400:	e50b3074 	str	r3, [fp, #-116]	; 0xffffff8c
   10404:	e3a03000 	mov	r3, #0
   10408:	e50b3070 	str	r3, [fp, #-112]	; 0xffffff90
   1040c:	e3a03004 	mov	r3, #4
   10410:	e50b306c 	str	r3, [fp, #-108]	; 0xffffff94
   10414:	e3a03020 	mov	r3, #32
   10418:	e50b3068 	str	r3, [fp, #-104]	; 0xffffff98
   1041c:	e3a03005 	mov	r3, #5
   10420:	e50b3064 	str	r3, [fp, #-100]	; 0xffffff9c
   10424:	e3a03001 	mov	r3, #1
   10428:	e50b3060 	str	r3, [fp, #-96]	; 0xffffffa0
   1042c:	e3a03003 	mov	r3, #3
   10430:	e50b305c 	str	r3, [fp, #-92]	; 0xffffffa4
   10434:	e24b3034 	sub	r3, fp, #52	; 0x34
   10438:	e50b3058 	str	r3, [fp, #-88]	; 0xffffffa8
   1043c:	e3a03020 	mov	r3, #32
   10440:	e50b3054 	str	r3, [fp, #-84]	; 0xffffffac
   10444:	e30437d4 	movw	r3, #18388	; 0x47d4
   10448:	e3403001 	movt	r3, #1
   1044c:	e50b3050 	str	r3, [fp, #-80]	; 0xffffffb0
   10450:	e3a03040 	mov	r3, #64	; 0x40
   10454:	e50b304c 	str	r3, [fp, #-76]	; 0xffffffb4
   10458:	e51b3080 	ldr	r3, [fp, #-128]	; 0xffffff80
   1045c:	e50b3048 	str	r3, [fp, #-72]	; 0xffffffb8
   10460:	e3a03045 	mov	r3, #69	; 0x45
   10464:	e50b3044 	str	r3, [fp, #-68]	; 0xffffffbc
   10468:	e3a03001 	mov	r3, #1
   1046c:	e50b3040 	str	r3, [fp, #-64]	; 0xffffffc0
   10470:	e3a03000 	mov	r3, #0
   10474:	e50b303c 	str	r3, [fp, #-60]	; 0xffffffc4
   10478:	e3a03000 	mov	r3, #0
   1047c:	e50b3038 	str	r3, [fp, #-56]	; 0xffffffc8
                .a_un.a_val = 0
            },
        },
    };

    __sel4runtime_start_main(main, ARRAY_LENGTH(info.argv) - 1, info.argv, info.envp, info.auxv);
   10480:	e24b307c 	sub	r3, fp, #124	; 0x7c
   10484:	e2831008 	add	r1, r3, #8
   10488:	e24b207c 	sub	r2, fp, #124	; 0x7c
   1048c:	e24b307c 	sub	r3, fp, #124	; 0x7c
   10490:	e2833010 	add	r3, r3, #16
   10494:	e58d3000 	str	r3, [sp]
   10498:	e1a03001 	mov	r3, r1
   1049c:	e3a01001 	mov	r1, #1
   104a0:	e30001e8 	movw	r0, #488	; 0x1e8
   104a4:	e3400001 	movt	r0, #1
   104a8:	ebffff8c 	bl	102e0 <__sel4runtime_start_main>
}
   104ac:	e320f000 	nop	{0}
   104b0:	e24bd004 	sub	sp, fp, #4
   104b4:	e8bd8800 	pop	{fp, pc}

000104b8 <seL4_GetIPCBuffer>:
    __sel4_ipc_buffer = ipc_buffer;
    return;
}

LIBSEL4_INLINE_FUNC seL4_IPCBuffer *seL4_GetIPCBuffer(void)
{
   104b8:	e92d4800 	push	{fp, lr}
   104bc:	e28db004 	add	fp, sp, #4
    return __sel4_ipc_buffer;
   104c0:	eb00078d 	bl	122fc <__aeabi_read_tp>
   104c4:	e1a03000 	mov	r3, r0
   104c8:	e59f2008 	ldr	r2, [pc, #8]	; 104d8 <seL4_GetIPCBuffer+0x20>
   104cc:	e7933002 	ldr	r3, [r3, r2]
}
   104d0:	e1a00003 	mov	r0, r3
   104d4:	e8bd8800 	pop	{fp, pc}
   104d8:	00000008 	andeq	r0, r0, r8

000104dc <arm_sys_send_recv>:
}

static inline void arm_sys_send_recv(seL4_Word sys, seL4_Word dest, seL4_Word *out_badge, seL4_Word info_arg,
                                     seL4_Word *out_info, seL4_Word *in_out_mr0, seL4_Word *in_out_mr1, seL4_Word *in_out_mr2, seL4_Word *in_out_mr3,
                                     LIBSEL4_UNUSED seL4_Word reply)
{
   104dc:	e92d08b0 	push	{r4, r5, r7, fp}
   104e0:	e28db00c 	add	fp, sp, #12
   104e4:	e24dd010 	sub	sp, sp, #16
   104e8:	e50b0010 	str	r0, [fp, #-16]
   104ec:	e50b1014 	str	r1, [fp, #-20]	; 0xffffffec
   104f0:	e50b2018 	str	r2, [fp, #-24]	; 0xffffffe8
   104f4:	e50b301c 	str	r3, [fp, #-28]	; 0xffffffe4
    register seL4_Word destptr asm("r0") = dest;
   104f8:	e51b0014 	ldr	r0, [fp, #-20]	; 0xffffffec
    register seL4_Word info asm("r1") = info_arg;
   104fc:	e51b101c 	ldr	r1, [fp, #-28]	; 0xffffffe4

    /* Load beginning of the message into registers. */
    register seL4_Word msg0 asm("r2") = *in_out_mr0;
   10500:	e59b3008 	ldr	r3, [fp, #8]
   10504:	e5933000 	ldr	r3, [r3]
   10508:	e1a02003 	mov	r2, r3
    register seL4_Word msg1 asm("r3") = *in_out_mr1;
   1050c:	e59b300c 	ldr	r3, [fp, #12]
   10510:	e5933000 	ldr	r3, [r3]
    register seL4_Word msg2 asm("r4") = *in_out_mr2;
   10514:	e59bc010 	ldr	ip, [fp, #16]
   10518:	e59cc000 	ldr	ip, [ip]
   1051c:	e1a0400c 	mov	r4, ip
    register seL4_Word msg3 asm("r5") = *in_out_mr3;
   10520:	e59bc014 	ldr	ip, [fp, #20]
   10524:	e59cc000 	ldr	ip, [ip]
   10528:	e1a0500c 	mov	r5, ip

    /* Perform the system call. */
    MCS_PARAM_DECL("r6");
    register seL4_Word scno asm("r7") = sys;
   1052c:	e51b7010 	ldr	r7, [fp, #-16]
    asm volatile(
   10530:	ef000000 	svc	0x00000000
        : "+r"(msg0), "+r"(msg1), "+r"(msg2), "+r"(msg3),
        "+r"(info), "+r"(destptr)
        : "r"(scno) MCS_PARAM
        : "memory"
    );
    *out_info = info;
   10534:	e1a0c001 	mov	ip, r1
   10538:	e59b1004 	ldr	r1, [fp, #4]
   1053c:	e581c000 	str	ip, [r1]
    *out_badge = destptr;
   10540:	e51b1018 	ldr	r1, [fp, #-24]	; 0xffffffe8
   10544:	e5810000 	str	r0, [r1]
    *in_out_mr0 = msg0;
   10548:	e1a01002 	mov	r1, r2
   1054c:	e59b2008 	ldr	r2, [fp, #8]
   10550:	e5821000 	str	r1, [r2]
    *in_out_mr1 = msg1;
   10554:	e1a02003 	mov	r2, r3
   10558:	e59b300c 	ldr	r3, [fp, #12]
   1055c:	e5832000 	str	r2, [r3]
    *in_out_mr2 = msg2;
   10560:	e1a02004 	mov	r2, r4
   10564:	e59b3010 	ldr	r3, [fp, #16]
   10568:	e5832000 	str	r2, [r3]
    *in_out_mr3 = msg3;
   1056c:	e1a02005 	mov	r2, r5
   10570:	e59b3014 	ldr	r3, [fp, #20]
   10574:	e5832000 	str	r2, [r3]
}
   10578:	e320f000 	nop	{0}
   1057c:	e24bd00c 	sub	sp, fp, #12
   10580:	e8bd08b0 	pop	{r4, r5, r7, fp}
   10584:	e12fff1e 	bx	lr

00010588 <seL4_DebugNameThread>:
    return (seL4_Uint32)cap;
}

char *strcpy(char *, const char *);
LIBSEL4_INLINE_FUNC void seL4_DebugNameThread(seL4_CPtr tcb, const char *name)
{
   10588:	e92d4800 	push	{fp, lr}
   1058c:	e28db004 	add	fp, sp, #4
   10590:	e24dd038 	sub	sp, sp, #56	; 0x38
   10594:	e50b0020 	str	r0, [fp, #-32]	; 0xffffffe0
   10598:	e50b1024 	str	r1, [fp, #-36]	; 0xffffffdc
    strcpy((char *)seL4_GetIPCBuffer()->msg, name);
   1059c:	ebffffc5 	bl	104b8 <seL4_GetIPCBuffer>
   105a0:	e1a03000 	mov	r3, r0
   105a4:	e2833004 	add	r3, r3, #4
   105a8:	e51b1024 	ldr	r1, [fp, #-36]	; 0xffffffdc
   105ac:	e1a00003 	mov	r0, r3
   105b0:	eb00463c 	bl	21ea8 <strcpy>

    seL4_Word unused0 = 0;
   105b4:	e3a03000 	mov	r3, #0
   105b8:	e50b3008 	str	r3, [fp, #-8]
    seL4_Word unused1 = 0;
   105bc:	e3a03000 	mov	r3, #0
   105c0:	e50b300c 	str	r3, [fp, #-12]
    seL4_Word unused2 = 0;
   105c4:	e3a03000 	mov	r3, #0
   105c8:	e50b3010 	str	r3, [fp, #-16]
    seL4_Word unused3 = 0;
   105cc:	e3a03000 	mov	r3, #0
   105d0:	e50b3014 	str	r3, [fp, #-20]	; 0xffffffec
    seL4_Word unused4 = 0;
   105d4:	e3a03000 	mov	r3, #0
   105d8:	e50b3018 	str	r3, [fp, #-24]	; 0xffffffe8
    seL4_Word unused5 = 0;
   105dc:	e3a03000 	mov	r3, #0
   105e0:	e50b301c 	str	r3, [fp, #-28]	; 0xffffffe4

    arm_sys_send_recv(seL4_SysDebugNameThread, tcb, &unused0, 0, &unused1, &unused2, &unused3, &unused4, &unused5, 0);
   105e4:	e24b2008 	sub	r2, fp, #8
   105e8:	e3a03000 	mov	r3, #0
   105ec:	e58d3014 	str	r3, [sp, #20]
   105f0:	e24b301c 	sub	r3, fp, #28
   105f4:	e58d3010 	str	r3, [sp, #16]
   105f8:	e24b3018 	sub	r3, fp, #24
   105fc:	e58d300c 	str	r3, [sp, #12]
   10600:	e24b3014 	sub	r3, fp, #20
   10604:	e58d3008 	str	r3, [sp, #8]
   10608:	e24b3010 	sub	r3, fp, #16
   1060c:	e58d3004 	str	r3, [sp, #4]
   10610:	e24b300c 	sub	r3, fp, #12
   10614:	e58d3000 	str	r3, [sp]
   10618:	e3a03000 	mov	r3, #0
   1061c:	e51b1020 	ldr	r1, [fp, #-32]	; 0xffffffe0
   10620:	e3e0000d 	mvn	r0, #13
   10624:	ebffffac 	bl	104dc <arm_sys_send_recv>
}
   10628:	e320f000 	nop	{0}
   1062c:	e24bd004 	sub	sp, fp, #4
   10630:	e8bd8800 	pop	{fp, pc}

00010634 <sel4runtime_read_tpidr_el0>:
#if defined(__ARM_ARCH_7A__) || \
    defined(__ARM_ARCH_7R__) || \
    (defined(__ARM_ARCH) && __ARM_ARCH >= 7)

static inline sel4runtime_uintptr_t sel4runtime_read_tpidr_el0(void)
{
   10634:	e52db004 	push	{fp}		; (str fp, [sp, #-4]!)
   10638:	e28db000 	add	fp, sp, #0
   1063c:	e24dd00c 	sub	sp, sp, #12
    sel4runtime_uintptr_t reg;
    __asm__ __volatile__("mrc p15,0,%0,c13,c0,2" : "=r"(reg));
   10640:	ee1d3f50 	mrc	15, 0, r3, cr13, cr0, {2}
   10644:	e50b3008 	str	r3, [fp, #-8]
    return reg;
   10648:	e51b3008 	ldr	r3, [fp, #-8]
}
   1064c:	e1a00003 	mov	r0, r3
   10650:	e28bd000 	add	sp, fp, #0
   10654:	e49db004 	pop	{fp}		; (ldr fp, [sp], #4)
   10658:	e12fff1e 	bx	lr

0001065c <sel4runtime_write_tpidr_el0>:

static inline void sel4runtime_write_tpidr_el0(sel4runtime_uintptr_t reg)
{
   1065c:	e52db004 	push	{fp}		; (str fp, [sp, #-4]!)
   10660:	e28db000 	add	fp, sp, #0
   10664:	e24dd00c 	sub	sp, sp, #12
   10668:	e50b0008 	str	r0, [fp, #-8]
    __asm__ __volatile__("mcr p15,0,%0,c13,c0,2" :: "r"(reg));
   1066c:	e51b3008 	ldr	r3, [fp, #-8]
   10670:	ee0d3f50 	mcr	15, 0, r3, cr13, cr0, {2}
}
   10674:	e320f000 	nop	{0}
   10678:	e28bd000 	add	sp, fp, #0
   1067c:	e49db004 	pop	{fp}		; (ldr fp, [sp], #4)
   10680:	e12fff1e 	bx	lr

00010684 <sel4runtime_set_tls_base>:

/*
 * Set the value of the TLS base for the current thread.
 */
static inline void sel4runtime_set_tls_base(sel4runtime_uintptr_t tls_base)
{
   10684:	e92d4800 	push	{fp, lr}
   10688:	e28db004 	add	fp, sp, #4
   1068c:	e24dd008 	sub	sp, sp, #8
   10690:	e50b0008 	str	r0, [fp, #-8]
    sel4runtime_write_tpidr_el0(tls_base);
   10694:	e51b0008 	ldr	r0, [fp, #-8]
   10698:	ebffffef 	bl	1065c <sel4runtime_write_tpidr_el0>
}
   1069c:	e320f000 	nop	{0}
   106a0:	e24bd004 	sub	sp, fp, #4
   106a4:	e8bd8800 	pop	{fp, pc}

000106a8 <sel4runtime_get_tls_base>:

/*
 * Obtain the value of the TLS base for the current thread.
 */
static inline sel4runtime_uintptr_t sel4runtime_get_tls_base(void)
{
   106a8:	e92d4800 	push	{fp, lr}
   106ac:	e28db004 	add	fp, sp, #4
    return sel4runtime_read_tpidr_el0();
   106b0:	ebffffdf 	bl	10634 <sel4runtime_read_tpidr_el0>
   106b4:	e1a03000 	mov	r3, r0
}
   106b8:	e1a00003 	mov	r0, r3
   106bc:	e8bd8800 	pop	{fp, pc}

000106c0 <sel4runtime_process_name>:
static const sel4runtime_size_t tls_region_size(sel4runtime_size_t mem_size, sel4runtime_size_t align);
static void empty_tls(void);
static int is_initial_thread(void);

char const *sel4runtime_process_name(void)
{
   106c0:	e52db004 	push	{fp}		; (str fp, [sp, #-4]!)
   106c4:	e28db000 	add	fp, sp, #0
    return env.process_name;
   106c8:	e3083000 	movw	r3, #32768	; 0x8000
   106cc:	e3403004 	movt	r3, #4
   106d0:	e5933000 	ldr	r3, [r3]
}
   106d4:	e1a00003 	mov	r0, r3
   106d8:	e28bd000 	add	sp, fp, #0
   106dc:	e49db004 	pop	{fp}		; (ldr fp, [sp], #4)
   106e0:	e12fff1e 	bx	lr

000106e4 <sel4runtime_argv>:

char const *const *sel4runtime_argv(void)
{
   106e4:	e52db004 	push	{fp}		; (str fp, [sp, #-4]!)
   106e8:	e28db000 	add	fp, sp, #0
    return env.argv;
   106ec:	e3083000 	movw	r3, #32768	; 0x8000
   106f0:	e3403004 	movt	r3, #4
   106f4:	e5933038 	ldr	r3, [r3, #56]	; 0x38
}
   106f8:	e1a00003 	mov	r0, r3
   106fc:	e28bd000 	add	sp, fp, #0
   10700:	e49db004 	pop	{fp}		; (ldr fp, [sp], #4)
   10704:	e12fff1e 	bx	lr

00010708 <sel4runtime_argc>:

int sel4runtime_argc(void)
{
   10708:	e52db004 	push	{fp}		; (str fp, [sp, #-4]!)
   1070c:	e28db000 	add	fp, sp, #0
    return env.argc;
   10710:	e3083000 	movw	r3, #32768	; 0x8000
   10714:	e3403004 	movt	r3, #4
   10718:	e593303c 	ldr	r3, [r3, #60]	; 0x3c
}
   1071c:	e1a00003 	mov	r0, r3
   10720:	e28bd000 	add	sp, fp, #0
   10724:	e49db004 	pop	{fp}		; (ldr fp, [sp], #4)
   10728:	e12fff1e 	bx	lr

0001072c <sel4runtime_envp>:

char const *const *sel4runtime_envp(void)
{
   1072c:	e52db004 	push	{fp}		; (str fp, [sp, #-4]!)
   10730:	e28db000 	add	fp, sp, #0
    return env.envp;
   10734:	e3083000 	movw	r3, #32768	; 0x8000
   10738:	e3403004 	movt	r3, #4
   1073c:	e5933044 	ldr	r3, [r3, #68]	; 0x44
}
   10740:	e1a00003 	mov	r0, r3
   10744:	e28bd000 	add	sp, fp, #0
   10748:	e49db004 	pop	{fp}		; (ldr fp, [sp], #4)
   1074c:	e12fff1e 	bx	lr

00010750 <sel4runtime_auxv>:

auxv_t const *sel4runtime_auxv(void)
{
   10750:	e52db004 	push	{fp}		; (str fp, [sp, #-4]!)
   10754:	e28db000 	add	fp, sp, #0
    return env.auxv;
   10758:	e3083000 	movw	r3, #32768	; 0x8000
   1075c:	e3403004 	movt	r3, #4
   10760:	e5933040 	ldr	r3, [r3, #64]	; 0x40
}
   10764:	e1a00003 	mov	r0, r3
   10768:	e28bd000 	add	sp, fp, #0
   1076c:	e49db004 	pop	{fp}		; (ldr fp, [sp], #4)
   10770:	e12fff1e 	bx	lr

00010774 <sel4runtime_bootinfo>:

seL4_BootInfo *sel4runtime_bootinfo(void)
{
   10774:	e52db004 	push	{fp}		; (str fp, [sp, #-4]!)
   10778:	e28db000 	add	fp, sp, #0
    return env.bootinfo;
   1077c:	e3083000 	movw	r3, #32768	; 0x8000
   10780:	e3403004 	movt	r3, #4
   10784:	e5933004 	ldr	r3, [r3, #4]
}
   10788:	e1a00003 	mov	r0, r3
   1078c:	e28bd000 	add	sp, fp, #0
   10790:	e49db004 	pop	{fp}		; (ldr fp, [sp], #4)
   10794:	e12fff1e 	bx	lr

00010798 <sel4runtime_get_tls_size>:

sel4runtime_size_t sel4runtime_get_tls_size(void)
{
   10798:	e52db004 	push	{fp}		; (str fp, [sp, #-4]!)
   1079c:	e28db000 	add	fp, sp, #0
    return env.tls.region_size;
   107a0:	e3083000 	movw	r3, #32768	; 0x8000
   107a4:	e3403004 	movt	r3, #4
   107a8:	e593302c 	ldr	r3, [r3, #44]	; 0x2c
}
   107ac:	e1a00003 	mov	r0, r3
   107b0:	e28bd000 	add	sp, fp, #0
   107b4:	e49db004 	pop	{fp}		; (ldr fp, [sp], #4)
   107b8:	e12fff1e 	bx	lr

000107bc <sel4runtime_initial_tls_enabled>:

int sel4runtime_initial_tls_enabled(void)
{
   107bc:	e52db004 	push	{fp}		; (str fp, [sp, #-4]!)
   107c0:	e28db000 	add	fp, sp, #0
    /*
     * If the TLS for the initial process has been activated, the thread
     * object in the TLS will be used rather than the static thread
     * object.
     */
    return env.initial_thread_tls_base != (sel4runtime_uintptr_t)SEL4RUNTIME_NULL;
   107c4:	e3083000 	movw	r3, #32768	; 0x8000
   107c8:	e3403004 	movt	r3, #4
   107cc:	e5933008 	ldr	r3, [r3, #8]
   107d0:	e3530000 	cmp	r3, #0
   107d4:	13a03001 	movne	r3, #1
   107d8:	03a03000 	moveq	r3, #0
   107dc:	e6ef3073 	uxtb	r3, r3
}
   107e0:	e1a00003 	mov	r0, r3
   107e4:	e28bd000 	add	sp, fp, #0
   107e8:	e49db004 	pop	{fp}		; (ldr fp, [sp], #4)
   107ec:	e12fff1e 	bx	lr

000107f0 <sel4runtime_write_tls_image>:

sel4runtime_uintptr_t sel4runtime_write_tls_image(void *tls_memory)
{
   107f0:	e92d4800 	push	{fp, lr}
   107f4:	e28db004 	add	fp, sp, #4
   107f8:	e24dd008 	sub	sp, sp, #8
   107fc:	e50b0008 	str	r0, [fp, #-8]
    if (tls_memory == SEL4RUNTIME_NULL) {
   10800:	e51b3008 	ldr	r3, [fp, #-8]
   10804:	e3530000 	cmp	r3, #0
   10808:	1a000001 	bne	10814 <sel4runtime_write_tls_image+0x24>
        return (sel4runtime_uintptr_t)SEL4RUNTIME_NULL;
   1080c:	e3a03000 	mov	r3, #0
   10810:	ea000004 	b	10828 <sel4runtime_write_tls_image+0x38>
    }

    copy_tls_data(tls_memory);
   10814:	e51b0008 	ldr	r0, [fp, #-8]
   10818:	eb0001e7 	bl	10fbc <copy_tls_data>

    return tls_base_from_tls_region(tls_memory);
   1081c:	e51b0008 	ldr	r0, [fp, #-8]
   10820:	eb000214 	bl	11078 <tls_base_from_tls_region>
   10824:	e1a03000 	mov	r3, r0
}
   10828:	e1a00003 	mov	r0, r3
   1082c:	e24bd004 	sub	sp, fp, #4
   10830:	e8bd8800 	pop	{fp, pc}

00010834 <sel4runtime_move_initial_tls>:

sel4runtime_uintptr_t sel4runtime_move_initial_tls(void *tls_memory)
{
   10834:	e92d4800 	push	{fp, lr}
   10838:	e28db004 	add	fp, sp, #4
   1083c:	e24dd010 	sub	sp, sp, #16
   10840:	e50b0010 	str	r0, [fp, #-16]
    if (tls_memory == SEL4RUNTIME_NULL) {
   10844:	e51b3010 	ldr	r3, [fp, #-16]
   10848:	e3530000 	cmp	r3, #0
   1084c:	1a000001 	bne	10858 <sel4runtime_move_initial_tls+0x24>
        return (sel4runtime_uintptr_t)SEL4RUNTIME_NULL;
   10850:	e3a03000 	mov	r3, #0
   10854:	ea000034 	b	1092c <sel4runtime_move_initial_tls+0xf8>
    }

    sel4runtime_uintptr_t tls_base = sel4runtime_write_tls_image(tls_memory);
   10858:	e51b0010 	ldr	r0, [fp, #-16]
   1085c:	ebffffe3 	bl	107f0 <sel4runtime_write_tls_image>
   10860:	e50b0008 	str	r0, [fp, #-8]
    if (tls_base == (sel4runtime_uintptr_t)SEL4RUNTIME_NULL) {
   10864:	e51b3008 	ldr	r3, [fp, #-8]
   10868:	e3530000 	cmp	r3, #0
   1086c:	1a000001 	bne	10878 <sel4runtime_move_initial_tls+0x44>
        return (sel4runtime_uintptr_t)SEL4RUNTIME_NULL;
   10870:	e3a03000 	mov	r3, #0
   10874:	ea00002c 	b	1092c <sel4runtime_move_initial_tls+0xf8>
    }

    sel4runtime_set_tls_base(tls_base);
   10878:	e51b0008 	ldr	r0, [fp, #-8]
   1087c:	ebffff80 	bl	10684 <sel4runtime_set_tls_base>

    if (env.initial_thread_ipc_buffer != SEL4RUNTIME_NULL) {
   10880:	e3083000 	movw	r3, #32768	; 0x8000
   10884:	e3403004 	movt	r3, #4
   10888:	e5933010 	ldr	r3, [r3, #16]
   1088c:	e3530000 	cmp	r3, #0
   10890:	0a000006 	beq	108b0 <sel4runtime_move_initial_tls+0x7c>
        __sel4_ipc_buffer = env.initial_thread_ipc_buffer;
   10894:	e3083000 	movw	r3, #32768	; 0x8000
   10898:	e3403004 	movt	r3, #4
   1089c:	e5933010 	ldr	r3, [r3, #16]
   108a0:	eb000695 	bl	122fc <__aeabi_read_tp>
   108a4:	e1a02000 	mov	r2, r0
   108a8:	e59f1088 	ldr	r1, [pc, #136]	; 10938 <sel4runtime_move_initial_tls+0x104>
   108ac:	e7823001 	str	r3, [r2, r1]
    }

    env.initial_thread_tls_base = tls_base;
   108b0:	e3083000 	movw	r3, #32768	; 0x8000
   108b4:	e3403004 	movt	r3, #4
   108b8:	e51b2008 	ldr	r2, [fp, #-8]
   108bc:	e5832008 	str	r2, [r3, #8]

#if defined(CONFIG_DEBUG_BUILD)
    if (env.initial_thread_tcb && env.initial_thread_ipc_buffer && env.process_name) {
   108c0:	e3083000 	movw	r3, #32768	; 0x8000
   108c4:	e3403004 	movt	r3, #4
   108c8:	e593300c 	ldr	r3, [r3, #12]
   108cc:	e3530000 	cmp	r3, #0
   108d0:	0a000012 	beq	10920 <sel4runtime_move_initial_tls+0xec>
   108d4:	e3083000 	movw	r3, #32768	; 0x8000
   108d8:	e3403004 	movt	r3, #4
   108dc:	e5933010 	ldr	r3, [r3, #16]
   108e0:	e3530000 	cmp	r3, #0
   108e4:	0a00000d 	beq	10920 <sel4runtime_move_initial_tls+0xec>
   108e8:	e3083000 	movw	r3, #32768	; 0x8000
   108ec:	e3403004 	movt	r3, #4
   108f0:	e5933000 	ldr	r3, [r3]
   108f4:	e3530000 	cmp	r3, #0
   108f8:	0a000008 	beq	10920 <sel4runtime_move_initial_tls+0xec>
        // The thread can only be named after the TLS is initialised
        // and if an IPC buffer is present.
        seL4_DebugNameThread(env.initial_thread_tcb, env.process_name);
   108fc:	e3083000 	movw	r3, #32768	; 0x8000
   10900:	e3403004 	movt	r3, #4
   10904:	e593200c 	ldr	r2, [r3, #12]
   10908:	e3083000 	movw	r3, #32768	; 0x8000
   1090c:	e3403004 	movt	r3, #4
   10910:	e5933000 	ldr	r3, [r3]
   10914:	e1a01003 	mov	r1, r3
   10918:	e1a00002 	mov	r0, r2
   1091c:	ebffff19 	bl	10588 <seL4_DebugNameThread>
    }
#endif

    return env.initial_thread_tls_base;
   10920:	e3083000 	movw	r3, #32768	; 0x8000
   10924:	e3403004 	movt	r3, #4
   10928:	e5933008 	ldr	r3, [r3, #8]
}
   1092c:	e1a00003 	mov	r0, r3
   10930:	e24bd004 	sub	sp, fp, #4
   10934:	e8bd8800 	pop	{fp, pc}
   10938:	00000008 	andeq	r0, r0, r8

0001093c <sel4runtime_set_exit>:

sel4runtime_exit_cb *sel4runtime_set_exit(sel4runtime_exit_cb *cb)
{
   1093c:	e52db004 	push	{fp}		; (str fp, [sp, #-4]!)
   10940:	e28db000 	add	fp, sp, #0
   10944:	e24dd014 	sub	sp, sp, #20
   10948:	e50b0010 	str	r0, [fp, #-16]
    sel4runtime_exit_cb *old = env.exit_cb;
   1094c:	e3083000 	movw	r3, #32768	; 0x8000
   10950:	e3403004 	movt	r3, #4
   10954:	e5933048 	ldr	r3, [r3, #72]	; 0x48
   10958:	e50b3008 	str	r3, [fp, #-8]
    env.exit_cb = cb;
   1095c:	e3083000 	movw	r3, #32768	; 0x8000
   10960:	e3403004 	movt	r3, #4
   10964:	e51b2010 	ldr	r2, [fp, #-16]
   10968:	e5832048 	str	r2, [r3, #72]	; 0x48
    return old;
   1096c:	e51b3008 	ldr	r3, [fp, #-8]
}
   10970:	e1a00003 	mov	r0, r3
   10974:	e28bd000 	add	sp, fp, #0
   10978:	e49db004 	pop	{fp}		; (ldr fp, [sp], #4)
   1097c:	e12fff1e 	bx	lr

00010980 <sel4runtime_set_pre_exit>:

sel4runtime_pre_exit_cb *sel4runtime_set_pre_exit(sel4runtime_pre_exit_cb *cb)
{
   10980:	e52db004 	push	{fp}		; (str fp, [sp, #-4]!)
   10984:	e28db000 	add	fp, sp, #0
   10988:	e24dd014 	sub	sp, sp, #20
   1098c:	e50b0010 	str	r0, [fp, #-16]
    sel4runtime_pre_exit_cb *old = env.pre_exit_cb;
   10990:	e3083000 	movw	r3, #32768	; 0x8000
   10994:	e3403004 	movt	r3, #4
   10998:	e593304c 	ldr	r3, [r3, #76]	; 0x4c
   1099c:	e50b3008 	str	r3, [fp, #-8]
    env.pre_exit_cb = cb;
   109a0:	e3083000 	movw	r3, #32768	; 0x8000
   109a4:	e3403004 	movt	r3, #4
   109a8:	e51b2010 	ldr	r2, [fp, #-16]
   109ac:	e583204c 	str	r2, [r3, #76]	; 0x4c
    return old;
   109b0:	e51b3008 	ldr	r3, [fp, #-8]
}
   109b4:	e1a00003 	mov	r0, r3
   109b8:	e28bd000 	add	sp, fp, #0
   109bc:	e49db004 	pop	{fp}		; (ldr fp, [sp], #4)
   109c0:	e12fff1e 	bx	lr

000109c4 <sel4runtime_exit>:

void sel4runtime_exit(int code)
{
   109c4:	e92d4800 	push	{fp, lr}
   109c8:	e28db004 	add	fp, sp, #4
   109cc:	e24dd008 	sub	sp, sp, #8
   109d0:	e50b0008 	str	r0, [fp, #-8]
    if (env.pre_exit_cb != SEL4RUNTIME_NULL) {
   109d4:	e3083000 	movw	r3, #32768	; 0x8000
   109d8:	e3403004 	movt	r3, #4
   109dc:	e593304c 	ldr	r3, [r3, #76]	; 0x4c
   109e0:	e3530000 	cmp	r3, #0
   109e4:	0a000005 	beq	10a00 <sel4runtime_exit+0x3c>
        code = env.pre_exit_cb(code);
   109e8:	e3083000 	movw	r3, #32768	; 0x8000
   109ec:	e3403004 	movt	r3, #4
   109f0:	e593304c 	ldr	r3, [r3, #76]	; 0x4c
   109f4:	e51b0008 	ldr	r0, [fp, #-8]
   109f8:	e12fff33 	blx	r3
   109fc:	e50b0008 	str	r0, [fp, #-8]
    }

    __sel4runtime_run_destructors();
   10a00:	eb00029b 	bl	11474 <__sel4runtime_run_destructors>

    /* If the exit is never set this will try and call a NULL function
     * pointer which should result in a fault. This is as good a way as
     * any to exit the process if we don't know anything better about
     * the environment. */
    env.exit_cb(code);
   10a04:	e3083000 	movw	r3, #32768	; 0x8000
   10a08:	e3403004 	movt	r3, #4
   10a0c:	e5933048 	ldr	r3, [r3, #72]	; 0x48
   10a10:	e51b0008 	ldr	r0, [fp, #-8]
   10a14:	e12fff33 	blx	r3
}
   10a18:	e320f000 	nop	{0}
   10a1c:	e24bd004 	sub	sp, fp, #4
   10a20:	e8bd8800 	pop	{fp, pc}

00010a24 <__sel4runtime_write_tls_variable>:
    sel4runtime_uintptr_t dest_tls_base,
    unsigned char *local_tls_dest,
    unsigned char *src,
    sel4runtime_size_t bytes
)
{
   10a24:	e92d4800 	push	{fp, lr}
   10a28:	e28db004 	add	fp, sp, #4
   10a2c:	e24dd028 	sub	sp, sp, #40	; 0x28
   10a30:	e50b0020 	str	r0, [fp, #-32]	; 0xffffffe0
   10a34:	e50b1024 	str	r1, [fp, #-36]	; 0xffffffdc
   10a38:	e50b2028 	str	r2, [fp, #-40]	; 0xffffffd8
   10a3c:	e50b302c 	str	r3, [fp, #-44]	; 0xffffffd4
    sel4runtime_uintptr_t local_tls_base = sel4runtime_get_tls_base();
   10a40:	ebffff18 	bl	106a8 <sel4runtime_get_tls_base>
   10a44:	e50b0008 	str	r0, [fp, #-8]
    unsigned char *local_tls = tls_from_tls_base(local_tls_base);
   10a48:	e51b0008 	ldr	r0, [fp, #-8]
   10a4c:	eb0001ab 	bl	11100 <tls_from_tls_base>
   10a50:	e50b000c 	str	r0, [fp, #-12]
    sel4runtime_size_t offset = local_tls_dest - local_tls;
   10a54:	e51b2024 	ldr	r2, [fp, #-36]	; 0xffffffdc
   10a58:	e51b300c 	ldr	r3, [fp, #-12]
   10a5c:	e0423003 	sub	r3, r2, r3
   10a60:	e50b3010 	str	r3, [fp, #-16]
    sel4runtime_size_t tls_size = env.tls.memory_size;
   10a64:	e3083000 	movw	r3, #32768	; 0x8000
   10a68:	e3403004 	movt	r3, #4
   10a6c:	e5933028 	ldr	r3, [r3, #40]	; 0x28
   10a70:	e50b3014 	str	r3, [fp, #-20]	; 0xffffffec

    // Write must not go past end of TLS.
    if (offset > tls_size || offset + bytes > tls_size) {
   10a74:	e51b2010 	ldr	r2, [fp, #-16]
   10a78:	e51b3014 	ldr	r3, [fp, #-20]	; 0xffffffec
   10a7c:	e1520003 	cmp	r2, r3
   10a80:	8a000005 	bhi	10a9c <__sel4runtime_write_tls_variable+0x78>
   10a84:	e51b2010 	ldr	r2, [fp, #-16]
   10a88:	e51b302c 	ldr	r3, [fp, #-44]	; 0xffffffd4
   10a8c:	e0823003 	add	r3, r2, r3
   10a90:	e51b2014 	ldr	r2, [fp, #-20]	; 0xffffffec
   10a94:	e1520003 	cmp	r2, r3
   10a98:	2a000001 	bcs	10aa4 <__sel4runtime_write_tls_variable+0x80>
        return -1;
   10a9c:	e3e03000 	mvn	r3, #0
   10aa0:	ea00000b 	b	10ad4 <__sel4runtime_write_tls_variable+0xb0>
    }

    unsigned char *dest_tls = tls_from_tls_base(dest_tls_base);
   10aa4:	e51b0020 	ldr	r0, [fp, #-32]	; 0xffffffe0
   10aa8:	eb000194 	bl	11100 <tls_from_tls_base>
   10aac:	e50b0018 	str	r0, [fp, #-24]	; 0xffffffe8
    unsigned char *dest_addr = dest_tls + offset;
   10ab0:	e51b2018 	ldr	r2, [fp, #-24]	; 0xffffffe8
   10ab4:	e51b3010 	ldr	r3, [fp, #-16]
   10ab8:	e0823003 	add	r3, r2, r3
   10abc:	e50b301c 	str	r3, [fp, #-28]	; 0xffffffe4

    __sel4runtime_memcpy(dest_addr, src, bytes);
   10ac0:	e51b202c 	ldr	r2, [fp, #-44]	; 0xffffffd4
   10ac4:	e51b1028 	ldr	r1, [fp, #-40]	; 0xffffffd8
   10ac8:	e51b001c 	ldr	r0, [fp, #-28]	; 0xffffffe4
   10acc:	eb000368 	bl	11874 <__sel4runtime_memcpy>

    return 0;
   10ad0:	e3a03000 	mov	r3, #0
}
   10ad4:	e1a00003 	mov	r0, r3
   10ad8:	e24bd004 	sub	sp, fp, #4
   10adc:	e8bd8800 	pop	{fp, pc}

00010ae0 <__sel4runtime_load_env>:
    int argc,
    char const *const *argv,
    char const *const *envp,
    auxv_t const auxv[]
)
{
   10ae0:	e92d4800 	push	{fp, lr}
   10ae4:	e28db004 	add	fp, sp, #4
   10ae8:	e24dd010 	sub	sp, sp, #16
   10aec:	e50b0008 	str	r0, [fp, #-8]
   10af0:	e50b100c 	str	r1, [fp, #-12]
   10af4:	e50b2010 	str	r2, [fp, #-16]
   10af8:	e50b3014 	str	r3, [fp, #-20]	; 0xffffffec
    empty_tls();
   10afc:	eb0001f4 	bl	112d4 <empty_tls>
    parse_auxv(auxv);
   10b00:	e51b0014 	ldr	r0, [fp, #-20]	; 0xffffffec
   10b04:	eb00003c 	bl	10bfc <parse_auxv>
    parse_phdrs();
   10b08:	eb0000b4 	bl	10de0 <parse_phdrs>
    if (argc > 0) {
   10b0c:	e51b3008 	ldr	r3, [fp, #-8]
   10b10:	e3530000 	cmp	r3, #0
   10b14:	da000003 	ble	10b28 <__sel4runtime_load_env+0x48>
        name_process(argv[0]);
   10b18:	e51b300c 	ldr	r3, [fp, #-12]
   10b1c:	e5933000 	ldr	r3, [r3]
   10b20:	e1a00003 	mov	r0, r3
   10b24:	eb000014 	bl	10b7c <name_process>
    }
    try_init_static_tls();
   10b28:	eb000117 	bl	10f8c <try_init_static_tls>

    env.argc = argc;
   10b2c:	e3083000 	movw	r3, #32768	; 0x8000
   10b30:	e3403004 	movt	r3, #4
   10b34:	e51b2008 	ldr	r2, [fp, #-8]
   10b38:	e583203c 	str	r2, [r3, #60]	; 0x3c
    env.argv = argv;
   10b3c:	e3083000 	movw	r3, #32768	; 0x8000
   10b40:	e3403004 	movt	r3, #4
   10b44:	e51b200c 	ldr	r2, [fp, #-12]
   10b48:	e5832038 	str	r2, [r3, #56]	; 0x38
    env.auxv = auxv;
   10b4c:	e3083000 	movw	r3, #32768	; 0x8000
   10b50:	e3403004 	movt	r3, #4
   10b54:	e51b2014 	ldr	r2, [fp, #-20]	; 0xffffffec
   10b58:	e5832040 	str	r2, [r3, #64]	; 0x40
    env.envp = envp;
   10b5c:	e3083000 	movw	r3, #32768	; 0x8000
   10b60:	e3403004 	movt	r3, #4
   10b64:	e51b2010 	ldr	r2, [fp, #-16]
   10b68:	e5832044 	str	r2, [r3, #68]	; 0x44

    __sel4runtime_run_constructors();
   10b6c:	eb00020c 	bl	113a4 <__sel4runtime_run_constructors>
}
   10b70:	e320f000 	nop	{0}
   10b74:	e24bd004 	sub	sp, fp, #4
   10b78:	e8bd8800 	pop	{fp, pc}

00010b7c <name_process>:

static void name_process(char const *name)
{
   10b7c:	e52db004 	push	{fp}		; (str fp, [sp, #-4]!)
   10b80:	e28db000 	add	fp, sp, #0
   10b84:	e24dd00c 	sub	sp, sp, #12
   10b88:	e50b0008 	str	r0, [fp, #-8]
    env.process_name = name;
   10b8c:	e3083000 	movw	r3, #32768	; 0x8000
   10b90:	e3403004 	movt	r3, #4
   10b94:	e51b2008 	ldr	r2, [fp, #-8]
   10b98:	e5832000 	str	r2, [r3]

    while (name && *name != '\0') {
   10b9c:	ea00000b 	b	10bd0 <name_process+0x54>
        if (*name == '/') {
   10ba0:	e51b3008 	ldr	r3, [fp, #-8]
   10ba4:	e5d33000 	ldrb	r3, [r3]
   10ba8:	e353002f 	cmp	r3, #47	; 0x2f
   10bac:	1a000004 	bne	10bc4 <name_process+0x48>
            env.process_name = name + 1;
   10bb0:	e51b3008 	ldr	r3, [fp, #-8]
   10bb4:	e2832001 	add	r2, r3, #1
   10bb8:	e3083000 	movw	r3, #32768	; 0x8000
   10bbc:	e3403004 	movt	r3, #4
   10bc0:	e5832000 	str	r2, [r3]
        }

        name++;
   10bc4:	e51b3008 	ldr	r3, [fp, #-8]
   10bc8:	e2833001 	add	r3, r3, #1
   10bcc:	e50b3008 	str	r3, [fp, #-8]
    while (name && *name != '\0') {
   10bd0:	e51b3008 	ldr	r3, [fp, #-8]
   10bd4:	e3530000 	cmp	r3, #0
   10bd8:	0a000003 	beq	10bec <name_process+0x70>
   10bdc:	e51b3008 	ldr	r3, [fp, #-8]
   10be0:	e5d33000 	ldrb	r3, [r3]
   10be4:	e3530000 	cmp	r3, #0
   10be8:	1affffec 	bne	10ba0 <name_process+0x24>
    }
}
   10bec:	e320f000 	nop	{0}
   10bf0:	e28bd000 	add	sp, fp, #0
   10bf4:	e49db004 	pop	{fp}		; (ldr fp, [sp], #4)
   10bf8:	e12fff1e 	bx	lr

00010bfc <parse_auxv>:

static void parse_auxv(auxv_t const auxv[])
{
   10bfc:	e52db004 	push	{fp}		; (str fp, [sp, #-4]!)
   10c00:	e28db000 	add	fp, sp, #0
   10c04:	e24dd014 	sub	sp, sp, #20
   10c08:	e50b0010 	str	r0, [fp, #-16]
    for (int i = 0; auxv[i].a_type != AT_NULL; i++) {
   10c0c:	e3a03000 	mov	r3, #0
   10c10:	e50b3008 	str	r3, [fp, #-8]
   10c14:	ea000065 	b	10db0 <parse_auxv+0x1b4>
        switch (auxv[i].a_type) {
   10c18:	e51b3008 	ldr	r3, [fp, #-8]
   10c1c:	e1a03183 	lsl	r3, r3, #3
   10c20:	e51b2010 	ldr	r2, [fp, #-16]
   10c24:	e0823003 	add	r3, r2, r3
   10c28:	e5933000 	ldr	r3, [r3]
   10c2c:	e3530045 	cmp	r3, #69	; 0x45
   10c30:	0a00004e 	beq	10d70 <parse_auxv+0x174>
   10c34:	e3530045 	cmp	r3, #69	; 0x45
   10c38:	ca000056 	bgt	10d98 <parse_auxv+0x19c>
   10c3c:	e3530043 	cmp	r3, #67	; 0x43
   10c40:	0a000041 	beq	10d4c <parse_auxv+0x150>
   10c44:	e3530043 	cmp	r3, #67	; 0x43
   10c48:	ca000052 	bgt	10d98 <parse_auxv+0x19c>
   10c4c:	e3530040 	cmp	r3, #64	; 0x40
   10c50:	0a000026 	beq	10cf0 <parse_auxv+0xf4>
   10c54:	e3530040 	cmp	r3, #64	; 0x40
   10c58:	ca00004e 	bgt	10d98 <parse_auxv+0x19c>
   10c5c:	e3530005 	cmp	r3, #5
   10c60:	0a00000f 	beq	10ca4 <parse_auxv+0xa8>
   10c64:	e3530005 	cmp	r3, #5
   10c68:	ca00004a 	bgt	10d98 <parse_auxv+0x19c>
   10c6c:	e3530003 	cmp	r3, #3
   10c70:	0a000015 	beq	10ccc <parse_auxv+0xd0>
   10c74:	e3530004 	cmp	r3, #4
   10c78:	1a000046 	bne	10d98 <parse_auxv+0x19c>
        case AT_PHENT: {
            env.program_header.size = auxv[i].a_un.a_val;
   10c7c:	e51b3008 	ldr	r3, [fp, #-8]
   10c80:	e1a03183 	lsl	r3, r3, #3
   10c84:	e51b2010 	ldr	r2, [fp, #-16]
   10c88:	e0823003 	add	r3, r2, r3
   10c8c:	e5933004 	ldr	r3, [r3, #4]
   10c90:	e1a02003 	mov	r2, r3
   10c94:	e3083000 	movw	r3, #32768	; 0x8000
   10c98:	e3403004 	movt	r3, #4
   10c9c:	e5832018 	str	r2, [r3, #24]
            break;
   10ca0:	ea00003f 	b	10da4 <parse_auxv+0x1a8>
        }
        case AT_PHNUM: {
            env.program_header.count = auxv[i].a_un.a_val;
   10ca4:	e51b3008 	ldr	r3, [fp, #-8]
   10ca8:	e1a03183 	lsl	r3, r3, #3
   10cac:	e51b2010 	ldr	r2, [fp, #-16]
   10cb0:	e0823003 	add	r3, r2, r3
   10cb4:	e5933004 	ldr	r3, [r3, #4]
   10cb8:	e1a02003 	mov	r2, r3
   10cbc:	e3083000 	movw	r3, #32768	; 0x8000
   10cc0:	e3403004 	movt	r3, #4
   10cc4:	e5832014 	str	r2, [r3, #20]
            break;
   10cc8:	ea000035 	b	10da4 <parse_auxv+0x1a8>
        }
        case AT_PHDR: {
            env.program_header.headers = auxv[i].a_un.a_ptr;
   10ccc:	e51b3008 	ldr	r3, [fp, #-8]
   10cd0:	e1a03183 	lsl	r3, r3, #3
   10cd4:	e51b2010 	ldr	r2, [fp, #-16]
   10cd8:	e0823003 	add	r3, r2, r3
   10cdc:	e5932004 	ldr	r2, [r3, #4]
   10ce0:	e3083000 	movw	r3, #32768	; 0x8000
   10ce4:	e3403004 	movt	r3, #4
   10ce8:	e583201c 	str	r2, [r3, #28]
            break;
   10cec:	ea00002c 	b	10da4 <parse_auxv+0x1a8>
        }
        case AT_SEL4_BOOT_INFO: {
            seL4_BootInfo *bootinfo = auxv[i].a_un.a_ptr;
   10cf0:	e51b3008 	ldr	r3, [fp, #-8]
   10cf4:	e1a03183 	lsl	r3, r3, #3
   10cf8:	e51b2010 	ldr	r2, [fp, #-16]
   10cfc:	e0823003 	add	r3, r2, r3
   10d00:	e5933004 	ldr	r3, [r3, #4]
   10d04:	e50b300c 	str	r3, [fp, #-12]
            if (bootinfo == SEL4RUNTIME_NULL) {
   10d08:	e51b300c 	ldr	r3, [fp, #-12]
   10d0c:	e3530000 	cmp	r3, #0
   10d10:	0a000022 	beq	10da0 <parse_auxv+0x1a4>
                break;
            }
            env.bootinfo = bootinfo;
   10d14:	e3083000 	movw	r3, #32768	; 0x8000
   10d18:	e3403004 	movt	r3, #4
   10d1c:	e51b200c 	ldr	r2, [fp, #-12]
   10d20:	e5832004 	str	r2, [r3, #4]
            env.initial_thread_ipc_buffer = bootinfo->ipcBuffer;
   10d24:	e51b300c 	ldr	r3, [fp, #-12]
   10d28:	e5932010 	ldr	r2, [r3, #16]
   10d2c:	e3083000 	movw	r3, #32768	; 0x8000
   10d30:	e3403004 	movt	r3, #4
   10d34:	e5832010 	str	r2, [r3, #16]
            env.initial_thread_tcb = seL4_CapInitThreadTCB;
   10d38:	e3083000 	movw	r3, #32768	; 0x8000
   10d3c:	e3403004 	movt	r3, #4
   10d40:	e3a02001 	mov	r2, #1
   10d44:	e583200c 	str	r2, [r3, #12]
            break;
   10d48:	ea000015 	b	10da4 <parse_auxv+0x1a8>
        }
        case AT_SEL4_IPC_BUFFER_PTR: {
            env.initial_thread_ipc_buffer = auxv[i].a_un.a_ptr;
   10d4c:	e51b3008 	ldr	r3, [fp, #-8]
   10d50:	e1a03183 	lsl	r3, r3, #3
   10d54:	e51b2010 	ldr	r2, [fp, #-16]
   10d58:	e0823003 	add	r3, r2, r3
   10d5c:	e5932004 	ldr	r2, [r3, #4]
   10d60:	e3083000 	movw	r3, #32768	; 0x8000
   10d64:	e3403004 	movt	r3, #4
   10d68:	e5832010 	str	r2, [r3, #16]
            break;
   10d6c:	ea00000c 	b	10da4 <parse_auxv+0x1a8>
        }
        case AT_SEL4_TCB: {
            env.initial_thread_tcb = auxv[i].a_un.a_val;
   10d70:	e51b3008 	ldr	r3, [fp, #-8]
   10d74:	e1a03183 	lsl	r3, r3, #3
   10d78:	e51b2010 	ldr	r2, [fp, #-16]
   10d7c:	e0823003 	add	r3, r2, r3
   10d80:	e5933004 	ldr	r3, [r3, #4]
   10d84:	e1a02003 	mov	r2, r3
   10d88:	e3083000 	movw	r3, #32768	; 0x8000
   10d8c:	e3403004 	movt	r3, #4
   10d90:	e583200c 	str	r2, [r3, #12]
            break;
   10d94:	ea000002 	b	10da4 <parse_auxv+0x1a8>
        }
        default:
            break;
   10d98:	e320f000 	nop	{0}
   10d9c:	ea000000 	b	10da4 <parse_auxv+0x1a8>
                break;
   10da0:	e320f000 	nop	{0}
    for (int i = 0; auxv[i].a_type != AT_NULL; i++) {
   10da4:	e51b3008 	ldr	r3, [fp, #-8]
   10da8:	e2833001 	add	r3, r3, #1
   10dac:	e50b3008 	str	r3, [fp, #-8]
   10db0:	e51b3008 	ldr	r3, [fp, #-8]
   10db4:	e1a03183 	lsl	r3, r3, #3
   10db8:	e51b2010 	ldr	r2, [fp, #-16]
   10dbc:	e0823003 	add	r3, r2, r3
   10dc0:	e5933000 	ldr	r3, [r3]
   10dc4:	e3530000 	cmp	r3, #0
   10dc8:	1affff92 	bne	10c18 <parse_auxv+0x1c>
        }
    }
}
   10dcc:	e320f000 	nop	{0}
   10dd0:	e320f000 	nop	{0}
   10dd4:	e28bd000 	add	sp, fp, #0
   10dd8:	e49db004 	pop	{fp}		; (ldr fp, [sp], #4)
   10ddc:	e12fff1e 	bx	lr

00010de0 <parse_phdrs>:

static void parse_phdrs(void)
{
   10de0:	e92d4800 	push	{fp, lr}
   10de4:	e28db004 	add	fp, sp, #4
   10de8:	e24dd008 	sub	sp, sp, #8
    for (sel4runtime_size_t h = 0; h < env.program_header.count; h++) {
   10dec:	e3a03000 	mov	r3, #0
   10df0:	e50b3008 	str	r3, [fp, #-8]
   10df4:	ea000011 	b	10e40 <parse_phdrs+0x60>
        Elf_Phdr *header = &env.program_header.headers[h];
   10df8:	e3083000 	movw	r3, #32768	; 0x8000
   10dfc:	e3403004 	movt	r3, #4
   10e00:	e593201c 	ldr	r2, [r3, #28]
   10e04:	e51b3008 	ldr	r3, [fp, #-8]
   10e08:	e1a03283 	lsl	r3, r3, #5
   10e0c:	e0823003 	add	r3, r2, r3
   10e10:	e50b300c 	str	r3, [fp, #-12]
        switch (header->p_type) {
   10e14:	e51b300c 	ldr	r3, [fp, #-12]
   10e18:	e5933000 	ldr	r3, [r3]
   10e1c:	e3530007 	cmp	r3, #7
   10e20:	1a000002 	bne	10e30 <parse_phdrs+0x50>
        case PT_TLS:
            load_tls_data(header);
   10e24:	e51b000c 	ldr	r0, [fp, #-12]
   10e28:	eb00000e 	bl	10e68 <load_tls_data>
            break;
   10e2c:	ea000000 	b	10e34 <parse_phdrs+0x54>
        default:
            break;
   10e30:	e320f000 	nop	{0}
    for (sel4runtime_size_t h = 0; h < env.program_header.count; h++) {
   10e34:	e51b3008 	ldr	r3, [fp, #-8]
   10e38:	e2833001 	add	r3, r3, #1
   10e3c:	e50b3008 	str	r3, [fp, #-8]
   10e40:	e3083000 	movw	r3, #32768	; 0x8000
   10e44:	e3403004 	movt	r3, #4
   10e48:	e5933014 	ldr	r3, [r3, #20]
   10e4c:	e51b2008 	ldr	r2, [fp, #-8]
   10e50:	e1520003 	cmp	r2, r3
   10e54:	3affffe7 	bcc	10df8 <parse_phdrs+0x18>
        }
    }
}
   10e58:	e320f000 	nop	{0}
   10e5c:	e320f000 	nop	{0}
   10e60:	e24bd004 	sub	sp, fp, #4
   10e64:	e8bd8800 	pop	{fp, pc}

00010e68 <load_tls_data>:

static void load_tls_data(Elf_Phdr *header)
{
   10e68:	e92d4800 	push	{fp, lr}
   10e6c:	e28db004 	add	fp, sp, #4
   10e70:	e24dd010 	sub	sp, sp, #16
   10e74:	e50b0010 	str	r0, [fp, #-16]
    env.tls.image = (void *) header->p_vaddr;
   10e78:	e51b3010 	ldr	r3, [fp, #-16]
   10e7c:	e5933008 	ldr	r3, [r3, #8]
   10e80:	e1a02003 	mov	r2, r3
   10e84:	e3083000 	movw	r3, #32768	; 0x8000
   10e88:	e3403004 	movt	r3, #4
   10e8c:	e5832020 	str	r2, [r3, #32]
    if (header->p_align > MIN_ALIGN_BYTES) {
   10e90:	e51b3010 	ldr	r3, [fp, #-16]
   10e94:	e593301c 	ldr	r3, [r3, #28]
   10e98:	e3530010 	cmp	r3, #16
   10e9c:	9a000005 	bls	10eb8 <load_tls_data+0x50>
        env.tls.align = header->p_align;
   10ea0:	e51b3010 	ldr	r3, [fp, #-16]
   10ea4:	e593201c 	ldr	r2, [r3, #28]
   10ea8:	e3083000 	movw	r3, #32768	; 0x8000
   10eac:	e3403004 	movt	r3, #4
   10eb0:	e5832030 	str	r2, [r3, #48]	; 0x30
   10eb4:	ea000003 	b	10ec8 <load_tls_data+0x60>
    } else {
        env.tls.align = MIN_ALIGN_BYTES;
   10eb8:	e3083000 	movw	r3, #32768	; 0x8000
   10ebc:	e3403004 	movt	r3, #4
   10ec0:	e3a02010 	mov	r2, #16
   10ec4:	e5832030 	str	r2, [r3, #48]	; 0x30
    }
    env.tls.image_size = header->p_filesz;
   10ec8:	e51b3010 	ldr	r3, [fp, #-16]
   10ecc:	e5932010 	ldr	r2, [r3, #16]
   10ed0:	e3083000 	movw	r3, #32768	; 0x8000
   10ed4:	e3403004 	movt	r3, #4
   10ed8:	e5832024 	str	r2, [r3, #36]	; 0x24
    env.tls.memory_size = ROUND_UP(header->p_memsz, header->p_align);
   10edc:	e51b3010 	ldr	r3, [fp, #-16]
   10ee0:	e5933014 	ldr	r3, [r3, #20]
   10ee4:	e50b3008 	str	r3, [fp, #-8]
   10ee8:	e51b3010 	ldr	r3, [fp, #-16]
   10eec:	e593301c 	ldr	r3, [r3, #28]
   10ef0:	e50b300c 	str	r3, [fp, #-12]
   10ef4:	e51b3008 	ldr	r3, [fp, #-8]
   10ef8:	e51b100c 	ldr	r1, [fp, #-12]
   10efc:	e1a00003 	mov	r0, r3
   10f00:	eb005564 	bl	26498 <__aeabi_uidivmod>
   10f04:	e1a03001 	mov	r3, r1
   10f08:	e3530000 	cmp	r3, #0
   10f0c:	0a000008 	beq	10f34 <load_tls_data+0xcc>
   10f10:	e51b3008 	ldr	r3, [fp, #-8]
   10f14:	e51b100c 	ldr	r1, [fp, #-12]
   10f18:	e1a00003 	mov	r0, r3
   10f1c:	eb00555d 	bl	26498 <__aeabi_uidivmod>
   10f20:	e1a03001 	mov	r3, r1
   10f24:	e1a02003 	mov	r2, r3
   10f28:	e51b300c 	ldr	r3, [fp, #-12]
   10f2c:	e0433002 	sub	r3, r3, r2
   10f30:	ea000000 	b	10f38 <load_tls_data+0xd0>
   10f34:	e3a03000 	mov	r3, #0
   10f38:	e51b2008 	ldr	r2, [fp, #-8]
   10f3c:	e0832002 	add	r2, r3, r2
   10f40:	e3083000 	movw	r3, #32768	; 0x8000
   10f44:	e3403004 	movt	r3, #4
   10f48:	e5832028 	str	r2, [r3, #40]	; 0x28
    env.tls.region_size = tls_region_size(
   10f4c:	e3083000 	movw	r3, #32768	; 0x8000
   10f50:	e3403004 	movt	r3, #4
   10f54:	e5932028 	ldr	r2, [r3, #40]	; 0x28
   10f58:	e3083000 	movw	r3, #32768	; 0x8000
   10f5c:	e3403004 	movt	r3, #4
   10f60:	e5933030 	ldr	r3, [r3, #48]	; 0x30
   10f64:	e1a01003 	mov	r1, r3
   10f68:	e1a00002 	mov	r0, r2
   10f6c:	eb000087 	bl	11190 <tls_region_size>
   10f70:	e1a02000 	mov	r2, r0
   10f74:	e3083000 	movw	r3, #32768	; 0x8000
   10f78:	e3403004 	movt	r3, #4
   10f7c:	e583202c 	str	r2, [r3, #44]	; 0x2c
                              env.tls.memory_size,
                              env.tls.align
                          );
}
   10f80:	e320f000 	nop	{0}
   10f84:	e24bd004 	sub	sp, fp, #4
   10f88:	e8bd8800 	pop	{fp, pc}

00010f8c <try_init_static_tls>:

static void try_init_static_tls(void)
{
   10f8c:	e92d4800 	push	{fp, lr}
   10f90:	e28db004 	add	fp, sp, #4
    if (env.tls.region_size <= sizeof(static_tls)) {
   10f94:	e3083000 	movw	r3, #32768	; 0x8000
   10f98:	e3403004 	movt	r3, #4
   10f9c:	e593302c 	ldr	r3, [r3, #44]	; 0x2c
   10fa0:	e3530901 	cmp	r3, #16384	; 0x4000
   10fa4:	8a000002 	bhi	10fb4 <try_init_static_tls+0x28>
        sel4runtime_move_initial_tls(static_tls);
   10fa8:	e3040000 	movw	r0, #16384	; 0x4000
   10fac:	e3400004 	movt	r0, #4
   10fb0:	ebfffe1f 	bl	10834 <sel4runtime_move_initial_tls>
    }
}
   10fb4:	e320f000 	nop	{0}
   10fb8:	e8bd8800 	pop	{fp, pc}

00010fbc <copy_tls_data>:

static void copy_tls_data(unsigned char *tls_region)
{
   10fbc:	e92d4800 	push	{fp, lr}
   10fc0:	e28db004 	add	fp, sp, #4
   10fc4:	e24dd018 	sub	sp, sp, #24
   10fc8:	e50b0018 	str	r0, [fp, #-24]	; 0xffffffe8
    unsigned char *tls = tls_from_tls_region(tls_region);
   10fcc:	e51b0018 	ldr	r0, [fp, #-24]	; 0xffffffe8
   10fd0:	eb000058 	bl	11138 <tls_from_tls_region>
   10fd4:	e50b0008 	str	r0, [fp, #-8]
    __sel4runtime_memcpy(tls, env.tls.image, env.tls.image_size);
   10fd8:	e3083000 	movw	r3, #32768	; 0x8000
   10fdc:	e3403004 	movt	r3, #4
   10fe0:	e5931020 	ldr	r1, [r3, #32]
   10fe4:	e3083000 	movw	r3, #32768	; 0x8000
   10fe8:	e3403004 	movt	r3, #4
   10fec:	e5933024 	ldr	r3, [r3, #36]	; 0x24
   10ff0:	e1a02003 	mov	r2, r3
   10ff4:	e51b0008 	ldr	r0, [fp, #-8]
   10ff8:	eb00021d 	bl	11874 <__sel4runtime_memcpy>
    unsigned char *tbss = &tls[env.tls.image_size];
   10ffc:	e3083000 	movw	r3, #32768	; 0x8000
   11000:	e3403004 	movt	r3, #4
   11004:	e5933024 	ldr	r3, [r3, #36]	; 0x24
   11008:	e51b2008 	ldr	r2, [fp, #-8]
   1100c:	e0823003 	add	r3, r2, r3
   11010:	e50b300c 	str	r3, [fp, #-12]
    __sel4runtime_memset(tbss, 0, env.tls.memory_size - env.tls.image_size);
   11014:	e3083000 	movw	r3, #32768	; 0x8000
   11018:	e3403004 	movt	r3, #4
   1101c:	e5932028 	ldr	r2, [r3, #40]	; 0x28
   11020:	e3083000 	movw	r3, #32768	; 0x8000
   11024:	e3403004 	movt	r3, #4
   11028:	e5933024 	ldr	r3, [r3, #36]	; 0x24
   1102c:	e0423003 	sub	r3, r2, r3
   11030:	e1a02003 	mov	r2, r3
   11034:	e3a01000 	mov	r1, #0
   11038:	e51b000c 	ldr	r0, [fp, #-12]
   1103c:	eb000129 	bl	114e8 <__sel4runtime_memset>

    thread_lookup_t *lookup = thread_lookup_from_tls_region(tls_region);
   11040:	e51b0018 	ldr	r0, [fp, #-24]	; 0xffffffe8
   11044:	eb000048 	bl	1116c <thread_lookup_from_tls_region>
   11048:	e50b0010 	str	r0, [fp, #-16]
    if (lookup != SEL4RUNTIME_NULL) {
   1104c:	e51b3010 	ldr	r3, [fp, #-16]
   11050:	e3530000 	cmp	r3, #0
   11054:	0a000004 	beq	1106c <copy_tls_data+0xb0>
        lookup->tls_base = tls_base_from_tls_region(tls_region);
   11058:	e51b0018 	ldr	r0, [fp, #-24]	; 0xffffffe8
   1105c:	eb000005 	bl	11078 <tls_base_from_tls_region>
   11060:	e1a02000 	mov	r2, r0
   11064:	e51b3010 	ldr	r3, [fp, #-16]
   11068:	e5832000 	str	r2, [r3]
    }
}
   1106c:	e320f000 	nop	{0}
   11070:	e24bd004 	sub	sp, fp, #4
   11074:	e8bd8800 	pop	{fp, pc}

00011078 <tls_base_from_tls_region>:

static sel4runtime_uintptr_t tls_base_from_tls_region(unsigned char *tls_region)
{
   11078:	e92d4800 	push	{fp, lr}
   1107c:	e28db004 	add	fp, sp, #4
   11080:	e24dd018 	sub	sp, sp, #24
   11084:	e50b0018 	str	r0, [fp, #-24]	; 0xffffffe8
    sel4runtime_uintptr_t tls_base = (sel4runtime_uintptr_t)tls_region;
   11088:	e51b3018 	ldr	r3, [fp, #-24]	; 0xffffffe8
   1108c:	e50b3008 	str	r3, [fp, #-8]
#if !defined(TLS_ABOVE_TP)
    tls_base += env.tls.memory_size;
#endif
    return ROUND_UP(tls_base, env.tls.align);
   11090:	e51b3008 	ldr	r3, [fp, #-8]
   11094:	e50b300c 	str	r3, [fp, #-12]
   11098:	e3083000 	movw	r3, #32768	; 0x8000
   1109c:	e3403004 	movt	r3, #4
   110a0:	e5933030 	ldr	r3, [r3, #48]	; 0x30
   110a4:	e50b3010 	str	r3, [fp, #-16]
   110a8:	e51b300c 	ldr	r3, [fp, #-12]
   110ac:	e51b1010 	ldr	r1, [fp, #-16]
   110b0:	e1a00003 	mov	r0, r3
   110b4:	eb0054f7 	bl	26498 <__aeabi_uidivmod>
   110b8:	e1a03001 	mov	r3, r1
   110bc:	e3530000 	cmp	r3, #0
   110c0:	0a000008 	beq	110e8 <tls_base_from_tls_region+0x70>
   110c4:	e51b300c 	ldr	r3, [fp, #-12]
   110c8:	e51b1010 	ldr	r1, [fp, #-16]
   110cc:	e1a00003 	mov	r0, r3
   110d0:	eb0054f0 	bl	26498 <__aeabi_uidivmod>
   110d4:	e1a03001 	mov	r3, r1
   110d8:	e1a02003 	mov	r2, r3
   110dc:	e51b3010 	ldr	r3, [fp, #-16]
   110e0:	e0433002 	sub	r3, r3, r2
   110e4:	ea000000 	b	110ec <tls_base_from_tls_region+0x74>
   110e8:	e3a03000 	mov	r3, #0
   110ec:	e51b200c 	ldr	r2, [fp, #-12]
   110f0:	e0833002 	add	r3, r3, r2
}
   110f4:	e1a00003 	mov	r0, r3
   110f8:	e24bd004 	sub	sp, fp, #4
   110fc:	e8bd8800 	pop	{fp, pc}

00011100 <tls_from_tls_base>:

static unsigned char *tls_from_tls_base(sel4runtime_uintptr_t tls_base)
{
   11100:	e52db004 	push	{fp}		; (str fp, [sp, #-4]!)
   11104:	e28db000 	add	fp, sp, #0
   11108:	e24dd014 	sub	sp, sp, #20
   1110c:	e50b0010 	str	r0, [fp, #-16]
    sel4runtime_uintptr_t tls_addr = tls_base;
   11110:	e51b3010 	ldr	r3, [fp, #-16]
   11114:	e50b3008 	str	r3, [fp, #-8]
#if !defined(TLS_ABOVE_TP)
    tls_addr -= env.tls.memory_size;
#endif
#if defined(GAP_ABOVE_TP)
    tls_addr +=  GAP_ABOVE_TP;
   11118:	e51b3008 	ldr	r3, [fp, #-8]
   1111c:	e2833008 	add	r3, r3, #8
   11120:	e50b3008 	str	r3, [fp, #-8]
#endif
    return (unsigned char *)tls_addr;
   11124:	e51b3008 	ldr	r3, [fp, #-8]
}
   11128:	e1a00003 	mov	r0, r3
   1112c:	e28bd000 	add	sp, fp, #0
   11130:	e49db004 	pop	{fp}		; (ldr fp, [sp], #4)
   11134:	e12fff1e 	bx	lr

00011138 <tls_from_tls_region>:

static unsigned char *tls_from_tls_region(unsigned char *tls_region)
{
   11138:	e92d4800 	push	{fp, lr}
   1113c:	e28db004 	add	fp, sp, #4
   11140:	e24dd008 	sub	sp, sp, #8
   11144:	e50b0008 	str	r0, [fp, #-8]
    return tls_from_tls_base(tls_base_from_tls_region(tls_region));
   11148:	e51b0008 	ldr	r0, [fp, #-8]
   1114c:	ebffffc9 	bl	11078 <tls_base_from_tls_region>
   11150:	e1a03000 	mov	r3, r0
   11154:	e1a00003 	mov	r0, r3
   11158:	ebffffe8 	bl	11100 <tls_from_tls_base>
   1115c:	e1a03000 	mov	r3, r0
}
   11160:	e1a00003 	mov	r0, r3
   11164:	e24bd004 	sub	sp, fp, #4
   11168:	e8bd8800 	pop	{fp, pc}

0001116c <thread_lookup_from_tls_region>:

static thread_lookup_t *thread_lookup_from_tls_region(
    unsigned char *tls_region
)
{
   1116c:	e52db004 	push	{fp}		; (str fp, [sp, #-4]!)
   11170:	e28db000 	add	fp, sp, #0
   11174:	e24dd00c 	sub	sp, sp, #12
   11178:	e50b0008 	str	r0, [fp, #-8]
#if !defined(TLS_ABOVE_TP)
    return (thread_lookup_t *)tls_base_from_tls_region(tls_region);
#else
    return SEL4RUNTIME_NULL;
   1117c:	e3a03000 	mov	r3, #0
#endif
}
   11180:	e1a00003 	mov	r0, r3
   11184:	e28bd000 	add	sp, fp, #0
   11188:	e49db004 	pop	{fp}		; (ldr fp, [sp], #4)
   1118c:	e12fff1e 	bx	lr

00011190 <tls_region_size>:

static const sel4runtime_size_t tls_region_size(sel4runtime_size_t mem_size, sel4runtime_size_t align)
{
   11190:	e92d4810 	push	{r4, fp, lr}
   11194:	e28db008 	add	fp, sp, #8
   11198:	e24dd024 	sub	sp, sp, #36	; 0x24
   1119c:	e50b0028 	str	r0, [fp, #-40]	; 0xffffffd8
   111a0:	e50b102c 	str	r1, [fp, #-44]	; 0xffffffd4
    return align
           + ROUND_UP(sizeof(thread_lookup_t), align)
   111a4:	e3a03004 	mov	r3, #4
   111a8:	e50b3010 	str	r3, [fp, #-16]
   111ac:	e51b302c 	ldr	r3, [fp, #-44]	; 0xffffffd4
   111b0:	e50b3014 	str	r3, [fp, #-20]	; 0xffffffec
   111b4:	e51b3010 	ldr	r3, [fp, #-16]
   111b8:	e51b1014 	ldr	r1, [fp, #-20]	; 0xffffffec
   111bc:	e1a00003 	mov	r0, r3
   111c0:	eb0054b4 	bl	26498 <__aeabi_uidivmod>
   111c4:	e1a03001 	mov	r3, r1
   111c8:	e3530000 	cmp	r3, #0
   111cc:	0a000008 	beq	111f4 <tls_region_size+0x64>
   111d0:	e51b3010 	ldr	r3, [fp, #-16]
   111d4:	e51b1014 	ldr	r1, [fp, #-20]	; 0xffffffec
   111d8:	e1a00003 	mov	r0, r3
   111dc:	eb0054ad 	bl	26498 <__aeabi_uidivmod>
   111e0:	e1a03001 	mov	r3, r1
   111e4:	e1a02003 	mov	r2, r3
   111e8:	e51b3014 	ldr	r3, [fp, #-20]	; 0xffffffec
   111ec:	e0433002 	sub	r3, r3, r2
   111f0:	ea000000 	b	111f8 <tls_region_size+0x68>
   111f4:	e3a03000 	mov	r3, #0
   111f8:	e51b2010 	ldr	r2, [fp, #-16]
   111fc:	e0832002 	add	r2, r3, r2
   11200:	e51b302c 	ldr	r3, [fp, #-44]	; 0xffffffd4
   11204:	e0824003 	add	r4, r2, r3
#if defined(GAP_ABOVE_TP)
           + ROUND_UP(GAP_ABOVE_TP, align)
   11208:	e3a03008 	mov	r3, #8
   1120c:	e50b3018 	str	r3, [fp, #-24]	; 0xffffffe8
   11210:	e51b302c 	ldr	r3, [fp, #-44]	; 0xffffffd4
   11214:	e50b301c 	str	r3, [fp, #-28]	; 0xffffffe4
   11218:	e51b3018 	ldr	r3, [fp, #-24]	; 0xffffffe8
   1121c:	e51b101c 	ldr	r1, [fp, #-28]	; 0xffffffe4
   11220:	e1a00003 	mov	r0, r3
   11224:	eb00549b 	bl	26498 <__aeabi_uidivmod>
   11228:	e1a03001 	mov	r3, r1
   1122c:	e3530000 	cmp	r3, #0
   11230:	0a000008 	beq	11258 <tls_region_size+0xc8>
   11234:	e51b3018 	ldr	r3, [fp, #-24]	; 0xffffffe8
   11238:	e51b101c 	ldr	r1, [fp, #-28]	; 0xffffffe4
   1123c:	e1a00003 	mov	r0, r3
   11240:	eb005494 	bl	26498 <__aeabi_uidivmod>
   11244:	e1a03001 	mov	r3, r1
   11248:	e1a02003 	mov	r2, r3
   1124c:	e51b301c 	ldr	r3, [fp, #-28]	; 0xffffffe4
   11250:	e0433002 	sub	r3, r3, r2
   11254:	ea000000 	b	1125c <tls_region_size+0xcc>
   11258:	e3a03000 	mov	r3, #0
   1125c:	e51b2018 	ldr	r2, [fp, #-24]	; 0xffffffe8
   11260:	e0833002 	add	r3, r3, r2
   11264:	e0834004 	add	r4, r3, r4
#endif
           + ROUND_UP(mem_size, align);
   11268:	e51b3028 	ldr	r3, [fp, #-40]	; 0xffffffd8
   1126c:	e50b3020 	str	r3, [fp, #-32]	; 0xffffffe0
   11270:	e51b302c 	ldr	r3, [fp, #-44]	; 0xffffffd4
   11274:	e50b3024 	str	r3, [fp, #-36]	; 0xffffffdc
   11278:	e51b3020 	ldr	r3, [fp, #-32]	; 0xffffffe0
   1127c:	e51b1024 	ldr	r1, [fp, #-36]	; 0xffffffdc
   11280:	e1a00003 	mov	r0, r3
   11284:	eb005483 	bl	26498 <__aeabi_uidivmod>
   11288:	e1a03001 	mov	r3, r1
   1128c:	e3530000 	cmp	r3, #0
   11290:	0a000008 	beq	112b8 <tls_region_size+0x128>
   11294:	e51b3020 	ldr	r3, [fp, #-32]	; 0xffffffe0
   11298:	e51b1024 	ldr	r1, [fp, #-36]	; 0xffffffdc
   1129c:	e1a00003 	mov	r0, r3
   112a0:	eb00547c 	bl	26498 <__aeabi_uidivmod>
   112a4:	e1a03001 	mov	r3, r1
   112a8:	e1a02003 	mov	r2, r3
   112ac:	e51b3024 	ldr	r3, [fp, #-36]	; 0xffffffdc
   112b0:	e0433002 	sub	r3, r3, r2
   112b4:	ea000000 	b	112bc <tls_region_size+0x12c>
   112b8:	e3a03000 	mov	r3, #0
   112bc:	e51b2020 	ldr	r2, [fp, #-32]	; 0xffffffe0
   112c0:	e0833002 	add	r3, r3, r2
   112c4:	e0833004 	add	r3, r3, r4
}
   112c8:	e1a00003 	mov	r0, r3
   112cc:	e24bd008 	sub	sp, fp, #8
   112d0:	e8bd8810 	pop	{r4, fp, pc}

000112d4 <empty_tls>:

static void empty_tls(void)
{
   112d4:	e92d4800 	push	{fp, lr}
   112d8:	e28db004 	add	fp, sp, #4
    env.tls.image = SEL4RUNTIME_NULL;
   112dc:	e3083000 	movw	r3, #32768	; 0x8000
   112e0:	e3403004 	movt	r3, #4
   112e4:	e3a02000 	mov	r2, #0
   112e8:	e5832020 	str	r2, [r3, #32]
    env.tls.align = MIN_ALIGN_BYTES;
   112ec:	e3083000 	movw	r3, #32768	; 0x8000
   112f0:	e3403004 	movt	r3, #4
   112f4:	e3a02010 	mov	r2, #16
   112f8:	e5832030 	str	r2, [r3, #48]	; 0x30
    env.tls.image_size = 0;
   112fc:	e3083000 	movw	r3, #32768	; 0x8000
   11300:	e3403004 	movt	r3, #4
   11304:	e3a02000 	mov	r2, #0
   11308:	e5832024 	str	r2, [r3, #36]	; 0x24
    env.tls.memory_size = 0;
   1130c:	e3083000 	movw	r3, #32768	; 0x8000
   11310:	e3403004 	movt	r3, #4
   11314:	e3a02000 	mov	r2, #0
   11318:	e5832028 	str	r2, [r3, #40]	; 0x28
    env.tls.region_size = tls_region_size(
   1131c:	e3083000 	movw	r3, #32768	; 0x8000
   11320:	e3403004 	movt	r3, #4
   11324:	e5932028 	ldr	r2, [r3, #40]	; 0x28
   11328:	e3083000 	movw	r3, #32768	; 0x8000
   1132c:	e3403004 	movt	r3, #4
   11330:	e5933030 	ldr	r3, [r3, #48]	; 0x30
   11334:	e1a01003 	mov	r1, r3
   11338:	e1a00002 	mov	r0, r2
   1133c:	ebffff93 	bl	11190 <tls_region_size>
   11340:	e1a02000 	mov	r2, r0
   11344:	e3083000 	movw	r3, #32768	; 0x8000
   11348:	e3403004 	movt	r3, #4
   1134c:	e583202c 	str	r2, [r3, #44]	; 0x2c
                              env.tls.memory_size,
                              env.tls.align
                          );
}
   11350:	e320f000 	nop	{0}
   11354:	e8bd8800 	pop	{fp, pc}

00011358 <is_initial_thread>:
 *
 * This will optimistically assume that the current thread is the
 * initial thread of no thread ever had TLS configured.
 */
static int is_initial_thread(void)
{
   11358:	e92d4800 	push	{fp, lr}
   1135c:	e28db004 	add	fp, sp, #4
    return env.initial_thread_tls_base == (sel4runtime_uintptr_t)SEL4RUNTIME_NULL
   11360:	e3083000 	movw	r3, #32768	; 0x8000
   11364:	e3403004 	movt	r3, #4
   11368:	e5933008 	ldr	r3, [r3, #8]
           || sel4runtime_get_tls_base() == env.initial_thread_tls_base;
   1136c:	e3530000 	cmp	r3, #0
   11370:	0a000006 	beq	11390 <is_initial_thread+0x38>
   11374:	ebfffccb 	bl	106a8 <sel4runtime_get_tls_base>
   11378:	e1a02000 	mov	r2, r0
   1137c:	e3083000 	movw	r3, #32768	; 0x8000
   11380:	e3403004 	movt	r3, #4
   11384:	e5933008 	ldr	r3, [r3, #8]
   11388:	e1520003 	cmp	r2, r3
   1138c:	1a000001 	bne	11398 <is_initial_thread+0x40>
   11390:	e3a03001 	mov	r3, #1
   11394:	ea000000 	b	1139c <is_initial_thread+0x44>
   11398:	e3a03000 	mov	r3, #0
}
   1139c:	e1a00003 	mov	r0, r3
   113a0:	e8bd8800 	pop	{fp, pc}

000113a4 <__sel4runtime_run_constructors>:
void _fini(void);
extern routine __fini_array_start[];
extern routine __fini_array_end[];

void __sel4runtime_run_constructors(void)
{
   113a4:	e92d4800 	push	{fp, lr}
   113a8:	e28db004 	add	fp, sp, #4
   113ac:	e24dd010 	sub	sp, sp, #16
    int preinit_array_len
        = &__preinit_array_end[0]
          - &__preinit_array_start[0];
   113b0:	e30b2fe8 	movw	r2, #49128	; 0xbfe8
   113b4:	e3402002 	movt	r2, #2
   113b8:	e30b3fe8 	movw	r3, #49128	; 0xbfe8
   113bc:	e3403002 	movt	r3, #2
   113c0:	e0423003 	sub	r3, r2, r3
    int preinit_array_len
   113c4:	e1a03143 	asr	r3, r3, #2
   113c8:	e50b3010 	str	r3, [fp, #-16]
    for (int f = 0; f < preinit_array_len; f++) {
   113cc:	e3a03000 	mov	r3, #0
   113d0:	e50b3008 	str	r3, [fp, #-8]
   113d4:	ea000007 	b	113f8 <__sel4runtime_run_constructors+0x54>
        __preinit_array_start[f]();
   113d8:	e30b3fe8 	movw	r3, #49128	; 0xbfe8
   113dc:	e3403002 	movt	r3, #2
   113e0:	e51b2008 	ldr	r2, [fp, #-8]
   113e4:	e7933102 	ldr	r3, [r3, r2, lsl #2]
   113e8:	e12fff33 	blx	r3
    for (int f = 0; f < preinit_array_len; f++) {
   113ec:	e51b3008 	ldr	r3, [fp, #-8]
   113f0:	e2833001 	add	r3, r3, #1
   113f4:	e50b3008 	str	r3, [fp, #-8]
   113f8:	e51b2008 	ldr	r2, [fp, #-8]
   113fc:	e51b3010 	ldr	r3, [fp, #-16]
   11400:	e1520003 	cmp	r2, r3
   11404:	bafffff3 	blt	113d8 <__sel4runtime_run_constructors+0x34>
    }
    _init();
   11408:	ebfffb42 	bl	10118 <_init>
    int init_array_len
        = &__init_array_end[0]
          - &__init_array_start[0];
   1140c:	e30b2ffc 	movw	r2, #49148	; 0xbffc
   11410:	e3402002 	movt	r2, #2
   11414:	e30b3fe8 	movw	r3, #49128	; 0xbfe8
   11418:	e3403002 	movt	r3, #2
   1141c:	e0423003 	sub	r3, r2, r3
    int init_array_len
   11420:	e1a03143 	asr	r3, r3, #2
   11424:	e50b3014 	str	r3, [fp, #-20]	; 0xffffffec
    for (int f = 0; f < init_array_len; f++) {
   11428:	e3a03000 	mov	r3, #0
   1142c:	e50b300c 	str	r3, [fp, #-12]
   11430:	ea000007 	b	11454 <__sel4runtime_run_constructors+0xb0>
        __init_array_start[f]();
   11434:	e30b3fe8 	movw	r3, #49128	; 0xbfe8
   11438:	e3403002 	movt	r3, #2
   1143c:	e51b200c 	ldr	r2, [fp, #-12]
   11440:	e7933102 	ldr	r3, [r3, r2, lsl #2]
   11444:	e12fff33 	blx	r3
    for (int f = 0; f < init_array_len; f++) {
   11448:	e51b300c 	ldr	r3, [fp, #-12]
   1144c:	e2833001 	add	r3, r3, #1
   11450:	e50b300c 	str	r3, [fp, #-12]
   11454:	e51b200c 	ldr	r2, [fp, #-12]
   11458:	e51b3014 	ldr	r3, [fp, #-20]	; 0xffffffec
   1145c:	e1520003 	cmp	r2, r3
   11460:	bafffff3 	blt	11434 <__sel4runtime_run_constructors+0x90>
    }
}
   11464:	e320f000 	nop	{0}
   11468:	e320f000 	nop	{0}
   1146c:	e24bd004 	sub	sp, fp, #4
   11470:	e8bd8800 	pop	{fp, pc}

00011474 <__sel4runtime_run_destructors>:

void __sel4runtime_run_destructors(void)
{
   11474:	e92d4800 	push	{fp, lr}
   11478:	e28db004 	add	fp, sp, #4
   1147c:	e24dd008 	sub	sp, sp, #8
    int fini_array_len
        = &__fini_array_end[0]
          - &__fini_array_start[0];
   11480:	e30c2000 	movw	r2, #49152	; 0xc000
   11484:	e3402002 	movt	r2, #2
   11488:	e30b3ffc 	movw	r3, #49148	; 0xbffc
   1148c:	e3403002 	movt	r3, #2
   11490:	e0423003 	sub	r3, r2, r3
    int fini_array_len
   11494:	e1a03143 	asr	r3, r3, #2
   11498:	e50b300c 	str	r3, [fp, #-12]
    for (int f = fini_array_len - 1; f >= 0; f--) {
   1149c:	e51b300c 	ldr	r3, [fp, #-12]
   114a0:	e2433001 	sub	r3, r3, #1
   114a4:	e50b3008 	str	r3, [fp, #-8]
   114a8:	ea000007 	b	114cc <__sel4runtime_run_destructors+0x58>
        __fini_array_start[f]();
   114ac:	e30b3ffc 	movw	r3, #49148	; 0xbffc
   114b0:	e3403002 	movt	r3, #2
   114b4:	e51b2008 	ldr	r2, [fp, #-8]
   114b8:	e7933102 	ldr	r3, [r3, r2, lsl #2]
   114bc:	e12fff33 	blx	r3
    for (int f = fini_array_len - 1; f >= 0; f--) {
   114c0:	e51b3008 	ldr	r3, [fp, #-8]
   114c4:	e2433001 	sub	r3, r3, #1
   114c8:	e50b3008 	str	r3, [fp, #-8]
   114cc:	e51b3008 	ldr	r3, [fp, #-8]
   114d0:	e3530000 	cmp	r3, #0
   114d4:	aafffff4 	bge	114ac <__sel4runtime_run_destructors+0x38>
    }
    _fini();
   114d8:	eb00585a 	bl	27648 <_fini>
}
   114dc:	e320f000 	nop	{0}
   114e0:	e24bd004 	sub	sp, fp, #4
   114e4:	e8bd8800 	pop	{fp, pc}

000114e8 <__sel4runtime_memset>:
 */

#include "util.h"

void *__sel4runtime_memset(void *dest, int c, sel4runtime_size_t n)
{
   114e8:	e92d08f0 	push	{r4, r5, r6, r7, fp}
   114ec:	e28db010 	add	fp, sp, #16
   114f0:	e24dd02c 	sub	sp, sp, #44	; 0x2c
   114f4:	e50b0030 	str	r0, [fp, #-48]	; 0xffffffd0
   114f8:	e50b1034 	str	r1, [fp, #-52]	; 0xffffffcc
   114fc:	e50b2038 	str	r2, [fp, #-56]	; 0xffffffc8
    unsigned char *s = dest;
   11500:	e51b3030 	ldr	r3, [fp, #-48]	; 0xffffffd0
   11504:	e50b3018 	str	r3, [fp, #-24]	; 0xffffffe8

    /* Fill head and tail with minimal branching. Each
     * conditional ensures that all the subsequently used
     * offsets are well-defined and in the dest region. */

    if (!n) {
   11508:	e51b3038 	ldr	r3, [fp, #-56]	; 0xffffffc8
   1150c:	e3530000 	cmp	r3, #0
   11510:	1a000001 	bne	1151c <__sel4runtime_memset+0x34>
        return dest;
   11514:	e51b3030 	ldr	r3, [fp, #-48]	; 0xffffffd0
   11518:	ea0000d1 	b	11864 <__sel4runtime_memset+0x37c>
    }
    s[0] = s[n - 1] = c;
   1151c:	e51b3038 	ldr	r3, [fp, #-56]	; 0xffffffc8
   11520:	e2433001 	sub	r3, r3, #1
   11524:	e51b2018 	ldr	r2, [fp, #-24]	; 0xffffffe8
   11528:	e0823003 	add	r3, r2, r3
   1152c:	e51b2034 	ldr	r2, [fp, #-52]	; 0xffffffcc
   11530:	e6ef2072 	uxtb	r2, r2
   11534:	e5c32000 	strb	r2, [r3]
   11538:	e5d32000 	ldrb	r2, [r3]
   1153c:	e51b3018 	ldr	r3, [fp, #-24]	; 0xffffffe8
   11540:	e5c32000 	strb	r2, [r3]
    if (n <= 2) {
   11544:	e51b3038 	ldr	r3, [fp, #-56]	; 0xffffffc8
   11548:	e3530002 	cmp	r3, #2
   1154c:	8a000001 	bhi	11558 <__sel4runtime_memset+0x70>
        return dest;
   11550:	e51b3030 	ldr	r3, [fp, #-48]	; 0xffffffd0
   11554:	ea0000c2 	b	11864 <__sel4runtime_memset+0x37c>
    }
    s[1] = s[n - 2] = c;
   11558:	e51b3038 	ldr	r3, [fp, #-56]	; 0xffffffc8
   1155c:	e2433002 	sub	r3, r3, #2
   11560:	e51b2018 	ldr	r2, [fp, #-24]	; 0xffffffe8
   11564:	e0823003 	add	r3, r2, r3
   11568:	e51b2034 	ldr	r2, [fp, #-52]	; 0xffffffcc
   1156c:	e6ef2072 	uxtb	r2, r2
   11570:	e5c32000 	strb	r2, [r3]
   11574:	e51b2018 	ldr	r2, [fp, #-24]	; 0xffffffe8
   11578:	e2822001 	add	r2, r2, #1
   1157c:	e5d33000 	ldrb	r3, [r3]
   11580:	e5c23000 	strb	r3, [r2]
    s[2] = s[n - 3] = c;
   11584:	e51b3038 	ldr	r3, [fp, #-56]	; 0xffffffc8
   11588:	e2433003 	sub	r3, r3, #3
   1158c:	e51b2018 	ldr	r2, [fp, #-24]	; 0xffffffe8
   11590:	e0823003 	add	r3, r2, r3
   11594:	e51b2034 	ldr	r2, [fp, #-52]	; 0xffffffcc
   11598:	e6ef2072 	uxtb	r2, r2
   1159c:	e5c32000 	strb	r2, [r3]
   115a0:	e51b2018 	ldr	r2, [fp, #-24]	; 0xffffffe8
   115a4:	e2822002 	add	r2, r2, #2
   115a8:	e5d33000 	ldrb	r3, [r3]
   115ac:	e5c23000 	strb	r3, [r2]
    if (n <= 6) {
   115b0:	e51b3038 	ldr	r3, [fp, #-56]	; 0xffffffc8
   115b4:	e3530006 	cmp	r3, #6
   115b8:	8a000001 	bhi	115c4 <__sel4runtime_memset+0xdc>
        return dest;
   115bc:	e51b3030 	ldr	r3, [fp, #-48]	; 0xffffffd0
   115c0:	ea0000a7 	b	11864 <__sel4runtime_memset+0x37c>
    }
    s[3] = s[n - 4] = c;
   115c4:	e51b3038 	ldr	r3, [fp, #-56]	; 0xffffffc8
   115c8:	e2433004 	sub	r3, r3, #4
   115cc:	e51b2018 	ldr	r2, [fp, #-24]	; 0xffffffe8
   115d0:	e0823003 	add	r3, r2, r3
   115d4:	e51b2034 	ldr	r2, [fp, #-52]	; 0xffffffcc
   115d8:	e6ef2072 	uxtb	r2, r2
   115dc:	e5c32000 	strb	r2, [r3]
   115e0:	e51b2018 	ldr	r2, [fp, #-24]	; 0xffffffe8
   115e4:	e2822003 	add	r2, r2, #3
   115e8:	e5d33000 	ldrb	r3, [r3]
   115ec:	e5c23000 	strb	r3, [r2]
    if (n <= 8) {
   115f0:	e51b3038 	ldr	r3, [fp, #-56]	; 0xffffffc8
   115f4:	e3530008 	cmp	r3, #8
   115f8:	8a000001 	bhi	11604 <__sel4runtime_memset+0x11c>
        return dest;
   115fc:	e51b3030 	ldr	r3, [fp, #-48]	; 0xffffffd0
   11600:	ea000097 	b	11864 <__sel4runtime_memset+0x37c>
    /* Advance pointer to align it at a 4-byte boundary,
     * and truncate n to a multiple of 4. The previous code
     * already took care of any head/tail that get cut off
     * by the alignment. */

    k = -(sel4runtime_uintptr_t)s & 3;
   11604:	e51b3018 	ldr	r3, [fp, #-24]	; 0xffffffe8
   11608:	e2633000 	rsb	r3, r3, #0
   1160c:	e2033003 	and	r3, r3, #3
   11610:	e50b301c 	str	r3, [fp, #-28]	; 0xffffffe4
    s += k;
   11614:	e51b2018 	ldr	r2, [fp, #-24]	; 0xffffffe8
   11618:	e51b301c 	ldr	r3, [fp, #-28]	; 0xffffffe4
   1161c:	e0823003 	add	r3, r2, r3
   11620:	e50b3018 	str	r3, [fp, #-24]	; 0xffffffe8
    n -= k;
   11624:	e51b2038 	ldr	r2, [fp, #-56]	; 0xffffffc8
   11628:	e51b301c 	ldr	r3, [fp, #-28]	; 0xffffffe4
   1162c:	e0423003 	sub	r3, r2, r3
   11630:	e50b3038 	str	r3, [fp, #-56]	; 0xffffffc8
    n &= -4;
   11634:	e51b3038 	ldr	r3, [fp, #-56]	; 0xffffffc8
   11638:	e3c33003 	bic	r3, r3, #3
   1163c:	e50b3038 	str	r3, [fp, #-56]	; 0xffffffc8

#ifdef __GNUC__
    typedef sel4runtime_uint32_t __attribute__((__may_alias__)) u32;
    typedef sel4runtime_uint64_t __attribute__((__may_alias__)) u64;

    u32 c32 = ((u32) - 1) / 255 * (unsigned char)c;
   11640:	e51b3034 	ldr	r3, [fp, #-52]	; 0xffffffcc
   11644:	e6ef3073 	uxtb	r3, r3
   11648:	e1a02003 	mov	r2, r3
   1164c:	e3003101 	movw	r3, #257	; 0x101
   11650:	e3403101 	movt	r3, #257	; 0x101
   11654:	e0030293 	mul	r3, r3, r2
   11658:	e50b3020 	str	r3, [fp, #-32]	; 0xffffffe0
     * an 8-byte bounary, fill head/tail up to 28 bytes each.
     * As in the initial byte-based head/tail fill, each
     * conditional below ensures that the subsequent offsets
     * are valid (e.g. !(n<=24) implies n>=28). */

    *(u32 *)(s + 0) = c32;
   1165c:	e51b3018 	ldr	r3, [fp, #-24]	; 0xffffffe8
   11660:	e51b2020 	ldr	r2, [fp, #-32]	; 0xffffffe0
   11664:	e5832000 	str	r2, [r3]
    *(u32 *)(s + n - 4) = c32;
   11668:	e51b3038 	ldr	r3, [fp, #-56]	; 0xffffffc8
   1166c:	e2433004 	sub	r3, r3, #4
   11670:	e51b2018 	ldr	r2, [fp, #-24]	; 0xffffffe8
   11674:	e0823003 	add	r3, r2, r3
   11678:	e51b2020 	ldr	r2, [fp, #-32]	; 0xffffffe0
   1167c:	e5832000 	str	r2, [r3]
    if (n <= 8) {
   11680:	e51b3038 	ldr	r3, [fp, #-56]	; 0xffffffc8
   11684:	e3530008 	cmp	r3, #8
   11688:	8a000001 	bhi	11694 <__sel4runtime_memset+0x1ac>
        return dest;
   1168c:	e51b3030 	ldr	r3, [fp, #-48]	; 0xffffffd0
   11690:	ea000073 	b	11864 <__sel4runtime_memset+0x37c>
    }
    *(u32 *)(s + 4) = c32;
   11694:	e51b3018 	ldr	r3, [fp, #-24]	; 0xffffffe8
   11698:	e2833004 	add	r3, r3, #4
   1169c:	e51b2020 	ldr	r2, [fp, #-32]	; 0xffffffe0
   116a0:	e5832000 	str	r2, [r3]
    *(u32 *)(s + 8) = c32;
   116a4:	e51b3018 	ldr	r3, [fp, #-24]	; 0xffffffe8
   116a8:	e2833008 	add	r3, r3, #8
   116ac:	e51b2020 	ldr	r2, [fp, #-32]	; 0xffffffe0
   116b0:	e5832000 	str	r2, [r3]
    *(u32 *)(s + n - 12) = c32;
   116b4:	e51b3038 	ldr	r3, [fp, #-56]	; 0xffffffc8
   116b8:	e243300c 	sub	r3, r3, #12
   116bc:	e51b2018 	ldr	r2, [fp, #-24]	; 0xffffffe8
   116c0:	e0823003 	add	r3, r2, r3
   116c4:	e51b2020 	ldr	r2, [fp, #-32]	; 0xffffffe0
   116c8:	e5832000 	str	r2, [r3]
    *(u32 *)(s + n - 8) = c32;
   116cc:	e51b3038 	ldr	r3, [fp, #-56]	; 0xffffffc8
   116d0:	e2433008 	sub	r3, r3, #8
   116d4:	e51b2018 	ldr	r2, [fp, #-24]	; 0xffffffe8
   116d8:	e0823003 	add	r3, r2, r3
   116dc:	e51b2020 	ldr	r2, [fp, #-32]	; 0xffffffe0
   116e0:	e5832000 	str	r2, [r3]
    if (n <= 24) {
   116e4:	e51b3038 	ldr	r3, [fp, #-56]	; 0xffffffc8
   116e8:	e3530018 	cmp	r3, #24
   116ec:	8a000001 	bhi	116f8 <__sel4runtime_memset+0x210>
        return dest;
   116f0:	e51b3030 	ldr	r3, [fp, #-48]	; 0xffffffd0
   116f4:	ea00005a 	b	11864 <__sel4runtime_memset+0x37c>
    }
    *(u32 *)(s + 12) = c32;
   116f8:	e51b3018 	ldr	r3, [fp, #-24]	; 0xffffffe8
   116fc:	e283300c 	add	r3, r3, #12
   11700:	e51b2020 	ldr	r2, [fp, #-32]	; 0xffffffe0
   11704:	e5832000 	str	r2, [r3]
    *(u32 *)(s + 16) = c32;
   11708:	e51b3018 	ldr	r3, [fp, #-24]	; 0xffffffe8
   1170c:	e2833010 	add	r3, r3, #16
   11710:	e51b2020 	ldr	r2, [fp, #-32]	; 0xffffffe0
   11714:	e5832000 	str	r2, [r3]
    *(u32 *)(s + 20) = c32;
   11718:	e51b3018 	ldr	r3, [fp, #-24]	; 0xffffffe8
   1171c:	e2833014 	add	r3, r3, #20
   11720:	e51b2020 	ldr	r2, [fp, #-32]	; 0xffffffe0
   11724:	e5832000 	str	r2, [r3]
    *(u32 *)(s + 24) = c32;
   11728:	e51b3018 	ldr	r3, [fp, #-24]	; 0xffffffe8
   1172c:	e2833018 	add	r3, r3, #24
   11730:	e51b2020 	ldr	r2, [fp, #-32]	; 0xffffffe0
   11734:	e5832000 	str	r2, [r3]
    *(u32 *)(s + n - 28) = c32;
   11738:	e51b3038 	ldr	r3, [fp, #-56]	; 0xffffffc8
   1173c:	e243301c 	sub	r3, r3, #28
   11740:	e51b2018 	ldr	r2, [fp, #-24]	; 0xffffffe8
   11744:	e0823003 	add	r3, r2, r3
   11748:	e51b2020 	ldr	r2, [fp, #-32]	; 0xffffffe0
   1174c:	e5832000 	str	r2, [r3]
    *(u32 *)(s + n - 24) = c32;
   11750:	e51b3038 	ldr	r3, [fp, #-56]	; 0xffffffc8
   11754:	e2433018 	sub	r3, r3, #24
   11758:	e51b2018 	ldr	r2, [fp, #-24]	; 0xffffffe8
   1175c:	e0823003 	add	r3, r2, r3
   11760:	e51b2020 	ldr	r2, [fp, #-32]	; 0xffffffe0
   11764:	e5832000 	str	r2, [r3]
    *(u32 *)(s + n - 20) = c32;
   11768:	e51b3038 	ldr	r3, [fp, #-56]	; 0xffffffc8
   1176c:	e2433014 	sub	r3, r3, #20
   11770:	e51b2018 	ldr	r2, [fp, #-24]	; 0xffffffe8
   11774:	e0823003 	add	r3, r2, r3
   11778:	e51b2020 	ldr	r2, [fp, #-32]	; 0xffffffe0
   1177c:	e5832000 	str	r2, [r3]
    *(u32 *)(s + n - 16) = c32;
   11780:	e51b3038 	ldr	r3, [fp, #-56]	; 0xffffffc8
   11784:	e2433010 	sub	r3, r3, #16
   11788:	e51b2018 	ldr	r2, [fp, #-24]	; 0xffffffe8
   1178c:	e0823003 	add	r3, r2, r3
   11790:	e51b2020 	ldr	r2, [fp, #-32]	; 0xffffffe0
   11794:	e5832000 	str	r2, [r3]

    /* Align to a multiple of 8 so we can fill 64 bits at a time,
     * and avoid writing the same bytes twice as much as is
     * practical without introducing additional branching. */

    k = 24 + ((sel4runtime_uintptr_t)s & 4);
   11798:	e51b3018 	ldr	r3, [fp, #-24]	; 0xffffffe8
   1179c:	e2033004 	and	r3, r3, #4
   117a0:	e2833018 	add	r3, r3, #24
   117a4:	e50b301c 	str	r3, [fp, #-28]	; 0xffffffe4
    s += k;
   117a8:	e51b2018 	ldr	r2, [fp, #-24]	; 0xffffffe8
   117ac:	e51b301c 	ldr	r3, [fp, #-28]	; 0xffffffe4
   117b0:	e0823003 	add	r3, r2, r3
   117b4:	e50b3018 	str	r3, [fp, #-24]	; 0xffffffe8
    n -= k;
   117b8:	e51b2038 	ldr	r2, [fp, #-56]	; 0xffffffc8
   117bc:	e51b301c 	ldr	r3, [fp, #-28]	; 0xffffffe4
   117c0:	e0423003 	sub	r3, r2, r3
   117c4:	e50b3038 	str	r3, [fp, #-56]	; 0xffffffc8

    /* If this loop is reached, 28 tail bytes have already been
     * filled, so any remainder when n drops below 32 can be
     * safely ignored. */

    u64 c64 = c32 | ((u64)c32 << 32);
   117c8:	e51b3020 	ldr	r3, [fp, #-32]	; 0xffffffe0
   117cc:	e1a00003 	mov	r0, r3
   117d0:	e3a01000 	mov	r1, #0
   117d4:	e51b3020 	ldr	r3, [fp, #-32]	; 0xffffffe0
   117d8:	e1a06003 	mov	r6, r3
   117dc:	e3a07000 	mov	r7, #0
   117e0:	e3a02000 	mov	r2, #0
   117e4:	e3a03000 	mov	r3, #0
   117e8:	e1a03006 	mov	r3, r6
   117ec:	e3a02000 	mov	r2, #0
   117f0:	e1804002 	orr	r4, r0, r2
   117f4:	e1815003 	orr	r5, r1, r3
   117f8:	e14b42fc 	strd	r4, [fp, #-44]	; 0xffffffd4
    for (; n >= 32; n -= 32, s += 32) {
   117fc:	ea000014 	b	11854 <__sel4runtime_memset+0x36c>
        *(u64 *)(s + 0) = c64;
   11800:	e51b1018 	ldr	r1, [fp, #-24]	; 0xffffffe8
   11804:	e14b22dc 	ldrd	r2, [fp, #-44]	; 0xffffffd4
   11808:	e1c120f0 	strd	r2, [r1]
        *(u64 *)(s + 8) = c64;
   1180c:	e51b3018 	ldr	r3, [fp, #-24]	; 0xffffffe8
   11810:	e2831008 	add	r1, r3, #8
   11814:	e14b22dc 	ldrd	r2, [fp, #-44]	; 0xffffffd4
   11818:	e1c120f0 	strd	r2, [r1]
        *(u64 *)(s + 16) = c64;
   1181c:	e51b3018 	ldr	r3, [fp, #-24]	; 0xffffffe8
   11820:	e2831010 	add	r1, r3, #16
   11824:	e14b22dc 	ldrd	r2, [fp, #-44]	; 0xffffffd4
   11828:	e1c120f0 	strd	r2, [r1]
        *(u64 *)(s + 24) = c64;
   1182c:	e51b3018 	ldr	r3, [fp, #-24]	; 0xffffffe8
   11830:	e2831018 	add	r1, r3, #24
   11834:	e14b22dc 	ldrd	r2, [fp, #-44]	; 0xffffffd4
   11838:	e1c120f0 	strd	r2, [r1]
    for (; n >= 32; n -= 32, s += 32) {
   1183c:	e51b3038 	ldr	r3, [fp, #-56]	; 0xffffffc8
   11840:	e2433020 	sub	r3, r3, #32
   11844:	e50b3038 	str	r3, [fp, #-56]	; 0xffffffc8
   11848:	e51b3018 	ldr	r3, [fp, #-24]	; 0xffffffe8
   1184c:	e2833020 	add	r3, r3, #32
   11850:	e50b3018 	str	r3, [fp, #-24]	; 0xffffffe8
   11854:	e51b3038 	ldr	r3, [fp, #-56]	; 0xffffffc8
   11858:	e353001f 	cmp	r3, #31
   1185c:	8affffe7 	bhi	11800 <__sel4runtime_memset+0x318>
    for (; n; n--, s++) {
        *s = c;
    }
#endif

    return dest;
   11860:	e51b3030 	ldr	r3, [fp, #-48]	; 0xffffffd0
}
   11864:	e1a00003 	mov	r0, r3
   11868:	e24bd010 	sub	sp, fp, #16
   1186c:	e8bd08f0 	pop	{r4, r5, r6, r7, fp}
   11870:	e12fff1e 	bx	lr

00011874 <__sel4runtime_memcpy>:
 */

#include "util.h"

void *__sel4runtime_memcpy(void *restrict dest, const void *restrict src, sel4runtime_size_t n)
{
   11874:	e52db004 	push	{fp}		; (str fp, [sp, #-4]!)
   11878:	e28db000 	add	fp, sp, #0
   1187c:	e24dd024 	sub	sp, sp, #36	; 0x24
   11880:	e50b0018 	str	r0, [fp, #-24]	; 0xffffffe8
   11884:	e50b101c 	str	r1, [fp, #-28]	; 0xffffffe4
   11888:	e50b2020 	str	r2, [fp, #-32]	; 0xffffffe0
    unsigned char *d = dest;
   1188c:	e51b3018 	ldr	r3, [fp, #-24]	; 0xffffffe8
   11890:	e50b3008 	str	r3, [fp, #-8]
    const unsigned char *s = src;
   11894:	e51b301c 	ldr	r3, [fp, #-28]	; 0xffffffe4
   11898:	e50b300c 	str	r3, [fp, #-12]
#endif

    typedef sel4runtime_uint32_t __attribute__((__may_alias__)) u32;
    sel4runtime_uint32_t w, x;

    for (; (sel4runtime_uintptr_t)s % 4 && n; n--) {
   1189c:	ea00000a 	b	118cc <__sel4runtime_memcpy+0x58>
        *d++ = *s++;
   118a0:	e51b200c 	ldr	r2, [fp, #-12]
   118a4:	e2823001 	add	r3, r2, #1
   118a8:	e50b300c 	str	r3, [fp, #-12]
   118ac:	e51b3008 	ldr	r3, [fp, #-8]
   118b0:	e2831001 	add	r1, r3, #1
   118b4:	e50b1008 	str	r1, [fp, #-8]
   118b8:	e5d22000 	ldrb	r2, [r2]
   118bc:	e5c32000 	strb	r2, [r3]
    for (; (sel4runtime_uintptr_t)s % 4 && n; n--) {
   118c0:	e51b3020 	ldr	r3, [fp, #-32]	; 0xffffffe0
   118c4:	e2433001 	sub	r3, r3, #1
   118c8:	e50b3020 	str	r3, [fp, #-32]	; 0xffffffe0
   118cc:	e51b300c 	ldr	r3, [fp, #-12]
   118d0:	e2033003 	and	r3, r3, #3
   118d4:	e3530000 	cmp	r3, #0
   118d8:	0a000002 	beq	118e8 <__sel4runtime_memcpy+0x74>
   118dc:	e51b3020 	ldr	r3, [fp, #-32]	; 0xffffffe0
   118e0:	e3530000 	cmp	r3, #0
   118e4:	1affffed 	bne	118a0 <__sel4runtime_memcpy+0x2c>
    }

    if ((sel4runtime_uintptr_t)d % 4 == 0) {
   118e8:	e51b3008 	ldr	r3, [fp, #-8]
   118ec:	e2033003 	and	r3, r3, #3
   118f0:	e3530000 	cmp	r3, #0
   118f4:	1a000062 	bne	11a84 <__sel4runtime_memcpy+0x210>
        for (; n >= 16; s += 16, d += 16, n -= 16) {
   118f8:	ea00001e 	b	11978 <__sel4runtime_memcpy+0x104>
            *(u32 *)(d + 0) = *(u32 *)(s + 0);
   118fc:	e51b300c 	ldr	r3, [fp, #-12]
   11900:	e5932000 	ldr	r2, [r3]
   11904:	e51b3008 	ldr	r3, [fp, #-8]
   11908:	e5832000 	str	r2, [r3]
            *(u32 *)(d + 4) = *(u32 *)(s + 4);
   1190c:	e51b300c 	ldr	r3, [fp, #-12]
   11910:	e2832004 	add	r2, r3, #4
   11914:	e51b3008 	ldr	r3, [fp, #-8]
   11918:	e2833004 	add	r3, r3, #4
   1191c:	e5922000 	ldr	r2, [r2]
   11920:	e5832000 	str	r2, [r3]
            *(u32 *)(d + 8) = *(u32 *)(s + 8);
   11924:	e51b300c 	ldr	r3, [fp, #-12]
   11928:	e2832008 	add	r2, r3, #8
   1192c:	e51b3008 	ldr	r3, [fp, #-8]
   11930:	e2833008 	add	r3, r3, #8
   11934:	e5922000 	ldr	r2, [r2]
   11938:	e5832000 	str	r2, [r3]
            *(u32 *)(d + 12) = *(u32 *)(s + 12);
   1193c:	e51b300c 	ldr	r3, [fp, #-12]
   11940:	e283200c 	add	r2, r3, #12
   11944:	e51b3008 	ldr	r3, [fp, #-8]
   11948:	e283300c 	add	r3, r3, #12
   1194c:	e5922000 	ldr	r2, [r2]
   11950:	e5832000 	str	r2, [r3]
        for (; n >= 16; s += 16, d += 16, n -= 16) {
   11954:	e51b300c 	ldr	r3, [fp, #-12]
   11958:	e2833010 	add	r3, r3, #16
   1195c:	e50b300c 	str	r3, [fp, #-12]
   11960:	e51b3008 	ldr	r3, [fp, #-8]
   11964:	e2833010 	add	r3, r3, #16
   11968:	e50b3008 	str	r3, [fp, #-8]
   1196c:	e51b3020 	ldr	r3, [fp, #-32]	; 0xffffffe0
   11970:	e2433010 	sub	r3, r3, #16
   11974:	e50b3020 	str	r3, [fp, #-32]	; 0xffffffe0
   11978:	e51b3020 	ldr	r3, [fp, #-32]	; 0xffffffe0
   1197c:	e353000f 	cmp	r3, #15
   11980:	8affffdd 	bhi	118fc <__sel4runtime_memcpy+0x88>
        }
        if (n & 8) {
   11984:	e51b3020 	ldr	r3, [fp, #-32]	; 0xffffffe0
   11988:	e2033008 	and	r3, r3, #8
   1198c:	e3530000 	cmp	r3, #0
   11990:	0a00000f 	beq	119d4 <__sel4runtime_memcpy+0x160>
            *(u32 *)(d + 0) = *(u32 *)(s + 0);
   11994:	e51b300c 	ldr	r3, [fp, #-12]
   11998:	e5932000 	ldr	r2, [r3]
   1199c:	e51b3008 	ldr	r3, [fp, #-8]
   119a0:	e5832000 	str	r2, [r3]
            *(u32 *)(d + 4) = *(u32 *)(s + 4);
   119a4:	e51b300c 	ldr	r3, [fp, #-12]
   119a8:	e2832004 	add	r2, r3, #4
   119ac:	e51b3008 	ldr	r3, [fp, #-8]
   119b0:	e2833004 	add	r3, r3, #4
   119b4:	e5922000 	ldr	r2, [r2]
   119b8:	e5832000 	str	r2, [r3]
            d += 8;
   119bc:	e51b3008 	ldr	r3, [fp, #-8]
   119c0:	e2833008 	add	r3, r3, #8
   119c4:	e50b3008 	str	r3, [fp, #-8]
            s += 8;
   119c8:	e51b300c 	ldr	r3, [fp, #-12]
   119cc:	e2833008 	add	r3, r3, #8
   119d0:	e50b300c 	str	r3, [fp, #-12]
        }
        if (n & 4) {
   119d4:	e51b3020 	ldr	r3, [fp, #-32]	; 0xffffffe0
   119d8:	e2033004 	and	r3, r3, #4
   119dc:	e3530000 	cmp	r3, #0
   119e0:	0a000009 	beq	11a0c <__sel4runtime_memcpy+0x198>
            *(u32 *)(d + 0) = *(u32 *)(s + 0);
   119e4:	e51b300c 	ldr	r3, [fp, #-12]
   119e8:	e5932000 	ldr	r2, [r3]
   119ec:	e51b3008 	ldr	r3, [fp, #-8]
   119f0:	e5832000 	str	r2, [r3]
            d += 4;
   119f4:	e51b3008 	ldr	r3, [fp, #-8]
   119f8:	e2833004 	add	r3, r3, #4
   119fc:	e50b3008 	str	r3, [fp, #-8]
            s += 4;
   11a00:	e51b300c 	ldr	r3, [fp, #-12]
   11a04:	e2833004 	add	r3, r3, #4
   11a08:	e50b300c 	str	r3, [fp, #-12]
        }
        if (n & 2) {
   11a0c:	e51b3020 	ldr	r3, [fp, #-32]	; 0xffffffe0
   11a10:	e2033002 	and	r3, r3, #2
   11a14:	e3530000 	cmp	r3, #0
   11a18:	0a00000f 	beq	11a5c <__sel4runtime_memcpy+0x1e8>
            *d++ = *s++;
   11a1c:	e51b200c 	ldr	r2, [fp, #-12]
   11a20:	e2823001 	add	r3, r2, #1
   11a24:	e50b300c 	str	r3, [fp, #-12]
   11a28:	e51b3008 	ldr	r3, [fp, #-8]
   11a2c:	e2831001 	add	r1, r3, #1
   11a30:	e50b1008 	str	r1, [fp, #-8]
   11a34:	e5d22000 	ldrb	r2, [r2]
   11a38:	e5c32000 	strb	r2, [r3]
            *d++ = *s++;
   11a3c:	e51b200c 	ldr	r2, [fp, #-12]
   11a40:	e2823001 	add	r3, r2, #1
   11a44:	e50b300c 	str	r3, [fp, #-12]
   11a48:	e51b3008 	ldr	r3, [fp, #-8]
   11a4c:	e2831001 	add	r1, r3, #1
   11a50:	e50b1008 	str	r1, [fp, #-8]
   11a54:	e5d22000 	ldrb	r2, [r2]
   11a58:	e5c32000 	strb	r2, [r3]
        }
        if (n & 1) {
   11a5c:	e51b3020 	ldr	r3, [fp, #-32]	; 0xffffffe0
   11a60:	e2033001 	and	r3, r3, #1
   11a64:	e3530000 	cmp	r3, #0
   11a68:	0a000003 	beq	11a7c <__sel4runtime_memcpy+0x208>
            *d = *s;
   11a6c:	e51b300c 	ldr	r3, [fp, #-12]
   11a70:	e5d32000 	ldrb	r2, [r3]
   11a74:	e51b3008 	ldr	r3, [fp, #-8]
   11a78:	e5c32000 	strb	r2, [r3]
        }
        return dest;
   11a7c:	e51b3018 	ldr	r3, [fp, #-24]	; 0xffffffe8
   11a80:	ea000210 	b	122c8 <__sel4runtime_memcpy+0xa54>
    }

    if (n >= 32) switch ((sel4runtime_uintptr_t)d % 4) {
   11a84:	e51b3020 	ldr	r3, [fp, #-32]	; 0xffffffe0
   11a88:	e353001f 	cmp	r3, #31
   11a8c:	9a000103 	bls	11ea0 <__sel4runtime_memcpy+0x62c>
   11a90:	e51b3008 	ldr	r3, [fp, #-8]
   11a94:	e2033003 	and	r3, r3, #3
   11a98:	e3530003 	cmp	r3, #3
   11a9c:	0a0000b4 	beq	11d74 <__sel4runtime_memcpy+0x500>
   11aa0:	e3530003 	cmp	r3, #3
   11aa4:	8a0000fe 	bhi	11ea4 <__sel4runtime_memcpy+0x630>
   11aa8:	e3530001 	cmp	r3, #1
   11aac:	0a000002 	beq	11abc <__sel4runtime_memcpy+0x248>
   11ab0:	e3530002 	cmp	r3, #2
   11ab4:	0a00005b 	beq	11c28 <__sel4runtime_memcpy+0x3b4>
   11ab8:	ea0000f9 	b	11ea4 <__sel4runtime_memcpy+0x630>
        case 1:
            w = *(u32 *)s;
   11abc:	e51b300c 	ldr	r3, [fp, #-12]
   11ac0:	e5933000 	ldr	r3, [r3]
   11ac4:	e50b3010 	str	r3, [fp, #-16]
            *d++ = *s++;
   11ac8:	e51b200c 	ldr	r2, [fp, #-12]
   11acc:	e2823001 	add	r3, r2, #1
   11ad0:	e50b300c 	str	r3, [fp, #-12]
   11ad4:	e51b3008 	ldr	r3, [fp, #-8]
   11ad8:	e2831001 	add	r1, r3, #1
   11adc:	e50b1008 	str	r1, [fp, #-8]
   11ae0:	e5d22000 	ldrb	r2, [r2]
   11ae4:	e5c32000 	strb	r2, [r3]
            *d++ = *s++;
   11ae8:	e51b200c 	ldr	r2, [fp, #-12]
   11aec:	e2823001 	add	r3, r2, #1
   11af0:	e50b300c 	str	r3, [fp, #-12]
   11af4:	e51b3008 	ldr	r3, [fp, #-8]
   11af8:	e2831001 	add	r1, r3, #1
   11afc:	e50b1008 	str	r1, [fp, #-8]
   11b00:	e5d22000 	ldrb	r2, [r2]
   11b04:	e5c32000 	strb	r2, [r3]
            *d++ = *s++;
   11b08:	e51b200c 	ldr	r2, [fp, #-12]
   11b0c:	e2823001 	add	r3, r2, #1
   11b10:	e50b300c 	str	r3, [fp, #-12]
   11b14:	e51b3008 	ldr	r3, [fp, #-8]
   11b18:	e2831001 	add	r1, r3, #1
   11b1c:	e50b1008 	str	r1, [fp, #-8]
   11b20:	e5d22000 	ldrb	r2, [r2]
   11b24:	e5c32000 	strb	r2, [r3]
            n -= 3;
   11b28:	e51b3020 	ldr	r3, [fp, #-32]	; 0xffffffe0
   11b2c:	e2433003 	sub	r3, r3, #3
   11b30:	e50b3020 	str	r3, [fp, #-32]	; 0xffffffe0
            for (; n >= 17; s += 16, d += 16, n -= 16) {
   11b34:	ea000037 	b	11c18 <__sel4runtime_memcpy+0x3a4>
                x = *(u32 *)(s + 1);
   11b38:	e51b300c 	ldr	r3, [fp, #-12]
   11b3c:	e2833001 	add	r3, r3, #1
   11b40:	e5933000 	ldr	r3, [r3]
   11b44:	e50b3014 	str	r3, [fp, #-20]	; 0xffffffec
                *(u32 *)(d + 0) = (w LS 24) | (x RS 8);
   11b48:	e51b3010 	ldr	r3, [fp, #-16]
   11b4c:	e1a02c23 	lsr	r2, r3, #24
   11b50:	e51b3014 	ldr	r3, [fp, #-20]	; 0xffffffec
   11b54:	e1a03403 	lsl	r3, r3, #8
   11b58:	e1822003 	orr	r2, r2, r3
   11b5c:	e51b3008 	ldr	r3, [fp, #-8]
   11b60:	e5832000 	str	r2, [r3]
                w = *(u32 *)(s + 5);
   11b64:	e51b300c 	ldr	r3, [fp, #-12]
   11b68:	e2833005 	add	r3, r3, #5
   11b6c:	e5933000 	ldr	r3, [r3]
   11b70:	e50b3010 	str	r3, [fp, #-16]
                *(u32 *)(d + 4) = (x LS 24) | (w RS 8);
   11b74:	e51b3014 	ldr	r3, [fp, #-20]	; 0xffffffec
   11b78:	e1a01c23 	lsr	r1, r3, #24
   11b7c:	e51b3010 	ldr	r3, [fp, #-16]
   11b80:	e1a02403 	lsl	r2, r3, #8
   11b84:	e51b3008 	ldr	r3, [fp, #-8]
   11b88:	e2833004 	add	r3, r3, #4
   11b8c:	e1812002 	orr	r2, r1, r2
   11b90:	e5832000 	str	r2, [r3]
                x = *(u32 *)(s + 9);
   11b94:	e51b300c 	ldr	r3, [fp, #-12]
   11b98:	e2833009 	add	r3, r3, #9
   11b9c:	e5933000 	ldr	r3, [r3]
   11ba0:	e50b3014 	str	r3, [fp, #-20]	; 0xffffffec
                *(u32 *)(d + 8) = (w LS 24) | (x RS 8);
   11ba4:	e51b3010 	ldr	r3, [fp, #-16]
   11ba8:	e1a01c23 	lsr	r1, r3, #24
   11bac:	e51b3014 	ldr	r3, [fp, #-20]	; 0xffffffec
   11bb0:	e1a02403 	lsl	r2, r3, #8
   11bb4:	e51b3008 	ldr	r3, [fp, #-8]
   11bb8:	e2833008 	add	r3, r3, #8
   11bbc:	e1812002 	orr	r2, r1, r2
   11bc0:	e5832000 	str	r2, [r3]
                w = *(u32 *)(s + 13);
   11bc4:	e51b300c 	ldr	r3, [fp, #-12]
   11bc8:	e283300d 	add	r3, r3, #13
   11bcc:	e5933000 	ldr	r3, [r3]
   11bd0:	e50b3010 	str	r3, [fp, #-16]
                *(u32 *)(d + 12) = (x LS 24) | (w RS 8);
   11bd4:	e51b3014 	ldr	r3, [fp, #-20]	; 0xffffffec
   11bd8:	e1a01c23 	lsr	r1, r3, #24
   11bdc:	e51b3010 	ldr	r3, [fp, #-16]
   11be0:	e1a02403 	lsl	r2, r3, #8
   11be4:	e51b3008 	ldr	r3, [fp, #-8]
   11be8:	e283300c 	add	r3, r3, #12
   11bec:	e1812002 	orr	r2, r1, r2
   11bf0:	e5832000 	str	r2, [r3]
            for (; n >= 17; s += 16, d += 16, n -= 16) {
   11bf4:	e51b300c 	ldr	r3, [fp, #-12]
   11bf8:	e2833010 	add	r3, r3, #16
   11bfc:	e50b300c 	str	r3, [fp, #-12]
   11c00:	e51b3008 	ldr	r3, [fp, #-8]
   11c04:	e2833010 	add	r3, r3, #16
   11c08:	e50b3008 	str	r3, [fp, #-8]
   11c0c:	e51b3020 	ldr	r3, [fp, #-32]	; 0xffffffe0
   11c10:	e2433010 	sub	r3, r3, #16
   11c14:	e50b3020 	str	r3, [fp, #-32]	; 0xffffffe0
   11c18:	e51b3020 	ldr	r3, [fp, #-32]	; 0xffffffe0
   11c1c:	e3530010 	cmp	r3, #16
   11c20:	8affffc4 	bhi	11b38 <__sel4runtime_memcpy+0x2c4>
            }
            break;
   11c24:	ea00009e 	b	11ea4 <__sel4runtime_memcpy+0x630>
        case 2:
            w = *(u32 *)s;
   11c28:	e51b300c 	ldr	r3, [fp, #-12]
   11c2c:	e5933000 	ldr	r3, [r3]
   11c30:	e50b3010 	str	r3, [fp, #-16]
            *d++ = *s++;
   11c34:	e51b200c 	ldr	r2, [fp, #-12]
   11c38:	e2823001 	add	r3, r2, #1
   11c3c:	e50b300c 	str	r3, [fp, #-12]
   11c40:	e51b3008 	ldr	r3, [fp, #-8]
   11c44:	e2831001 	add	r1, r3, #1
   11c48:	e50b1008 	str	r1, [fp, #-8]
   11c4c:	e5d22000 	ldrb	r2, [r2]
   11c50:	e5c32000 	strb	r2, [r3]
            *d++ = *s++;
   11c54:	e51b200c 	ldr	r2, [fp, #-12]
   11c58:	e2823001 	add	r3, r2, #1
   11c5c:	e50b300c 	str	r3, [fp, #-12]
   11c60:	e51b3008 	ldr	r3, [fp, #-8]
   11c64:	e2831001 	add	r1, r3, #1
   11c68:	e50b1008 	str	r1, [fp, #-8]
   11c6c:	e5d22000 	ldrb	r2, [r2]
   11c70:	e5c32000 	strb	r2, [r3]
            n -= 2;
   11c74:	e51b3020 	ldr	r3, [fp, #-32]	; 0xffffffe0
   11c78:	e2433002 	sub	r3, r3, #2
   11c7c:	e50b3020 	str	r3, [fp, #-32]	; 0xffffffe0
            for (; n >= 18; s += 16, d += 16, n -= 16) {
   11c80:	ea000037 	b	11d64 <__sel4runtime_memcpy+0x4f0>
                x = *(u32 *)(s + 2);
   11c84:	e51b300c 	ldr	r3, [fp, #-12]
   11c88:	e2833002 	add	r3, r3, #2
   11c8c:	e5933000 	ldr	r3, [r3]
   11c90:	e50b3014 	str	r3, [fp, #-20]	; 0xffffffec
                *(u32 *)(d + 0) = (w LS 16) | (x RS 16);
   11c94:	e51b3010 	ldr	r3, [fp, #-16]
   11c98:	e1a02823 	lsr	r2, r3, #16
   11c9c:	e51b3014 	ldr	r3, [fp, #-20]	; 0xffffffec
   11ca0:	e1a03803 	lsl	r3, r3, #16
   11ca4:	e1822003 	orr	r2, r2, r3
   11ca8:	e51b3008 	ldr	r3, [fp, #-8]
   11cac:	e5832000 	str	r2, [r3]
                w = *(u32 *)(s + 6);
   11cb0:	e51b300c 	ldr	r3, [fp, #-12]
   11cb4:	e2833006 	add	r3, r3, #6
   11cb8:	e5933000 	ldr	r3, [r3]
   11cbc:	e50b3010 	str	r3, [fp, #-16]
                *(u32 *)(d + 4) = (x LS 16) | (w RS 16);
   11cc0:	e51b3014 	ldr	r3, [fp, #-20]	; 0xffffffec
   11cc4:	e1a01823 	lsr	r1, r3, #16
   11cc8:	e51b3010 	ldr	r3, [fp, #-16]
   11ccc:	e1a02803 	lsl	r2, r3, #16
   11cd0:	e51b3008 	ldr	r3, [fp, #-8]
   11cd4:	e2833004 	add	r3, r3, #4
   11cd8:	e1812002 	orr	r2, r1, r2
   11cdc:	e5832000 	str	r2, [r3]
                x = *(u32 *)(s + 10);
   11ce0:	e51b300c 	ldr	r3, [fp, #-12]
   11ce4:	e283300a 	add	r3, r3, #10
   11ce8:	e5933000 	ldr	r3, [r3]
   11cec:	e50b3014 	str	r3, [fp, #-20]	; 0xffffffec
                *(u32 *)(d + 8) = (w LS 16) | (x RS 16);
   11cf0:	e51b3010 	ldr	r3, [fp, #-16]
   11cf4:	e1a01823 	lsr	r1, r3, #16
   11cf8:	e51b3014 	ldr	r3, [fp, #-20]	; 0xffffffec
   11cfc:	e1a02803 	lsl	r2, r3, #16
   11d00:	e51b3008 	ldr	r3, [fp, #-8]
   11d04:	e2833008 	add	r3, r3, #8
   11d08:	e1812002 	orr	r2, r1, r2
   11d0c:	e5832000 	str	r2, [r3]
                w = *(u32 *)(s + 14);
   11d10:	e51b300c 	ldr	r3, [fp, #-12]
   11d14:	e283300e 	add	r3, r3, #14
   11d18:	e5933000 	ldr	r3, [r3]
   11d1c:	e50b3010 	str	r3, [fp, #-16]
                *(u32 *)(d + 12) = (x LS 16) | (w RS 16);
   11d20:	e51b3014 	ldr	r3, [fp, #-20]	; 0xffffffec
   11d24:	e1a01823 	lsr	r1, r3, #16
   11d28:	e51b3010 	ldr	r3, [fp, #-16]
   11d2c:	e1a02803 	lsl	r2, r3, #16
   11d30:	e51b3008 	ldr	r3, [fp, #-8]
   11d34:	e283300c 	add	r3, r3, #12
   11d38:	e1812002 	orr	r2, r1, r2
   11d3c:	e5832000 	str	r2, [r3]
            for (; n >= 18; s += 16, d += 16, n -= 16) {
   11d40:	e51b300c 	ldr	r3, [fp, #-12]
   11d44:	e2833010 	add	r3, r3, #16
   11d48:	e50b300c 	str	r3, [fp, #-12]
   11d4c:	e51b3008 	ldr	r3, [fp, #-8]
   11d50:	e2833010 	add	r3, r3, #16
   11d54:	e50b3008 	str	r3, [fp, #-8]
   11d58:	e51b3020 	ldr	r3, [fp, #-32]	; 0xffffffe0
   11d5c:	e2433010 	sub	r3, r3, #16
   11d60:	e50b3020 	str	r3, [fp, #-32]	; 0xffffffe0
   11d64:	e51b3020 	ldr	r3, [fp, #-32]	; 0xffffffe0
   11d68:	e3530011 	cmp	r3, #17
   11d6c:	8affffc4 	bhi	11c84 <__sel4runtime_memcpy+0x410>
            }
            break;
   11d70:	ea00004b 	b	11ea4 <__sel4runtime_memcpy+0x630>
        case 3:
            w = *(u32 *)s;
   11d74:	e51b300c 	ldr	r3, [fp, #-12]
   11d78:	e5933000 	ldr	r3, [r3]
   11d7c:	e50b3010 	str	r3, [fp, #-16]
            *d++ = *s++;
   11d80:	e51b200c 	ldr	r2, [fp, #-12]
   11d84:	e2823001 	add	r3, r2, #1
   11d88:	e50b300c 	str	r3, [fp, #-12]
   11d8c:	e51b3008 	ldr	r3, [fp, #-8]
   11d90:	e2831001 	add	r1, r3, #1
   11d94:	e50b1008 	str	r1, [fp, #-8]
   11d98:	e5d22000 	ldrb	r2, [r2]
   11d9c:	e5c32000 	strb	r2, [r3]
            n -= 1;
   11da0:	e51b3020 	ldr	r3, [fp, #-32]	; 0xffffffe0
   11da4:	e2433001 	sub	r3, r3, #1
   11da8:	e50b3020 	str	r3, [fp, #-32]	; 0xffffffe0
            for (; n >= 19; s += 16, d += 16, n -= 16) {
   11dac:	ea000037 	b	11e90 <__sel4runtime_memcpy+0x61c>
                x = *(u32 *)(s + 3);
   11db0:	e51b300c 	ldr	r3, [fp, #-12]
   11db4:	e2833003 	add	r3, r3, #3
   11db8:	e5933000 	ldr	r3, [r3]
   11dbc:	e50b3014 	str	r3, [fp, #-20]	; 0xffffffec
                *(u32 *)(d + 0) = (w LS 8) | (x RS 24);
   11dc0:	e51b3010 	ldr	r3, [fp, #-16]
   11dc4:	e1a02423 	lsr	r2, r3, #8
   11dc8:	e51b3014 	ldr	r3, [fp, #-20]	; 0xffffffec
   11dcc:	e1a03c03 	lsl	r3, r3, #24
   11dd0:	e1822003 	orr	r2, r2, r3
   11dd4:	e51b3008 	ldr	r3, [fp, #-8]
   11dd8:	e5832000 	str	r2, [r3]
                w = *(u32 *)(s + 7);
   11ddc:	e51b300c 	ldr	r3, [fp, #-12]
   11de0:	e2833007 	add	r3, r3, #7
   11de4:	e5933000 	ldr	r3, [r3]
   11de8:	e50b3010 	str	r3, [fp, #-16]
                *(u32 *)(d + 4) = (x LS 8) | (w RS 24);
   11dec:	e51b3014 	ldr	r3, [fp, #-20]	; 0xffffffec
   11df0:	e1a01423 	lsr	r1, r3, #8
   11df4:	e51b3010 	ldr	r3, [fp, #-16]
   11df8:	e1a02c03 	lsl	r2, r3, #24
   11dfc:	e51b3008 	ldr	r3, [fp, #-8]
   11e00:	e2833004 	add	r3, r3, #4
   11e04:	e1812002 	orr	r2, r1, r2
   11e08:	e5832000 	str	r2, [r3]
                x = *(u32 *)(s + 11);
   11e0c:	e51b300c 	ldr	r3, [fp, #-12]
   11e10:	e283300b 	add	r3, r3, #11
   11e14:	e5933000 	ldr	r3, [r3]
   11e18:	e50b3014 	str	r3, [fp, #-20]	; 0xffffffec
                *(u32 *)(d + 8) = (w LS 8) | (x RS 24);
   11e1c:	e51b3010 	ldr	r3, [fp, #-16]
   11e20:	e1a01423 	lsr	r1, r3, #8
   11e24:	e51b3014 	ldr	r3, [fp, #-20]	; 0xffffffec
   11e28:	e1a02c03 	lsl	r2, r3, #24
   11e2c:	e51b3008 	ldr	r3, [fp, #-8]
   11e30:	e2833008 	add	r3, r3, #8
   11e34:	e1812002 	orr	r2, r1, r2
   11e38:	e5832000 	str	r2, [r3]
                w = *(u32 *)(s + 15);
   11e3c:	e51b300c 	ldr	r3, [fp, #-12]
   11e40:	e283300f 	add	r3, r3, #15
   11e44:	e5933000 	ldr	r3, [r3]
   11e48:	e50b3010 	str	r3, [fp, #-16]
                *(u32 *)(d + 12) = (x LS 8) | (w RS 24);
   11e4c:	e51b3014 	ldr	r3, [fp, #-20]	; 0xffffffec
   11e50:	e1a01423 	lsr	r1, r3, #8
   11e54:	e51b3010 	ldr	r3, [fp, #-16]
   11e58:	e1a02c03 	lsl	r2, r3, #24
   11e5c:	e51b3008 	ldr	r3, [fp, #-8]
   11e60:	e283300c 	add	r3, r3, #12
   11e64:	e1812002 	orr	r2, r1, r2
   11e68:	e5832000 	str	r2, [r3]
            for (; n >= 19; s += 16, d += 16, n -= 16) {
   11e6c:	e51b300c 	ldr	r3, [fp, #-12]
   11e70:	e2833010 	add	r3, r3, #16
   11e74:	e50b300c 	str	r3, [fp, #-12]
   11e78:	e51b3008 	ldr	r3, [fp, #-8]
   11e7c:	e2833010 	add	r3, r3, #16
   11e80:	e50b3008 	str	r3, [fp, #-8]
   11e84:	e51b3020 	ldr	r3, [fp, #-32]	; 0xffffffe0
   11e88:	e2433010 	sub	r3, r3, #16
   11e8c:	e50b3020 	str	r3, [fp, #-32]	; 0xffffffe0
   11e90:	e51b3020 	ldr	r3, [fp, #-32]	; 0xffffffe0
   11e94:	e3530012 	cmp	r3, #18
   11e98:	8affffc4 	bhi	11db0 <__sel4runtime_memcpy+0x53c>
            }
            break;
   11e9c:	ea000000 	b	11ea4 <__sel4runtime_memcpy+0x630>
        }
    if (n & 16) {
   11ea0:	e320f000 	nop	{0}
   11ea4:	e51b3020 	ldr	r3, [fp, #-32]	; 0xffffffe0
   11ea8:	e2033010 	and	r3, r3, #16
   11eac:	e3530000 	cmp	r3, #0
   11eb0:	0a00007f 	beq	120b4 <__sel4runtime_memcpy+0x840>
        *d++ = *s++;
   11eb4:	e51b200c 	ldr	r2, [fp, #-12]
   11eb8:	e2823001 	add	r3, r2, #1
   11ebc:	e50b300c 	str	r3, [fp, #-12]
   11ec0:	e51b3008 	ldr	r3, [fp, #-8]
   11ec4:	e2831001 	add	r1, r3, #1
   11ec8:	e50b1008 	str	r1, [fp, #-8]
   11ecc:	e5d22000 	ldrb	r2, [r2]
   11ed0:	e5c32000 	strb	r2, [r3]
        *d++ = *s++;
   11ed4:	e51b200c 	ldr	r2, [fp, #-12]
   11ed8:	e2823001 	add	r3, r2, #1
   11edc:	e50b300c 	str	r3, [fp, #-12]
   11ee0:	e51b3008 	ldr	r3, [fp, #-8]
   11ee4:	e2831001 	add	r1, r3, #1
   11ee8:	e50b1008 	str	r1, [fp, #-8]
   11eec:	e5d22000 	ldrb	r2, [r2]
   11ef0:	e5c32000 	strb	r2, [r3]
        *d++ = *s++;
   11ef4:	e51b200c 	ldr	r2, [fp, #-12]
   11ef8:	e2823001 	add	r3, r2, #1
   11efc:	e50b300c 	str	r3, [fp, #-12]
   11f00:	e51b3008 	ldr	r3, [fp, #-8]
   11f04:	e2831001 	add	r1, r3, #1
   11f08:	e50b1008 	str	r1, [fp, #-8]
   11f0c:	e5d22000 	ldrb	r2, [r2]
   11f10:	e5c32000 	strb	r2, [r3]
        *d++ = *s++;
   11f14:	e51b200c 	ldr	r2, [fp, #-12]
   11f18:	e2823001 	add	r3, r2, #1
   11f1c:	e50b300c 	str	r3, [fp, #-12]
   11f20:	e51b3008 	ldr	r3, [fp, #-8]
   11f24:	e2831001 	add	r1, r3, #1
   11f28:	e50b1008 	str	r1, [fp, #-8]
   11f2c:	e5d22000 	ldrb	r2, [r2]
   11f30:	e5c32000 	strb	r2, [r3]
        *d++ = *s++;
   11f34:	e51b200c 	ldr	r2, [fp, #-12]
   11f38:	e2823001 	add	r3, r2, #1
   11f3c:	e50b300c 	str	r3, [fp, #-12]
   11f40:	e51b3008 	ldr	r3, [fp, #-8]
   11f44:	e2831001 	add	r1, r3, #1
   11f48:	e50b1008 	str	r1, [fp, #-8]
   11f4c:	e5d22000 	ldrb	r2, [r2]
   11f50:	e5c32000 	strb	r2, [r3]
        *d++ = *s++;
   11f54:	e51b200c 	ldr	r2, [fp, #-12]
   11f58:	e2823001 	add	r3, r2, #1
   11f5c:	e50b300c 	str	r3, [fp, #-12]
   11f60:	e51b3008 	ldr	r3, [fp, #-8]
   11f64:	e2831001 	add	r1, r3, #1
   11f68:	e50b1008 	str	r1, [fp, #-8]
   11f6c:	e5d22000 	ldrb	r2, [r2]
   11f70:	e5c32000 	strb	r2, [r3]
        *d++ = *s++;
   11f74:	e51b200c 	ldr	r2, [fp, #-12]
   11f78:	e2823001 	add	r3, r2, #1
   11f7c:	e50b300c 	str	r3, [fp, #-12]
   11f80:	e51b3008 	ldr	r3, [fp, #-8]
   11f84:	e2831001 	add	r1, r3, #1
   11f88:	e50b1008 	str	r1, [fp, #-8]
   11f8c:	e5d22000 	ldrb	r2, [r2]
   11f90:	e5c32000 	strb	r2, [r3]
        *d++ = *s++;
   11f94:	e51b200c 	ldr	r2, [fp, #-12]
   11f98:	e2823001 	add	r3, r2, #1
   11f9c:	e50b300c 	str	r3, [fp, #-12]
   11fa0:	e51b3008 	ldr	r3, [fp, #-8]
   11fa4:	e2831001 	add	r1, r3, #1
   11fa8:	e50b1008 	str	r1, [fp, #-8]
   11fac:	e5d22000 	ldrb	r2, [r2]
   11fb0:	e5c32000 	strb	r2, [r3]
        *d++ = *s++;
   11fb4:	e51b200c 	ldr	r2, [fp, #-12]
   11fb8:	e2823001 	add	r3, r2, #1
   11fbc:	e50b300c 	str	r3, [fp, #-12]
   11fc0:	e51b3008 	ldr	r3, [fp, #-8]
   11fc4:	e2831001 	add	r1, r3, #1
   11fc8:	e50b1008 	str	r1, [fp, #-8]
   11fcc:	e5d22000 	ldrb	r2, [r2]
   11fd0:	e5c32000 	strb	r2, [r3]
        *d++ = *s++;
   11fd4:	e51b200c 	ldr	r2, [fp, #-12]
   11fd8:	e2823001 	add	r3, r2, #1
   11fdc:	e50b300c 	str	r3, [fp, #-12]
   11fe0:	e51b3008 	ldr	r3, [fp, #-8]
   11fe4:	e2831001 	add	r1, r3, #1
   11fe8:	e50b1008 	str	r1, [fp, #-8]
   11fec:	e5d22000 	ldrb	r2, [r2]
   11ff0:	e5c32000 	strb	r2, [r3]
        *d++ = *s++;
   11ff4:	e51b200c 	ldr	r2, [fp, #-12]
   11ff8:	e2823001 	add	r3, r2, #1
   11ffc:	e50b300c 	str	r3, [fp, #-12]
   12000:	e51b3008 	ldr	r3, [fp, #-8]
   12004:	e2831001 	add	r1, r3, #1
   12008:	e50b1008 	str	r1, [fp, #-8]
   1200c:	e5d22000 	ldrb	r2, [r2]
   12010:	e5c32000 	strb	r2, [r3]
        *d++ = *s++;
   12014:	e51b200c 	ldr	r2, [fp, #-12]
   12018:	e2823001 	add	r3, r2, #1
   1201c:	e50b300c 	str	r3, [fp, #-12]
   12020:	e51b3008 	ldr	r3, [fp, #-8]
   12024:	e2831001 	add	r1, r3, #1
   12028:	e50b1008 	str	r1, [fp, #-8]
   1202c:	e5d22000 	ldrb	r2, [r2]
   12030:	e5c32000 	strb	r2, [r3]
        *d++ = *s++;
   12034:	e51b200c 	ldr	r2, [fp, #-12]
   12038:	e2823001 	add	r3, r2, #1
   1203c:	e50b300c 	str	r3, [fp, #-12]
   12040:	e51b3008 	ldr	r3, [fp, #-8]
   12044:	e2831001 	add	r1, r3, #1
   12048:	e50b1008 	str	r1, [fp, #-8]
   1204c:	e5d22000 	ldrb	r2, [r2]
   12050:	e5c32000 	strb	r2, [r3]
        *d++ = *s++;
   12054:	e51b200c 	ldr	r2, [fp, #-12]
   12058:	e2823001 	add	r3, r2, #1
   1205c:	e50b300c 	str	r3, [fp, #-12]
   12060:	e51b3008 	ldr	r3, [fp, #-8]
   12064:	e2831001 	add	r1, r3, #1
   12068:	e50b1008 	str	r1, [fp, #-8]
   1206c:	e5d22000 	ldrb	r2, [r2]
   12070:	e5c32000 	strb	r2, [r3]
        *d++ = *s++;
   12074:	e51b200c 	ldr	r2, [fp, #-12]
   12078:	e2823001 	add	r3, r2, #1
   1207c:	e50b300c 	str	r3, [fp, #-12]
   12080:	e51b3008 	ldr	r3, [fp, #-8]
   12084:	e2831001 	add	r1, r3, #1
   12088:	e50b1008 	str	r1, [fp, #-8]
   1208c:	e5d22000 	ldrb	r2, [r2]
   12090:	e5c32000 	strb	r2, [r3]
        *d++ = *s++;
   12094:	e51b200c 	ldr	r2, [fp, #-12]
   12098:	e2823001 	add	r3, r2, #1
   1209c:	e50b300c 	str	r3, [fp, #-12]
   120a0:	e51b3008 	ldr	r3, [fp, #-8]
   120a4:	e2831001 	add	r1, r3, #1
   120a8:	e50b1008 	str	r1, [fp, #-8]
   120ac:	e5d22000 	ldrb	r2, [r2]
   120b0:	e5c32000 	strb	r2, [r3]
    }
    if (n & 8) {
   120b4:	e51b3020 	ldr	r3, [fp, #-32]	; 0xffffffe0
   120b8:	e2033008 	and	r3, r3, #8
   120bc:	e3530000 	cmp	r3, #0
   120c0:	0a00003f 	beq	121c4 <__sel4runtime_memcpy+0x950>
        *d++ = *s++;
   120c4:	e51b200c 	ldr	r2, [fp, #-12]
   120c8:	e2823001 	add	r3, r2, #1
   120cc:	e50b300c 	str	r3, [fp, #-12]
   120d0:	e51b3008 	ldr	r3, [fp, #-8]
   120d4:	e2831001 	add	r1, r3, #1
   120d8:	e50b1008 	str	r1, [fp, #-8]
   120dc:	e5d22000 	ldrb	r2, [r2]
   120e0:	e5c32000 	strb	r2, [r3]
        *d++ = *s++;
   120e4:	e51b200c 	ldr	r2, [fp, #-12]
   120e8:	e2823001 	add	r3, r2, #1
   120ec:	e50b300c 	str	r3, [fp, #-12]
   120f0:	e51b3008 	ldr	r3, [fp, #-8]
   120f4:	e2831001 	add	r1, r3, #1
   120f8:	e50b1008 	str	r1, [fp, #-8]
   120fc:	e5d22000 	ldrb	r2, [r2]
   12100:	e5c32000 	strb	r2, [r3]
        *d++ = *s++;
   12104:	e51b200c 	ldr	r2, [fp, #-12]
   12108:	e2823001 	add	r3, r2, #1
   1210c:	e50b300c 	str	r3, [fp, #-12]
   12110:	e51b3008 	ldr	r3, [fp, #-8]
   12114:	e2831001 	add	r1, r3, #1
   12118:	e50b1008 	str	r1, [fp, #-8]
   1211c:	e5d22000 	ldrb	r2, [r2]
   12120:	e5c32000 	strb	r2, [r3]
        *d++ = *s++;
   12124:	e51b200c 	ldr	r2, [fp, #-12]
   12128:	e2823001 	add	r3, r2, #1
   1212c:	e50b300c 	str	r3, [fp, #-12]
   12130:	e51b3008 	ldr	r3, [fp, #-8]
   12134:	e2831001 	add	r1, r3, #1
   12138:	e50b1008 	str	r1, [fp, #-8]
   1213c:	e5d22000 	ldrb	r2, [r2]
   12140:	e5c32000 	strb	r2, [r3]
        *d++ = *s++;
   12144:	e51b200c 	ldr	r2, [fp, #-12]
   12148:	e2823001 	add	r3, r2, #1
   1214c:	e50b300c 	str	r3, [fp, #-12]
   12150:	e51b3008 	ldr	r3, [fp, #-8]
   12154:	e2831001 	add	r1, r3, #1
   12158:	e50b1008 	str	r1, [fp, #-8]
   1215c:	e5d22000 	ldrb	r2, [r2]
   12160:	e5c32000 	strb	r2, [r3]
        *d++ = *s++;
   12164:	e51b200c 	ldr	r2, [fp, #-12]
   12168:	e2823001 	add	r3, r2, #1
   1216c:	e50b300c 	str	r3, [fp, #-12]
   12170:	e51b3008 	ldr	r3, [fp, #-8]
   12174:	e2831001 	add	r1, r3, #1
   12178:	e50b1008 	str	r1, [fp, #-8]
   1217c:	e5d22000 	ldrb	r2, [r2]
   12180:	e5c32000 	strb	r2, [r3]
        *d++ = *s++;
   12184:	e51b200c 	ldr	r2, [fp, #-12]
   12188:	e2823001 	add	r3, r2, #1
   1218c:	e50b300c 	str	r3, [fp, #-12]
   12190:	e51b3008 	ldr	r3, [fp, #-8]
   12194:	e2831001 	add	r1, r3, #1
   12198:	e50b1008 	str	r1, [fp, #-8]
   1219c:	e5d22000 	ldrb	r2, [r2]
   121a0:	e5c32000 	strb	r2, [r3]
        *d++ = *s++;
   121a4:	e51b200c 	ldr	r2, [fp, #-12]
   121a8:	e2823001 	add	r3, r2, #1
   121ac:	e50b300c 	str	r3, [fp, #-12]
   121b0:	e51b3008 	ldr	r3, [fp, #-8]
   121b4:	e2831001 	add	r1, r3, #1
   121b8:	e50b1008 	str	r1, [fp, #-8]
   121bc:	e5d22000 	ldrb	r2, [r2]
   121c0:	e5c32000 	strb	r2, [r3]
    }
    if (n & 4) {
   121c4:	e51b3020 	ldr	r3, [fp, #-32]	; 0xffffffe0
   121c8:	e2033004 	and	r3, r3, #4
   121cc:	e3530000 	cmp	r3, #0
   121d0:	0a00001f 	beq	12254 <__sel4runtime_memcpy+0x9e0>
        *d++ = *s++;
   121d4:	e51b200c 	ldr	r2, [fp, #-12]
   121d8:	e2823001 	add	r3, r2, #1
   121dc:	e50b300c 	str	r3, [fp, #-12]
   121e0:	e51b3008 	ldr	r3, [fp, #-8]
   121e4:	e2831001 	add	r1, r3, #1
   121e8:	e50b1008 	str	r1, [fp, #-8]
   121ec:	e5d22000 	ldrb	r2, [r2]
   121f0:	e5c32000 	strb	r2, [r3]
        *d++ = *s++;
   121f4:	e51b200c 	ldr	r2, [fp, #-12]
   121f8:	e2823001 	add	r3, r2, #1
   121fc:	e50b300c 	str	r3, [fp, #-12]
   12200:	e51b3008 	ldr	r3, [fp, #-8]
   12204:	e2831001 	add	r1, r3, #1
   12208:	e50b1008 	str	r1, [fp, #-8]
   1220c:	e5d22000 	ldrb	r2, [r2]
   12210:	e5c32000 	strb	r2, [r3]
        *d++ = *s++;
   12214:	e51b200c 	ldr	r2, [fp, #-12]
   12218:	e2823001 	add	r3, r2, #1
   1221c:	e50b300c 	str	r3, [fp, #-12]
   12220:	e51b3008 	ldr	r3, [fp, #-8]
   12224:	e2831001 	add	r1, r3, #1
   12228:	e50b1008 	str	r1, [fp, #-8]
   1222c:	e5d22000 	ldrb	r2, [r2]
   12230:	e5c32000 	strb	r2, [r3]
        *d++ = *s++;
   12234:	e51b200c 	ldr	r2, [fp, #-12]
   12238:	e2823001 	add	r3, r2, #1
   1223c:	e50b300c 	str	r3, [fp, #-12]
   12240:	e51b3008 	ldr	r3, [fp, #-8]
   12244:	e2831001 	add	r1, r3, #1
   12248:	e50b1008 	str	r1, [fp, #-8]
   1224c:	e5d22000 	ldrb	r2, [r2]
   12250:	e5c32000 	strb	r2, [r3]
    }
    if (n & 2) {
   12254:	e51b3020 	ldr	r3, [fp, #-32]	; 0xffffffe0
   12258:	e2033002 	and	r3, r3, #2
   1225c:	e3530000 	cmp	r3, #0
   12260:	0a00000f 	beq	122a4 <__sel4runtime_memcpy+0xa30>
        *d++ = *s++;
   12264:	e51b200c 	ldr	r2, [fp, #-12]
   12268:	e2823001 	add	r3, r2, #1
   1226c:	e50b300c 	str	r3, [fp, #-12]
   12270:	e51b3008 	ldr	r3, [fp, #-8]
   12274:	e2831001 	add	r1, r3, #1
   12278:	e50b1008 	str	r1, [fp, #-8]
   1227c:	e5d22000 	ldrb	r2, [r2]
   12280:	e5c32000 	strb	r2, [r3]
        *d++ = *s++;
   12284:	e51b200c 	ldr	r2, [fp, #-12]
   12288:	e2823001 	add	r3, r2, #1
   1228c:	e50b300c 	str	r3, [fp, #-12]
   12290:	e51b3008 	ldr	r3, [fp, #-8]
   12294:	e2831001 	add	r1, r3, #1
   12298:	e50b1008 	str	r1, [fp, #-8]
   1229c:	e5d22000 	ldrb	r2, [r2]
   122a0:	e5c32000 	strb	r2, [r3]
    }
    if (n & 1) {
   122a4:	e51b3020 	ldr	r3, [fp, #-32]	; 0xffffffe0
   122a8:	e2033001 	and	r3, r3, #1
   122ac:	e3530000 	cmp	r3, #0
   122b0:	0a000003 	beq	122c4 <__sel4runtime_memcpy+0xa50>
        *d = *s;
   122b4:	e51b300c 	ldr	r3, [fp, #-12]
   122b8:	e5d32000 	ldrb	r2, [r3]
   122bc:	e51b3008 	ldr	r3, [fp, #-8]
   122c0:	e5c32000 	strb	r2, [r3]
    }
    return dest;
   122c4:	e51b3018 	ldr	r3, [fp, #-24]	; 0xffffffe8

    for (; n; n--) {
        *d++ = *s++;
    }
    return dest;
}
   122c8:	e1a00003 	mov	r0, r3
   122cc:	e28bd000 	add	sp, fp, #0
   122d0:	e49db004 	pop	{fp}		; (ldr fp, [sp], #4)
   122d4:	e12fff1e 	bx	lr

000122d8 <__sel4runtime_vsyscall>:
 * SPDX-License-Identifier: BSD-2-Clause
 */

/* If no vsyscall implementation is provided, this dummy one is used. */
long __sel4runtime_vsyscall(long sysnum, ...)
{
   122d8:	e92d000f 	push	{r0, r1, r2, r3}
   122dc:	e52db004 	push	{fp}		; (str fp, [sp, #-4]!)
   122e0:	e28db000 	add	fp, sp, #0
    return -1;
   122e4:	e3e03000 	mvn	r3, #0
}
   122e8:	e1a00003 	mov	r0, r3
   122ec:	e28bd000 	add	sp, fp, #0
   122f0:	e49db004 	pop	{fp}		; (ldr fp, [sp], #4)
   122f4:	e28dd010 	add	sp, sp, #16
   122f8:	e12fff1e 	bx	lr

000122fc <__aeabi_read_tp>:
 */
.syntax unified
.global __aeabi_read_tp
.type __aeabi_read_tp,%function
__aeabi_read_tp:
	push {r1,r2,r3,lr}
   122fc:	e92d400e 	push	{r1, r2, r3, lr}
	bl __aeabi_read_tp_c
   12300:	eb000011 	bl	1234c <__aeabi_read_tp_c>
	pop {r1,r2,r3,lr}
   12304:	e8bd400e 	pop	{r1, r2, r3, lr}
	bx lr
   12308:	e12fff1e 	bx	lr

0001230c <sel4runtime_read_tpidr_el0>:
{
   1230c:	e52db004 	push	{fp}		; (str fp, [sp, #-4]!)
   12310:	e28db000 	add	fp, sp, #0
   12314:	e24dd00c 	sub	sp, sp, #12
    __asm__ __volatile__("mrc p15,0,%0,c13,c0,2" : "=r"(reg));
   12318:	ee1d3f50 	mrc	15, 0, r3, cr13, cr0, {2}
   1231c:	e50b3008 	str	r3, [fp, #-8]
    return reg;
   12320:	e51b3008 	ldr	r3, [fp, #-8]
}
   12324:	e1a00003 	mov	r0, r3
   12328:	e28bd000 	add	sp, fp, #0
   1232c:	e49db004 	pop	{fp}		; (ldr fp, [sp], #4)
   12330:	e12fff1e 	bx	lr

00012334 <sel4runtime_get_tls_base>:
{
   12334:	e92d4800 	push	{fp, lr}
   12338:	e28db004 	add	fp, sp, #4
    return sel4runtime_read_tpidr_el0();
   1233c:	ebfffff2 	bl	1230c <sel4runtime_read_tpidr_el0>
   12340:	e1a03000 	mov	r3, r0
}
   12344:	e1a00003 	mov	r0, r3
   12348:	e8bd8800 	pop	{fp, pc}

0001234c <__aeabi_read_tp_c>:
#include <sel4/sel4.h>
#include <sel4runtime/thread_arch.h>

__attribute__((__visibility__("hidden")))
void *__aeabi_read_tp_c(void)
{
   1234c:	e92d4800 	push	{fp, lr}
   12350:	e28db004 	add	fp, sp, #4
    return (void *)sel4runtime_get_tls_base();
   12354:	ebfffff6 	bl	12334 <sel4runtime_get_tls_base>
   12358:	e1a03000 	mov	r3, r0
}
   1235c:	e1a00003 	mov	r0, r3
   12360:	e8bd8800 	pop	{fp, pc}

00012364 <seL4_InitBootInfo>:
/** Consider moving bootinfo into libsel4_startup */
seL4_BootInfo *bootinfo;

/** Consider moving seL4_InitBootInfo into libsel4_startup */
void seL4_InitBootInfo(seL4_BootInfo *bi)
{
   12364:	e52db004 	push	{fp}		; (str fp, [sp, #-4]!)
   12368:	e28db000 	add	fp, sp, #0
   1236c:	e24dd00c 	sub	sp, sp, #12
   12370:	e50b0008 	str	r0, [fp, #-8]
    bootinfo = bi;
   12374:	e3083a80 	movw	r3, #35456	; 0x8a80
   12378:	e3403004 	movt	r3, #4
   1237c:	e51b2008 	ldr	r2, [fp, #-8]
   12380:	e5832000 	str	r2, [r3]
}
   12384:	e320f000 	nop	{0}
   12388:	e28bd000 	add	sp, fp, #0
   1238c:	e49db004 	pop	{fp}		; (ldr fp, [sp], #4)
   12390:	e12fff1e 	bx	lr

00012394 <seL4_GetBootInfo>:

seL4_BootInfo *seL4_GetBootInfo()
{
   12394:	e52db004 	push	{fp}		; (str fp, [sp, #-4]!)
   12398:	e28db000 	add	fp, sp, #0
    return bootinfo;
   1239c:	e3083a80 	movw	r3, #35456	; 0x8a80
   123a0:	e3403004 	movt	r3, #4
   123a4:	e5933000 	ldr	r3, [r3]
}
   123a8:	e1a00003 	mov	r0, r3
   123ac:	e28bd000 	add	sp, fp, #0
   123b0:	e49db004 	pop	{fp}		; (ldr fp, [sp], #4)
   123b4:	e12fff1e 	bx	lr

000123b8 <arm_sys_send_recv>:
{
   123b8:	e92d08b0 	push	{r4, r5, r7, fp}
   123bc:	e28db00c 	add	fp, sp, #12
   123c0:	e24dd010 	sub	sp, sp, #16
   123c4:	e50b0010 	str	r0, [fp, #-16]
   123c8:	e50b1014 	str	r1, [fp, #-20]	; 0xffffffec
   123cc:	e50b2018 	str	r2, [fp, #-24]	; 0xffffffe8
   123d0:	e50b301c 	str	r3, [fp, #-28]	; 0xffffffe4
    register seL4_Word destptr asm("r0") = dest;
   123d4:	e51b0014 	ldr	r0, [fp, #-20]	; 0xffffffec
    register seL4_Word info asm("r1") = info_arg;
   123d8:	e51b101c 	ldr	r1, [fp, #-28]	; 0xffffffe4
    register seL4_Word msg0 asm("r2") = *in_out_mr0;
   123dc:	e59b3008 	ldr	r3, [fp, #8]
   123e0:	e5933000 	ldr	r3, [r3]
   123e4:	e1a02003 	mov	r2, r3
    register seL4_Word msg1 asm("r3") = *in_out_mr1;
   123e8:	e59b300c 	ldr	r3, [fp, #12]
   123ec:	e5933000 	ldr	r3, [r3]
    register seL4_Word msg2 asm("r4") = *in_out_mr2;
   123f0:	e59bc010 	ldr	ip, [fp, #16]
   123f4:	e59cc000 	ldr	ip, [ip]
   123f8:	e1a0400c 	mov	r4, ip
    register seL4_Word msg3 asm("r5") = *in_out_mr3;
   123fc:	e59bc014 	ldr	ip, [fp, #20]
   12400:	e59cc000 	ldr	ip, [ip]
   12404:	e1a0500c 	mov	r5, ip
    register seL4_Word scno asm("r7") = sys;
   12408:	e51b7010 	ldr	r7, [fp, #-16]
    asm volatile(
   1240c:	ef000000 	svc	0x00000000
    *out_info = info;
   12410:	e1a0c001 	mov	ip, r1
   12414:	e59b1004 	ldr	r1, [fp, #4]
   12418:	e581c000 	str	ip, [r1]
    *out_badge = destptr;
   1241c:	e51b1018 	ldr	r1, [fp, #-24]	; 0xffffffe8
   12420:	e5810000 	str	r0, [r1]
    *in_out_mr0 = msg0;
   12424:	e1a01002 	mov	r1, r2
   12428:	e59b2008 	ldr	r2, [fp, #8]
   1242c:	e5821000 	str	r1, [r2]
    *in_out_mr1 = msg1;
   12430:	e1a02003 	mov	r2, r3
   12434:	e59b300c 	ldr	r3, [fp, #12]
   12438:	e5832000 	str	r2, [r3]
    *in_out_mr2 = msg2;
   1243c:	e1a02004 	mov	r2, r4
   12440:	e59b3010 	ldr	r3, [fp, #16]
   12444:	e5832000 	str	r2, [r3]
    *in_out_mr3 = msg3;
   12448:	e1a02005 	mov	r2, r5
   1244c:	e59b3014 	ldr	r3, [fp, #20]
   12450:	e5832000 	str	r2, [r3]
}
   12454:	e320f000 	nop	{0}
   12458:	e24bd00c 	sub	sp, fp, #12
   1245c:	e8bd08b0 	pop	{r4, r5, r7, fp}
   12460:	e12fff1e 	bx	lr

00012464 <seL4_DebugPutChar>:
{
   12464:	e92d4800 	push	{fp, lr}
   12468:	e28db004 	add	fp, sp, #4
   1246c:	e24dd038 	sub	sp, sp, #56	; 0x38
   12470:	e1a03000 	mov	r3, r0
   12474:	e54b301d 	strb	r3, [fp, #-29]	; 0xffffffe3
    seL4_Word unused0 = 0;
   12478:	e3a03000 	mov	r3, #0
   1247c:	e50b3008 	str	r3, [fp, #-8]
    seL4_Word unused1 = 0;
   12480:	e3a03000 	mov	r3, #0
   12484:	e50b300c 	str	r3, [fp, #-12]
    seL4_Word unused2 = 0;
   12488:	e3a03000 	mov	r3, #0
   1248c:	e50b3010 	str	r3, [fp, #-16]
    seL4_Word unused3 = 0;
   12490:	e3a03000 	mov	r3, #0
   12494:	e50b3014 	str	r3, [fp, #-20]	; 0xffffffec
    seL4_Word unused4 = 0;
   12498:	e3a03000 	mov	r3, #0
   1249c:	e50b3018 	str	r3, [fp, #-24]	; 0xffffffe8
    seL4_Word unused5 = 0;
   124a0:	e3a03000 	mov	r3, #0
   124a4:	e50b301c 	str	r3, [fp, #-28]	; 0xffffffe4
    arm_sys_send_recv(seL4_SysDebugPutChar, c, &unused0, 0, &unused1, &unused2, &unused3, &unused4, &unused5, 0);
   124a8:	e55b101d 	ldrb	r1, [fp, #-29]	; 0xffffffe3
   124ac:	e24b2008 	sub	r2, fp, #8
   124b0:	e3a03000 	mov	r3, #0
   124b4:	e58d3014 	str	r3, [sp, #20]
   124b8:	e24b301c 	sub	r3, fp, #28
   124bc:	e58d3010 	str	r3, [sp, #16]
   124c0:	e24b3018 	sub	r3, fp, #24
   124c4:	e58d300c 	str	r3, [sp, #12]
   124c8:	e24b3014 	sub	r3, fp, #20
   124cc:	e58d3008 	str	r3, [sp, #8]
   124d0:	e24b3010 	sub	r3, fp, #16
   124d4:	e58d3004 	str	r3, [sp, #4]
   124d8:	e24b300c 	sub	r3, fp, #12
   124dc:	e58d3000 	str	r3, [sp]
   124e0:	e3a03000 	mov	r3, #0
   124e4:	e3e00008 	mvn	r0, #8
   124e8:	ebffffb2 	bl	123b8 <arm_sys_send_recv>
}
   124ec:	e320f000 	nop	{0}
   124f0:	e24bd004 	sub	sp, fp, #4
   124f4:	e8bd8800 	pop	{fp, pc}

000124f8 <kernel_putchar_write>:
#include <arch_stdio.h>
#include <utils/attribute.h>

/* allow printf to use kernel debug printing */
size_t kernel_putchar_write(void *data, size_t count)
{
   124f8:	e92d4800 	push	{fp, lr}
   124fc:	e28db004 	add	fp, sp, #4
   12500:	e24dd010 	sub	sp, sp, #16
   12504:	e50b0010 	str	r0, [fp, #-16]
   12508:	e50b1014 	str	r1, [fp, #-20]	; 0xffffffec
#ifdef CONFIG_DEBUG_BUILD
    char *cdata = (char *)data;
   1250c:	e51b3010 	ldr	r3, [fp, #-16]
   12510:	e50b300c 	str	r3, [fp, #-12]
    for (size_t i = 0; i < count; i++) {
   12514:	e3a03000 	mov	r3, #0
   12518:	e50b3008 	str	r3, [fp, #-8]
   1251c:	ea000008 	b	12544 <kernel_putchar_write+0x4c>
        seL4_DebugPutChar(cdata[i]);
   12520:	e51b200c 	ldr	r2, [fp, #-12]
   12524:	e51b3008 	ldr	r3, [fp, #-8]
   12528:	e0823003 	add	r3, r2, r3
   1252c:	e5d33000 	ldrb	r3, [r3]
   12530:	e1a00003 	mov	r0, r3
   12534:	ebffffca 	bl	12464 <seL4_DebugPutChar>
    for (size_t i = 0; i < count; i++) {
   12538:	e51b3008 	ldr	r3, [fp, #-8]
   1253c:	e2833001 	add	r3, r3, #1
   12540:	e50b3008 	str	r3, [fp, #-8]
   12544:	e51b2008 	ldr	r2, [fp, #-8]
   12548:	e51b3014 	ldr	r3, [fp, #-20]	; 0xffffffec
   1254c:	e1520003 	cmp	r2, r3
   12550:	3afffff2 	bcc	12520 <kernel_putchar_write+0x28>
    }
#endif
    return count;
   12554:	e51b3014 	ldr	r3, [fp, #-20]	; 0xffffffec
}
   12558:	e1a00003 	mov	r0, r3
   1255c:	e24bd004 	sub	sp, fp, #4
   12560:	e8bd8800 	pop	{fp, pc}

00012564 <register_debug_putchar>:

void CONSTRUCTOR(200) register_debug_putchar(void)
{
   12564:	e92d4800 	push	{fp, lr}
   12568:	e28db004 	add	fp, sp, #4
    sel4muslcsys_register_stdio_write_fn(kernel_putchar_write);
   1256c:	e30204f8 	movw	r0, #9464	; 0x24f8
   12570:	e3400001 	movt	r0, #1
   12574:	eb0002ba 	bl	13064 <sel4muslcsys_register_stdio_write_fn>
}
   12578:	e320f000 	nop	{0}
   1257c:	e8bd8800 	pop	{fp, pc}

00012580 <name_thread>:

/* set a thread's name for debugging purposes */
void name_thread(seL4_CPtr tcb, char *name)
{
   12580:	e52db004 	push	{fp}		; (str fp, [sp, #-4]!)
   12584:	e28db000 	add	fp, sp, #0
   12588:	e24dd00c 	sub	sp, sp, #12
   1258c:	e50b0008 	str	r0, [fp, #-8]
   12590:	e50b100c 	str	r1, [fp, #-12]
#ifdef SEL4_DEBUG_KERNEL
    seL4_DebugNameThread(tcb, name);
#endif
}
   12594:	e320f000 	nop	{0}
   12598:	e28bd000 	add	sp, fp, #0
   1259c:	e49db004 	pop	{fp}		; (ldr fp, [sp], #4)
   125a0:	e12fff1e 	bx	lr

000125a4 <add_free_fd>:
static int free_fd_table_index;
/* total number of fds */
static int num_fds = 256;

void add_free_fd(int fd)
{
   125a4:	e92d4800 	push	{fp, lr}
   125a8:	e28db004 	add	fp, sp, #4
   125ac:	e24dd008 	sub	sp, sp, #8
   125b0:	e50b0008 	str	r0, [fp, #-8]
    get_fd_struct(fd)->filetype = FILE_TYPE_FREE;
   125b4:	e51b0008 	ldr	r0, [fp, #-8]
   125b8:	eb000139 	bl	12aa4 <get_fd_struct>
   125bc:	e1a03000 	mov	r3, r0
   125c0:	e3e02000 	mvn	r2, #0
   125c4:	e5832000 	str	r2, [r3]
    free_fd_table_index++;
   125c8:	e3083064 	movw	r3, #32868	; 0x8064
   125cc:	e3403004 	movt	r3, #4
   125d0:	e5933000 	ldr	r3, [r3]
   125d4:	e2832001 	add	r2, r3, #1
   125d8:	e3083064 	movw	r3, #32868	; 0x8064
   125dc:	e3403004 	movt	r3, #4
   125e0:	e5832000 	str	r2, [r3]
    assert(free_fd_table_index < num_fds);
   125e4:	e3083064 	movw	r3, #32868	; 0x8064
   125e8:	e3403004 	movt	r3, #4
   125ec:	e5932000 	ldr	r2, [r3]
   125f0:	e30c3004 	movw	r3, #49156	; 0xc004
   125f4:	e3403002 	movt	r3, #2
   125f8:	e5933000 	ldr	r3, [r3]
   125fc:	e1520003 	cmp	r2, r3
   12600:	ba000007 	blt	12624 <add_free_fd+0x80>
   12604:	e3073900 	movw	r3, #30976	; 0x7900
   12608:	e3403002 	movt	r3, #2
   1260c:	e3a0203c 	mov	r2, #60	; 0x3c
   12610:	e30716ac 	movw	r1, #30380	; 0x76ac
   12614:	e3401002 	movt	r1, #2
   12618:	e307070c 	movw	r0, #30476	; 0x770c
   1261c:	e3400002 	movt	r0, #2
   12620:	eb002fd1 	bl	1e56c <__assert_fail>
    free_fd_table[free_fd_table_index] = fd;
   12624:	e3083060 	movw	r3, #32864	; 0x8060
   12628:	e3403004 	movt	r3, #4
   1262c:	e5932000 	ldr	r2, [r3]
   12630:	e3083064 	movw	r3, #32868	; 0x8064
   12634:	e3403004 	movt	r3, #4
   12638:	e5933000 	ldr	r3, [r3]
   1263c:	e1a03103 	lsl	r3, r3, #2
   12640:	e0823003 	add	r3, r2, r3
   12644:	e51b2008 	ldr	r2, [fp, #-8]
   12648:	e5832000 	str	r2, [r3]
}
   1264c:	e320f000 	nop	{0}
   12650:	e24bd004 	sub	sp, fp, #4
   12654:	e8bd8800 	pop	{fp, pc}

00012658 <get_free_fd>:

int get_free_fd(void)
{
   12658:	e52db004 	push	{fp}		; (str fp, [sp, #-4]!)
   1265c:	e28db000 	add	fp, sp, #0
    if (free_fd_table_index == -1) {
   12660:	e3083064 	movw	r3, #32868	; 0x8064
   12664:	e3403004 	movt	r3, #4
   12668:	e5933000 	ldr	r3, [r3]
   1266c:	e3730001 	cmn	r3, #1
   12670:	1a000001 	bne	1267c <get_free_fd+0x24>
        return -EMFILE;
   12674:	e3e03017 	mvn	r3, #23
   12678:	ea000010 	b	126c0 <get_free_fd+0x68>
    }

    free_fd_table_index--;
   1267c:	e3083064 	movw	r3, #32868	; 0x8064
   12680:	e3403004 	movt	r3, #4
   12684:	e5933000 	ldr	r3, [r3]
   12688:	e2432001 	sub	r2, r3, #1
   1268c:	e3083064 	movw	r3, #32868	; 0x8064
   12690:	e3403004 	movt	r3, #4
   12694:	e5832000 	str	r2, [r3]
    return free_fd_table[free_fd_table_index + 1];
   12698:	e3083060 	movw	r3, #32864	; 0x8060
   1269c:	e3403004 	movt	r3, #4
   126a0:	e5932000 	ldr	r2, [r3]
   126a4:	e3083064 	movw	r3, #32868	; 0x8064
   126a8:	e3403004 	movt	r3, #4
   126ac:	e5933000 	ldr	r3, [r3]
   126b0:	e2833001 	add	r3, r3, #1
   126b4:	e1a03103 	lsl	r3, r3, #2
   126b8:	e0823003 	add	r3, r2, r3
   126bc:	e5933000 	ldr	r3, [r3]
}
   126c0:	e1a00003 	mov	r0, r3
   126c4:	e28bd000 	add	sp, fp, #0
   126c8:	e49db004 	pop	{fp}		; (ldr fp, [sp], #4)
   126cc:	e12fff1e 	bx	lr

000126d0 <valid_fd>:

int valid_fd(int fd)
{
   126d0:	e52db004 	push	{fp}		; (str fp, [sp, #-4]!)
   126d4:	e28db000 	add	fp, sp, #0
   126d8:	e24dd00c 	sub	sp, sp, #12
   126dc:	e50b0008 	str	r0, [fp, #-8]
    return fd < num_fds && fd >= FIRST_USER_FD;
   126e0:	e30c3004 	movw	r3, #49156	; 0xc004
   126e4:	e3403002 	movt	r3, #2
   126e8:	e5933000 	ldr	r3, [r3]
   126ec:	e51b2008 	ldr	r2, [fp, #-8]
   126f0:	e1520003 	cmp	r2, r3
   126f4:	aa000004 	bge	1270c <valid_fd+0x3c>
   126f8:	e51b3008 	ldr	r3, [fp, #-8]
   126fc:	e3530002 	cmp	r3, #2
   12700:	da000001 	ble	1270c <valid_fd+0x3c>
   12704:	e3a03001 	mov	r3, #1
   12708:	ea000000 	b	12710 <valid_fd+0x40>
   1270c:	e3a03000 	mov	r3, #0
}
   12710:	e1a00003 	mov	r0, r3
   12714:	e28bd000 	add	sp, fp, #0
   12718:	e49db004 	pop	{fp}		; (ldr fp, [sp], #4)
   1271c:	e12fff1e 	bx	lr

00012720 <allocate_file_table>:

static int allocate_file_table(void)
{
   12720:	e92d4800 	push	{fp, lr}
   12724:	e28db004 	add	fp, sp, #4
   12728:	e24dd008 	sub	sp, sp, #8
    fd_table = malloc(FD_TABLE_SIZE(num_fds));
   1272c:	e30c3004 	movw	r3, #49156	; 0xc004
   12730:	e3403002 	movt	r3, #2
   12734:	e5933000 	ldr	r3, [r3]
   12738:	e1a03183 	lsl	r3, r3, #3
   1273c:	e1a00003 	mov	r0, r3
   12740:	eb003166 	bl	1ece0 <malloc>
   12744:	e1a03000 	mov	r3, r0
   12748:	e1a02003 	mov	r2, r3
   1274c:	e308305c 	movw	r3, #32860	; 0x805c
   12750:	e3403004 	movt	r3, #4
   12754:	e5832000 	str	r2, [r3]
    if (fd_table == NULL) {
   12758:	e308305c 	movw	r3, #32860	; 0x805c
   1275c:	e3403004 	movt	r3, #4
   12760:	e5933000 	ldr	r3, [r3]
   12764:	e3530000 	cmp	r3, #0
   12768:	1a000001 	bne	12774 <allocate_file_table+0x54>
        return -ENOMEM;
   1276c:	e3e0300b 	mvn	r3, #11
   12770:	ea00002a 	b	12820 <allocate_file_table+0x100>
    }

    free_fd_table = malloc(FREE_FD_TABLE_SIZE(num_fds));
   12774:	e30c3004 	movw	r3, #49156	; 0xc004
   12778:	e3403002 	movt	r3, #2
   1277c:	e5933000 	ldr	r3, [r3]
   12780:	e2433003 	sub	r3, r3, #3
   12784:	e1a03103 	lsl	r3, r3, #2
   12788:	e1a00003 	mov	r0, r3
   1278c:	eb003153 	bl	1ece0 <malloc>
   12790:	e1a03000 	mov	r3, r0
   12794:	e1a02003 	mov	r2, r3
   12798:	e3083060 	movw	r3, #32864	; 0x8060
   1279c:	e3403004 	movt	r3, #4
   127a0:	e5832000 	str	r2, [r3]
    if (free_fd_table == NULL) {
   127a4:	e3083060 	movw	r3, #32864	; 0x8060
   127a8:	e3403004 	movt	r3, #4
   127ac:	e5933000 	ldr	r3, [r3]
   127b0:	e3530000 	cmp	r3, #0
   127b4:	1a000006 	bne	127d4 <allocate_file_table+0xb4>
        free(fd_table);
   127b8:	e308305c 	movw	r3, #32860	; 0x805c
   127bc:	e3403004 	movt	r3, #4
   127c0:	e5933000 	ldr	r3, [r3]
   127c4:	e1a00003 	mov	r0, r3
   127c8:	eb0030a5 	bl	1ea64 <free>
        return -ENOMEM;
   127cc:	e3e0300b 	mvn	r3, #11
   127d0:	ea000012 	b	12820 <allocate_file_table+0x100>
    }

    free_fd_table_index = -1;
   127d4:	e3083064 	movw	r3, #32868	; 0x8064
   127d8:	e3403004 	movt	r3, #4
   127dc:	e3e02000 	mvn	r2, #0
   127e0:	e5832000 	str	r2, [r3]

    /* populate free list */
    for (int i = FIRST_USER_FD; i < num_fds; i++) {
   127e4:	e3a03003 	mov	r3, #3
   127e8:	e50b3008 	str	r3, [fp, #-8]
   127ec:	ea000004 	b	12804 <allocate_file_table+0xe4>
        add_free_fd(i);
   127f0:	e51b0008 	ldr	r0, [fp, #-8]
   127f4:	ebffff6a 	bl	125a4 <add_free_fd>
    for (int i = FIRST_USER_FD; i < num_fds; i++) {
   127f8:	e51b3008 	ldr	r3, [fp, #-8]
   127fc:	e2833001 	add	r3, r3, #1
   12800:	e50b3008 	str	r3, [fp, #-8]
   12804:	e30c3004 	movw	r3, #49156	; 0xc004
   12808:	e3403002 	movt	r3, #2
   1280c:	e5933000 	ldr	r3, [r3]
   12810:	e51b2008 	ldr	r2, [fp, #-8]
   12814:	e1520003 	cmp	r2, r3
   12818:	bafffff4 	blt	127f0 <allocate_file_table+0xd0>
    }

    return 0;
   1281c:	e3a03000 	mov	r3, #0
}
   12820:	e1a00003 	mov	r0, r3
   12824:	e24bd004 	sub	sp, fp, #4
   12828:	e8bd8800 	pop	{fp, pc}

0001282c <grow_fds>:

int grow_fds(int how_much)
{
   1282c:	e92d4800 	push	{fp, lr}
   12830:	e28db004 	add	fp, sp, #4
   12834:	e24dd020 	sub	sp, sp, #32
   12838:	e50b0018 	str	r0, [fp, #-24]	; 0xffffffe8
    int new_num_fds = num_fds + how_much;
   1283c:	e30c3004 	movw	r3, #49156	; 0xc004
   12840:	e3403002 	movt	r3, #2
   12844:	e5933000 	ldr	r3, [r3]
   12848:	e51b2018 	ldr	r2, [fp, #-24]	; 0xffffffe8
   1284c:	e0823003 	add	r3, r2, r3
   12850:	e50b300c 	str	r3, [fp, #-12]

    /* Ensure file table exists */
    if (fd_table == NULL) {
   12854:	e308305c 	movw	r3, #32860	; 0x805c
   12858:	e3403004 	movt	r3, #4
   1285c:	e5933000 	ldr	r3, [r3]
   12860:	e3530000 	cmp	r3, #0
   12864:	1a000005 	bne	12880 <grow_fds+0x54>
        if (allocate_file_table() == -ENOMEM) {
   12868:	ebffffac 	bl	12720 <allocate_file_table>
   1286c:	e1a03000 	mov	r3, r0
   12870:	e373000c 	cmn	r3, #12
   12874:	1a000001 	bne	12880 <grow_fds+0x54>
            return -ENOMEM;
   12878:	e3e0300b 	mvn	r3, #11
   1287c:	ea000074 	b	12a54 <grow_fds+0x228>
        }
    }

    /* allocate new arrays */
    muslcsys_fd_t *new_fd_table = malloc(FD_TABLE_SIZE(new_num_fds));
   12880:	e51b300c 	ldr	r3, [fp, #-12]
   12884:	e1a03183 	lsl	r3, r3, #3
   12888:	e1a00003 	mov	r0, r3
   1288c:	eb003113 	bl	1ece0 <malloc>
   12890:	e1a03000 	mov	r3, r0
   12894:	e50b3010 	str	r3, [fp, #-16]
    if (!new_fd_table) {
   12898:	e51b3010 	ldr	r3, [fp, #-16]
   1289c:	e3530000 	cmp	r3, #0
   128a0:	1a000012 	bne	128f0 <grow_fds+0xc4>
        LOG_ERROR("Failed to allocate new_vfds\n");
   128a4:	e3083104 	movw	r3, #33028	; 0x8104
   128a8:	e3403004 	movt	r3, #4
   128ac:	e5933000 	ldr	r3, [r3]
   128b0:	e3530005 	cmp	r3, #5
   128b4:	ca00000b 	bgt	128e8 <grow_fds+0xbc>
   128b8:	e307372c 	movw	r3, #30508	; 0x772c
   128bc:	e3403002 	movt	r3, #2
   128c0:	e58d3004 	str	r3, [sp, #4]
   128c4:	e3a03000 	mov	r3, #0
   128c8:	e58d3000 	str	r3, [sp]
   128cc:	e3a03005 	mov	r3, #5
   128d0:	e3a02074 	mov	r2, #116	; 0x74
   128d4:	e30716ac 	movw	r1, #30380	; 0x76ac
   128d8:	e3401002 	movt	r1, #2
   128dc:	e307090c 	movw	r0, #30988	; 0x790c
   128e0:	e3400002 	movt	r0, #2
   128e4:	eb002da7 	bl	1df88 <_zf_log_write_d>
        return -ENOMEM;
   128e8:	e3e0300b 	mvn	r3, #11
   128ec:	ea000058 	b	12a54 <grow_fds+0x228>
    }

    int *new_free_fd_table = malloc(FREE_FD_TABLE_SIZE(new_num_fds));
   128f0:	e51b300c 	ldr	r3, [fp, #-12]
   128f4:	e2433003 	sub	r3, r3, #3
   128f8:	e1a03103 	lsl	r3, r3, #2
   128fc:	e1a00003 	mov	r0, r3
   12900:	eb0030f6 	bl	1ece0 <malloc>
   12904:	e1a03000 	mov	r3, r0
   12908:	e50b3014 	str	r3, [fp, #-20]	; 0xffffffec
    if (!new_free_fd_table) {
   1290c:	e51b3014 	ldr	r3, [fp, #-20]	; 0xffffffec
   12910:	e3530000 	cmp	r3, #0
   12914:	1a000014 	bne	1296c <grow_fds+0x140>
        free(new_fd_table);
   12918:	e51b0010 	ldr	r0, [fp, #-16]
   1291c:	eb003050 	bl	1ea64 <free>
        ZF_LOGE("Failed to allocate free fd table\n");
   12920:	e3083104 	movw	r3, #33028	; 0x8104
   12924:	e3403004 	movt	r3, #4
   12928:	e5933000 	ldr	r3, [r3]
   1292c:	e3530005 	cmp	r3, #5
   12930:	ca00000b 	bgt	12964 <grow_fds+0x138>
   12934:	e307374c 	movw	r3, #30540	; 0x774c
   12938:	e3403002 	movt	r3, #2
   1293c:	e58d3004 	str	r3, [sp, #4]
   12940:	e3a03000 	mov	r3, #0
   12944:	e58d3000 	str	r3, [sp]
   12948:	e3a03005 	mov	r3, #5
   1294c:	e3a0207b 	mov	r2, #123	; 0x7b
   12950:	e30716ac 	movw	r1, #30380	; 0x76ac
   12954:	e3401002 	movt	r1, #2
   12958:	e307090c 	movw	r0, #30988	; 0x790c
   1295c:	e3400002 	movt	r0, #2
   12960:	eb002d88 	bl	1df88 <_zf_log_write_d>
        return -ENOMEM;
   12964:	e3e0300b 	mvn	r3, #11
   12968:	ea000039 	b	12a54 <grow_fds+0x228>
    }

    /* copy old contents */
    memcpy(new_free_fd_table, free_fd_table, FREE_FD_TABLE_SIZE(num_fds));
   1296c:	e3083060 	movw	r3, #32864	; 0x8060
   12970:	e3403004 	movt	r3, #4
   12974:	e5931000 	ldr	r1, [r3]
   12978:	e30c3004 	movw	r3, #49156	; 0xc004
   1297c:	e3403002 	movt	r3, #2
   12980:	e5933000 	ldr	r3, [r3]
   12984:	e2433003 	sub	r3, r3, #3
   12988:	e1a03103 	lsl	r3, r3, #2
   1298c:	e1a02003 	mov	r2, r3
   12990:	e51b0014 	ldr	r0, [fp, #-20]	; 0xffffffec
   12994:	eb003b8a 	bl	217c4 <memcpy>
    memcpy(new_fd_table, fd_table, FD_TABLE_SIZE(num_fds));
   12998:	e308305c 	movw	r3, #32860	; 0x805c
   1299c:	e3403004 	movt	r3, #4
   129a0:	e5931000 	ldr	r1, [r3]
   129a4:	e30c3004 	movw	r3, #49156	; 0xc004
   129a8:	e3403002 	movt	r3, #2
   129ac:	e5933000 	ldr	r3, [r3]
   129b0:	e1a03183 	lsl	r3, r3, #3
   129b4:	e1a02003 	mov	r2, r3
   129b8:	e51b0010 	ldr	r0, [fp, #-16]
   129bc:	eb003b80 	bl	217c4 <memcpy>

    /* free old tables */
    free(fd_table);
   129c0:	e308305c 	movw	r3, #32860	; 0x805c
   129c4:	e3403004 	movt	r3, #4
   129c8:	e5933000 	ldr	r3, [r3]
   129cc:	e1a00003 	mov	r0, r3
   129d0:	eb003023 	bl	1ea64 <free>
    free(free_fd_table);
   129d4:	e3083060 	movw	r3, #32864	; 0x8060
   129d8:	e3403004 	movt	r3, #4
   129dc:	e5933000 	ldr	r3, [r3]
   129e0:	e1a00003 	mov	r0, r3
   129e4:	eb00301e 	bl	1ea64 <free>

    /* update global pointers */
    fd_table = new_fd_table;
   129e8:	e308305c 	movw	r3, #32860	; 0x805c
   129ec:	e3403004 	movt	r3, #4
   129f0:	e51b2010 	ldr	r2, [fp, #-16]
   129f4:	e5832000 	str	r2, [r3]
    free_fd_table = new_free_fd_table;
   129f8:	e3083060 	movw	r3, #32864	; 0x8060
   129fc:	e3403004 	movt	r3, #4
   12a00:	e51b2014 	ldr	r2, [fp, #-20]	; 0xffffffec
   12a04:	e5832000 	str	r2, [r3]

    /* Update the size */
    num_fds = new_num_fds;
   12a08:	e30c3004 	movw	r3, #49156	; 0xc004
   12a0c:	e3403002 	movt	r3, #2
   12a10:	e51b200c 	ldr	r2, [fp, #-12]
   12a14:	e5832000 	str	r2, [r3]

    /* add all of the new available fds to the free list */
    for (int i = num_fds; i < new_num_fds; i++) {
   12a18:	e30c3004 	movw	r3, #49156	; 0xc004
   12a1c:	e3403002 	movt	r3, #2
   12a20:	e5933000 	ldr	r3, [r3]
   12a24:	e50b3008 	str	r3, [fp, #-8]
   12a28:	ea000004 	b	12a40 <grow_fds+0x214>
        add_free_fd(i);
   12a2c:	e51b0008 	ldr	r0, [fp, #-8]
   12a30:	ebfffedb 	bl	125a4 <add_free_fd>
    for (int i = num_fds; i < new_num_fds; i++) {
   12a34:	e51b3008 	ldr	r3, [fp, #-8]
   12a38:	e2833001 	add	r3, r3, #1
   12a3c:	e50b3008 	str	r3, [fp, #-8]
   12a40:	e51b2008 	ldr	r2, [fp, #-8]
   12a44:	e51b300c 	ldr	r3, [fp, #-12]
   12a48:	e1520003 	cmp	r2, r3
   12a4c:	bafffff6 	blt	12a2c <grow_fds+0x200>
    }
    return 0;
   12a50:	e3a03000 	mov	r3, #0
}
   12a54:	e1a00003 	mov	r0, r3
   12a58:	e24bd004 	sub	sp, fp, #4
   12a5c:	e8bd8800 	pop	{fp, pc}

00012a60 <allocate_fd>:

int allocate_fd()
{
   12a60:	e92d4800 	push	{fp, lr}
   12a64:	e28db004 	add	fp, sp, #4
    if (fd_table == NULL) {
   12a68:	e308305c 	movw	r3, #32860	; 0x805c
   12a6c:	e3403004 	movt	r3, #4
   12a70:	e5933000 	ldr	r3, [r3]
   12a74:	e3530000 	cmp	r3, #0
   12a78:	1a000005 	bne	12a94 <allocate_fd+0x34>
        if (allocate_file_table() == -ENOMEM) {
   12a7c:	ebffff27 	bl	12720 <allocate_file_table>
   12a80:	e1a03000 	mov	r3, r0
   12a84:	e373000c 	cmn	r3, #12
   12a88:	1a000001 	bne	12a94 <allocate_fd+0x34>
            return -ENOMEM;
   12a8c:	e3e0300b 	mvn	r3, #11
   12a90:	ea000001 	b	12a9c <allocate_fd+0x3c>
        }
    }

    return get_free_fd();
   12a94:	ebfffeef 	bl	12658 <get_free_fd>
   12a98:	e1a03000 	mov	r3, r0
}
   12a9c:	e1a00003 	mov	r0, r3
   12aa0:	e8bd8800 	pop	{fp, pc}

00012aa4 <get_fd_struct>:

muslcsys_fd_t *get_fd_struct(int fd)
{
   12aa4:	e92d4800 	push	{fp, lr}
   12aa8:	e28db004 	add	fp, sp, #4
   12aac:	e24dd008 	sub	sp, sp, #8
   12ab0:	e50b0008 	str	r0, [fp, #-8]
    assert(fd < num_fds && fd >= FIRST_USER_FD);
   12ab4:	e30c3004 	movw	r3, #49156	; 0xc004
   12ab8:	e3403002 	movt	r3, #2
   12abc:	e5933000 	ldr	r3, [r3]
   12ac0:	e51b2008 	ldr	r2, [fp, #-8]
   12ac4:	e1520003 	cmp	r2, r3
   12ac8:	aa000002 	bge	12ad8 <get_fd_struct+0x34>
   12acc:	e51b3008 	ldr	r3, [fp, #-8]
   12ad0:	e3530002 	cmp	r3, #2
   12ad4:	ca000007 	bgt	12af8 <get_fd_struct+0x54>
   12ad8:	e3073918 	movw	r3, #31000	; 0x7918
   12adc:	e3403002 	movt	r3, #2
   12ae0:	e3a020a2 	mov	r2, #162	; 0xa2
   12ae4:	e30716ac 	movw	r1, #30380	; 0x76ac
   12ae8:	e3401002 	movt	r1, #2
   12aec:	e3070770 	movw	r0, #30576	; 0x7770
   12af0:	e3400002 	movt	r0, #2
   12af4:	eb002e9c 	bl	1e56c <__assert_fail>
    return &fd_table[fd - FIRST_USER_FD];
   12af8:	e308305c 	movw	r3, #32860	; 0x805c
   12afc:	e3403004 	movt	r3, #4
   12b00:	e5932000 	ldr	r2, [r3]
   12b04:	e51b3008 	ldr	r3, [fp, #-8]
   12b08:	e243323e 	sub	r3, r3, #-536870909	; 0xe0000003
   12b0c:	e1a03183 	lsl	r3, r3, #3
   12b10:	e0823003 	add	r3, r2, r3
}
   12b14:	e1a00003 	mov	r0, r3
   12b18:	e24bd004 	sub	sp, fp, #4
   12b1c:	e8bd8800 	pop	{fp, pc}

00012b20 <sys_platform_write>:

static size_t sys_platform_write(void *data, size_t count)
{
   12b20:	e92d4800 	push	{fp, lr}
   12b24:	e28db004 	add	fp, sp, #4
   12b28:	e24dd010 	sub	sp, sp, #16
   12b2c:	e50b0010 	str	r0, [fp, #-16]
   12b30:	e50b1014 	str	r1, [fp, #-20]	; 0xffffffec
    char *realdata = data;
   12b34:	e51b3010 	ldr	r3, [fp, #-16]
   12b38:	e50b3008 	str	r3, [fp, #-8]
    return __arch_write(realdata, count);
   12b3c:	e51b1014 	ldr	r1, [fp, #-20]	; 0xffffffec
   12b40:	e51b0008 	ldr	r0, [fp, #-8]
   12b44:	eb000e61 	bl	164d0 <__arch_write>
   12b48:	e1a03000 	mov	r3, r0
}
   12b4c:	e1a00003 	mov	r0, r3
   12b50:	e24bd004 	sub	sp, fp, #4
   12b54:	e8bd8800 	pop	{fp, pc}

00012b58 <sys_open_impl>:

static long sys_open_impl(const char *pathname, int flags, mode_t mode)
{
   12b58:	e92d4810 	push	{r4, fp, lr}
   12b5c:	e28db008 	add	fp, sp, #8
   12b60:	e24dd03c 	sub	sp, sp, #60	; 0x3c
   12b64:	e50b0028 	str	r0, [fp, #-40]	; 0xffffffd8
   12b68:	e50b102c 	str	r1, [fp, #-44]	; 0xffffffd4
   12b6c:	e50b2030 	str	r2, [fp, #-48]	; 0xffffffd0
    /* mask out flags we can support */
    flags &= ~O_LARGEFILE;
   12b70:	e51b302c 	ldr	r3, [fp, #-44]	; 0xffffffd4
   12b74:	e3c33802 	bic	r3, r3, #131072	; 0x20000
   12b78:	e50b302c 	str	r3, [fp, #-44]	; 0xffffffd4
    /* only support reading in basic modes */
    if (flags != O_RDONLY) {
   12b7c:	e51b302c 	ldr	r3, [fp, #-44]	; 0xffffffd4
   12b80:	e3530000 	cmp	r3, #0
   12b84:	0a000021 	beq	12c10 <sys_open_impl+0xb8>
        ZF_LOGE("Open only supports O_RDONLY, not 0x%x on %s\n", flags, pathname);
   12b88:	e3083104 	movw	r3, #33028	; 0x8104
   12b8c:	e3403004 	movt	r3, #4
   12b90:	e5933000 	ldr	r3, [r3]
   12b94:	e3530005 	cmp	r3, #5
   12b98:	ca00000f 	bgt	12bdc <sys_open_impl+0x84>
   12b9c:	e51b3028 	ldr	r3, [fp, #-40]	; 0xffffffd8
   12ba0:	e58d300c 	str	r3, [sp, #12]
   12ba4:	e51b302c 	ldr	r3, [fp, #-44]	; 0xffffffd4
   12ba8:	e58d3008 	str	r3, [sp, #8]
   12bac:	e3073794 	movw	r3, #30612	; 0x7794
   12bb0:	e3403002 	movt	r3, #2
   12bb4:	e58d3004 	str	r3, [sp, #4]
   12bb8:	e3a03000 	mov	r3, #0
   12bbc:	e58d3000 	str	r3, [sp]
   12bc0:	e3a03005 	mov	r3, #5
   12bc4:	e3a020b2 	mov	r2, #178	; 0xb2
   12bc8:	e30716ac 	movw	r1, #30380	; 0x76ac
   12bcc:	e3401002 	movt	r1, #2
   12bd0:	e3070928 	movw	r0, #31016	; 0x7928
   12bd4:	e3400002 	movt	r0, #2
   12bd8:	eb002cea 	bl	1df88 <_zf_log_write_d>
        assert(flags == O_RDONLY);
   12bdc:	e51b302c 	ldr	r3, [fp, #-44]	; 0xffffffd4
   12be0:	e3530000 	cmp	r3, #0
   12be4:	0a000007 	beq	12c08 <sys_open_impl+0xb0>
   12be8:	e3073928 	movw	r3, #31016	; 0x7928
   12bec:	e3403002 	movt	r3, #2
   12bf0:	e3a020b3 	mov	r2, #179	; 0xb3
   12bf4:	e30716ac 	movw	r1, #30380	; 0x76ac
   12bf8:	e3401002 	movt	r1, #2
   12bfc:	e30707c4 	movw	r0, #30660	; 0x77c4
   12c00:	e3400002 	movt	r0, #2
   12c04:	eb002e58 	bl	1e56c <__assert_fail>
        return -EINVAL;
   12c08:	e3e03015 	mvn	r3, #21
   12c0c:	ea000094 	b	12e64 <sys_open_impl+0x30c>
    }
    /* as we do not support create, ignore the mode */
    long unsigned int size;
    char const *file = NULL;
   12c10:	e3a03000 	mov	r3, #0
   12c14:	e50b3010 	str	r3, [fp, #-16]
    if (cpio_get_file_impl && cpio_archive_symbol) {
   12c18:	e3083058 	movw	r3, #32856	; 0x8058
   12c1c:	e3403004 	movt	r3, #4
   12c20:	e5933000 	ldr	r3, [r3]
   12c24:	e3530000 	cmp	r3, #0
   12c28:	0a00002a 	beq	12cd8 <sys_open_impl+0x180>
   12c2c:	e3083050 	movw	r3, #32848	; 0x8050
   12c30:	e3403004 	movt	r3, #4
   12c34:	e5933000 	ldr	r3, [r3]
   12c38:	e3530000 	cmp	r3, #0
   12c3c:	0a000025 	beq	12cd8 <sys_open_impl+0x180>
        file = cpio_get_file_impl(cpio_archive_symbol, cpio_archive_len, pathname, &size);
   12c40:	e3083058 	movw	r3, #32856	; 0x8058
   12c44:	e3403004 	movt	r3, #4
   12c48:	e5934000 	ldr	r4, [r3]
   12c4c:	e3083050 	movw	r3, #32848	; 0x8050
   12c50:	e3403004 	movt	r3, #4
   12c54:	e5930000 	ldr	r0, [r3]
   12c58:	e3083054 	movw	r3, #32852	; 0x8054
   12c5c:	e3403004 	movt	r3, #4
   12c60:	e5931000 	ldr	r1, [r3]
   12c64:	e24b3020 	sub	r3, fp, #32
   12c68:	e51b2028 	ldr	r2, [fp, #-40]	; 0xffffffd8
   12c6c:	e12fff34 	blx	r4
   12c70:	e50b0010 	str	r0, [fp, #-16]
        if (!file && strncmp(pathname, "./", 2) == 0) {
   12c74:	e51b3010 	ldr	r3, [fp, #-16]
   12c78:	e3530000 	cmp	r3, #0
   12c7c:	1a000015 	bne	12cd8 <sys_open_impl+0x180>
   12c80:	e3a02002 	mov	r2, #2
   12c84:	e30717d8 	movw	r1, #30680	; 0x77d8
   12c88:	e3401002 	movt	r1, #2
   12c8c:	e51b0028 	ldr	r0, [fp, #-40]	; 0xffffffd8
   12c90:	eb003ca6 	bl	21f30 <strncmp>
   12c94:	e1a03000 	mov	r3, r0
   12c98:	e3530000 	cmp	r3, #0
   12c9c:	1a00000d 	bne	12cd8 <sys_open_impl+0x180>
            file = cpio_get_file_impl(cpio_archive_symbol, cpio_archive_len, pathname + 2, &size);
   12ca0:	e3083058 	movw	r3, #32856	; 0x8058
   12ca4:	e3403004 	movt	r3, #4
   12ca8:	e5934000 	ldr	r4, [r3]
   12cac:	e3083050 	movw	r3, #32848	; 0x8050
   12cb0:	e3403004 	movt	r3, #4
   12cb4:	e5930000 	ldr	r0, [r3]
   12cb8:	e3083054 	movw	r3, #32852	; 0x8054
   12cbc:	e3403004 	movt	r3, #4
   12cc0:	e5931000 	ldr	r1, [r3]
   12cc4:	e51b3028 	ldr	r3, [fp, #-40]	; 0xffffffd8
   12cc8:	e2832002 	add	r2, r3, #2
   12ccc:	e24b3020 	sub	r3, fp, #32
   12cd0:	e12fff34 	blx	r4
   12cd4:	e50b0010 	str	r0, [fp, #-16]
        }
    }
    if (!file) {
   12cd8:	e51b3010 	ldr	r3, [fp, #-16]
   12cdc:	e3530000 	cmp	r3, #0
   12ce0:	1a000014 	bne	12d38 <sys_open_impl+0x1e0>
        ZF_LOGE("Failed to open file %s\n", pathname);
   12ce4:	e3083104 	movw	r3, #33028	; 0x8104
   12ce8:	e3403004 	movt	r3, #4
   12cec:	e5933000 	ldr	r3, [r3]
   12cf0:	e3530005 	cmp	r3, #5
   12cf4:	ca00000d 	bgt	12d30 <sys_open_impl+0x1d8>
   12cf8:	e51b3028 	ldr	r3, [fp, #-40]	; 0xffffffd8
   12cfc:	e58d3008 	str	r3, [sp, #8]
   12d00:	e30737dc 	movw	r3, #30684	; 0x77dc
   12d04:	e3403002 	movt	r3, #2
   12d08:	e58d3004 	str	r3, [sp, #4]
   12d0c:	e3a03000 	mov	r3, #0
   12d10:	e58d3000 	str	r3, [sp]
   12d14:	e3a03005 	mov	r3, #5
   12d18:	e3a020c0 	mov	r2, #192	; 0xc0
   12d1c:	e30716ac 	movw	r1, #30380	; 0x76ac
   12d20:	e3401002 	movt	r1, #2
   12d24:	e3070928 	movw	r0, #31016	; 0x7928
   12d28:	e3400002 	movt	r0, #2
   12d2c:	eb002c95 	bl	1df88 <_zf_log_write_d>
        return -ENOENT;
   12d30:	e3e03001 	mvn	r3, #1
   12d34:	ea00004a 	b	12e64 <sys_open_impl+0x30c>
    }
    int fd = allocate_fd();
   12d38:	ebffff48 	bl	12a60 <allocate_fd>
   12d3c:	e50b0014 	str	r0, [fp, #-20]	; 0xffffffec
    if (fd == -EMFILE) {
   12d40:	e51b3014 	ldr	r3, [fp, #-20]	; 0xffffffec
   12d44:	e3730018 	cmn	r3, #24
   12d48:	1a000012 	bne	12d98 <sys_open_impl+0x240>
        ZF_LOGE("Out of fds!\n");
   12d4c:	e3083104 	movw	r3, #33028	; 0x8104
   12d50:	e3403004 	movt	r3, #4
   12d54:	e5933000 	ldr	r3, [r3]
   12d58:	e3530005 	cmp	r3, #5
   12d5c:	ca00000b 	bgt	12d90 <sys_open_impl+0x238>
   12d60:	e30737f4 	movw	r3, #30708	; 0x77f4
   12d64:	e3403002 	movt	r3, #2
   12d68:	e58d3004 	str	r3, [sp, #4]
   12d6c:	e3a03000 	mov	r3, #0
   12d70:	e58d3000 	str	r3, [sp]
   12d74:	e3a03005 	mov	r3, #5
   12d78:	e3a020c5 	mov	r2, #197	; 0xc5
   12d7c:	e30716ac 	movw	r1, #30380	; 0x76ac
   12d80:	e3401002 	movt	r1, #2
   12d84:	e3070928 	movw	r0, #31016	; 0x7928
   12d88:	e3400002 	movt	r0, #2
   12d8c:	eb002c7d 	bl	1df88 <_zf_log_write_d>
        return -EMFILE;
   12d90:	e3e03017 	mvn	r3, #23
   12d94:	ea000032 	b	12e64 <sys_open_impl+0x30c>
    }

    muslcsys_fd_t *fds = get_fd_struct(fd);
   12d98:	e51b0014 	ldr	r0, [fp, #-20]	; 0xffffffec
   12d9c:	ebffff40 	bl	12aa4 <get_fd_struct>
   12da0:	e50b0018 	str	r0, [fp, #-24]	; 0xffffffe8
    fds->filetype = FILE_TYPE_CPIO;
   12da4:	e51b3018 	ldr	r3, [fp, #-24]	; 0xffffffe8
   12da8:	e3a02000 	mov	r2, #0
   12dac:	e5832000 	str	r2, [r3]
    fds->data = malloc(sizeof(cpio_file_data_t));
   12db0:	e3a00010 	mov	r0, #16
   12db4:	eb002fc9 	bl	1ece0 <malloc>
   12db8:	e1a03000 	mov	r3, r0
   12dbc:	e1a02003 	mov	r2, r3
   12dc0:	e51b3018 	ldr	r3, [fp, #-24]	; 0xffffffe8
   12dc4:	e5832004 	str	r2, [r3, #4]
    if (!fds->data) {
   12dc8:	e51b3018 	ldr	r3, [fp, #-24]	; 0xffffffe8
   12dcc:	e5933004 	ldr	r3, [r3, #4]
   12dd0:	e3530000 	cmp	r3, #0
   12dd4:	1a000014 	bne	12e2c <sys_open_impl+0x2d4>
        ZF_LOGE("Malloc failed\n");
   12dd8:	e3083104 	movw	r3, #33028	; 0x8104
   12ddc:	e3403004 	movt	r3, #4
   12de0:	e5933000 	ldr	r3, [r3]
   12de4:	e3530005 	cmp	r3, #5
   12de8:	ca00000b 	bgt	12e1c <sys_open_impl+0x2c4>
   12dec:	e3073804 	movw	r3, #30724	; 0x7804
   12df0:	e3403002 	movt	r3, #2
   12df4:	e58d3004 	str	r3, [sp, #4]
   12df8:	e3a03000 	mov	r3, #0
   12dfc:	e58d3000 	str	r3, [sp]
   12e00:	e3a03005 	mov	r3, #5
   12e04:	e3a020cd 	mov	r2, #205	; 0xcd
   12e08:	e30716ac 	movw	r1, #30380	; 0x76ac
   12e0c:	e3401002 	movt	r1, #2
   12e10:	e3070928 	movw	r0, #31016	; 0x7928
   12e14:	e3400002 	movt	r0, #2
   12e18:	eb002c5a 	bl	1df88 <_zf_log_write_d>
        add_free_fd(fd);
   12e1c:	e51b0014 	ldr	r0, [fp, #-20]	; 0xffffffec
   12e20:	ebfffddf 	bl	125a4 <add_free_fd>
        return -ENOMEM;
   12e24:	e3e0300b 	mvn	r3, #11
   12e28:	ea00000d 	b	12e64 <sys_open_impl+0x30c>
    }
    cpio_file_data_t *fd_data = (cpio_file_data_t *)fds->data;
   12e2c:	e51b3018 	ldr	r3, [fp, #-24]	; 0xffffffe8
   12e30:	e5933004 	ldr	r3, [r3, #4]
   12e34:	e50b301c 	str	r3, [fp, #-28]	; 0xffffffe4
    fd_data->start = file;
   12e38:	e51b301c 	ldr	r3, [fp, #-28]	; 0xffffffe4
   12e3c:	e51b2010 	ldr	r2, [fp, #-16]
   12e40:	e5832000 	str	r2, [r3]
    fd_data->size = size;
   12e44:	e51b2020 	ldr	r2, [fp, #-32]	; 0xffffffe0
   12e48:	e51b301c 	ldr	r3, [fp, #-28]	; 0xffffffe4
   12e4c:	e5832004 	str	r2, [r3, #4]
    fd_data->current = 0;
   12e50:	e51b101c 	ldr	r1, [fp, #-28]	; 0xffffffe4
   12e54:	e3a02000 	mov	r2, #0
   12e58:	e3a03000 	mov	r3, #0
   12e5c:	e1c120f8 	strd	r2, [r1, #8]
    return fd;
   12e60:	e51b3014 	ldr	r3, [fp, #-20]	; 0xffffffec
}
   12e64:	e1a00003 	mov	r0, r3
   12e68:	e24bd008 	sub	sp, fp, #8
   12e6c:	e8bd8810 	pop	{r4, fp, pc}

00012e70 <sys_open>:

long sys_open(va_list ap)
{
   12e70:	e92d4800 	push	{fp, lr}
   12e74:	e28db004 	add	fp, sp, #4
   12e78:	e24dd018 	sub	sp, sp, #24
   12e7c:	e50b0018 	str	r0, [fp, #-24]	; 0xffffffe8
    const char *pathname = va_arg(ap, const char *);
   12e80:	e51b3018 	ldr	r3, [fp, #-24]	; 0xffffffe8
   12e84:	e2832004 	add	r2, r3, #4
   12e88:	e50b2018 	str	r2, [fp, #-24]	; 0xffffffe8
   12e8c:	e5933000 	ldr	r3, [r3]
   12e90:	e50b3008 	str	r3, [fp, #-8]
    int flags = va_arg(ap, int);
   12e94:	e51b3018 	ldr	r3, [fp, #-24]	; 0xffffffe8
   12e98:	e2832004 	add	r2, r3, #4
   12e9c:	e50b2018 	str	r2, [fp, #-24]	; 0xffffffe8
   12ea0:	e5933000 	ldr	r3, [r3]
   12ea4:	e50b300c 	str	r3, [fp, #-12]
    mode_t mode = va_arg(ap, mode_t);
   12ea8:	e51b3018 	ldr	r3, [fp, #-24]	; 0xffffffe8
   12eac:	e2832004 	add	r2, r3, #4
   12eb0:	e50b2018 	str	r2, [fp, #-24]	; 0xffffffe8
   12eb4:	e5933000 	ldr	r3, [r3]
   12eb8:	e50b3010 	str	r3, [fp, #-16]

    return sys_open_impl(pathname, flags, mode);
   12ebc:	e51b2010 	ldr	r2, [fp, #-16]
   12ec0:	e51b100c 	ldr	r1, [fp, #-12]
   12ec4:	e51b0008 	ldr	r0, [fp, #-8]
   12ec8:	ebffff22 	bl	12b58 <sys_open_impl>
   12ecc:	e1a03000 	mov	r3, r0
}
   12ed0:	e1a00003 	mov	r0, r3
   12ed4:	e24bd004 	sub	sp, fp, #4
   12ed8:	e8bd8800 	pop	{fp, pc}

00012edc <sys_openat>:

long sys_openat(va_list ap)
{
   12edc:	e92d4800 	push	{fp, lr}
   12ee0:	e28db004 	add	fp, sp, #4
   12ee4:	e24dd020 	sub	sp, sp, #32
   12ee8:	e50b0018 	str	r0, [fp, #-24]	; 0xffffffe8
    int dirfd = va_arg(ap, int);
   12eec:	e51b3018 	ldr	r3, [fp, #-24]	; 0xffffffe8
   12ef0:	e2832004 	add	r2, r3, #4
   12ef4:	e50b2018 	str	r2, [fp, #-24]	; 0xffffffe8
   12ef8:	e5933000 	ldr	r3, [r3]
   12efc:	e50b3008 	str	r3, [fp, #-8]
    const char *pathname = va_arg(ap, const char *);
   12f00:	e51b3018 	ldr	r3, [fp, #-24]	; 0xffffffe8
   12f04:	e2832004 	add	r2, r3, #4
   12f08:	e50b2018 	str	r2, [fp, #-24]	; 0xffffffe8
   12f0c:	e5933000 	ldr	r3, [r3]
   12f10:	e50b300c 	str	r3, [fp, #-12]
    int flags = va_arg(ap, int);
   12f14:	e51b3018 	ldr	r3, [fp, #-24]	; 0xffffffe8
   12f18:	e2832004 	add	r2, r3, #4
   12f1c:	e50b2018 	str	r2, [fp, #-24]	; 0xffffffe8
   12f20:	e5933000 	ldr	r3, [r3]
   12f24:	e50b3010 	str	r3, [fp, #-16]
    mode_t mode = va_arg(ap, mode_t);
   12f28:	e51b3018 	ldr	r3, [fp, #-24]	; 0xffffffe8
   12f2c:	e2832004 	add	r2, r3, #4
   12f30:	e50b2018 	str	r2, [fp, #-24]	; 0xffffffe8
   12f34:	e5933000 	ldr	r3, [r3]
   12f38:	e50b3014 	str	r3, [fp, #-20]	; 0xffffffec

    if (dirfd != AT_FDCWD) {
   12f3c:	e51b3008 	ldr	r3, [fp, #-8]
   12f40:	e3730064 	cmn	r3, #100	; 0x64
   12f44:	0a000012 	beq	12f94 <sys_openat+0xb8>
        ZF_LOGE("Openat only supports relative path to the current working directory\n");
   12f48:	e3083104 	movw	r3, #33028	; 0x8104
   12f4c:	e3403004 	movt	r3, #4
   12f50:	e5933000 	ldr	r3, [r3]
   12f54:	e3530005 	cmp	r3, #5
   12f58:	ca00000b 	bgt	12f8c <sys_openat+0xb0>
   12f5c:	e3073814 	movw	r3, #30740	; 0x7814
   12f60:	e3403002 	movt	r3, #2
   12f64:	e58d3004 	str	r3, [sp, #4]
   12f68:	e3a03000 	mov	r3, #0
   12f6c:	e58d3000 	str	r3, [sp]
   12f70:	e3a03005 	mov	r3, #5
   12f74:	e3a020e9 	mov	r2, #233	; 0xe9
   12f78:	e30716ac 	movw	r1, #30380	; 0x76ac
   12f7c:	e3401002 	movt	r1, #2
   12f80:	e3070938 	movw	r0, #31032	; 0x7938
   12f84:	e3400002 	movt	r0, #2
   12f88:	eb002bfe 	bl	1df88 <_zf_log_write_d>
        return -EINVAL;
   12f8c:	e3e03015 	mvn	r3, #21
   12f90:	ea000004 	b	12fa8 <sys_openat+0xcc>
    }

    return sys_open_impl(pathname, flags, mode);
   12f94:	e51b2014 	ldr	r2, [fp, #-20]	; 0xffffffec
   12f98:	e51b1010 	ldr	r1, [fp, #-16]
   12f9c:	e51b000c 	ldr	r0, [fp, #-12]
   12fa0:	ebfffeec 	bl	12b58 <sys_open_impl>
   12fa4:	e1a03000 	mov	r3, r0
}
   12fa8:	e1a00003 	mov	r0, r3
   12fac:	e24bd004 	sub	sp, fp, #4
   12fb0:	e8bd8800 	pop	{fp, pc}

00012fb4 <sys_close>:

long sys_close(va_list ap)
{
   12fb4:	e92d4800 	push	{fp, lr}
   12fb8:	e28db004 	add	fp, sp, #4
   12fbc:	e24dd010 	sub	sp, sp, #16
   12fc0:	e50b0010 	str	r0, [fp, #-16]
    int fd = va_arg(ap, int);
   12fc4:	e51b3010 	ldr	r3, [fp, #-16]
   12fc8:	e2832004 	add	r2, r3, #4
   12fcc:	e50b2010 	str	r2, [fp, #-16]
   12fd0:	e5933000 	ldr	r3, [r3]
   12fd4:	e50b3008 	str	r3, [fp, #-8]
    if (fd < FIRST_USER_FD) {
   12fd8:	e51b3008 	ldr	r3, [fp, #-8]
   12fdc:	e3530002 	cmp	r3, #2
   12fe0:	ca000007 	bgt	13004 <sys_close+0x50>
        assert(!"not implemented");
   12fe4:	e3073944 	movw	r3, #31044	; 0x7944
   12fe8:	e3403002 	movt	r3, #2
   12fec:	e3a020f4 	mov	r2, #244	; 0xf4
   12ff0:	e30716ac 	movw	r1, #30380	; 0x76ac
   12ff4:	e3401002 	movt	r1, #2
   12ff8:	e307085c 	movw	r0, #30812	; 0x785c
   12ffc:	e3400002 	movt	r0, #2
   13000:	eb002d59 	bl	1e56c <__assert_fail>
        return -EBADF;
    }

    if (!valid_fd(fd)) {
   13004:	e51b0008 	ldr	r0, [fp, #-8]
   13008:	ebfffdb0 	bl	126d0 <valid_fd>
   1300c:	e1a03000 	mov	r3, r0
   13010:	e3530000 	cmp	r3, #0
   13014:	1a000001 	bne	13020 <sys_close+0x6c>
        return -EBADF;
   13018:	e3e03008 	mvn	r3, #8
   1301c:	ea00000d 	b	13058 <sys_close+0xa4>
    }

    muslcsys_fd_t *fds = get_fd_struct(fd);
   13020:	e51b0008 	ldr	r0, [fp, #-8]
   13024:	ebfffe9e 	bl	12aa4 <get_fd_struct>
   13028:	e50b000c 	str	r0, [fp, #-12]

    if (fds->filetype == FILE_TYPE_CPIO) {
   1302c:	e51b300c 	ldr	r3, [fp, #-12]
   13030:	e5933000 	ldr	r3, [r3]
   13034:	e3530000 	cmp	r3, #0
   13038:	1a000003 	bne	1304c <sys_close+0x98>
        free(fds->data);
   1303c:	e51b300c 	ldr	r3, [fp, #-12]
   13040:	e5933004 	ldr	r3, [r3, #4]
   13044:	e1a00003 	mov	r0, r3
   13048:	eb002e85 	bl	1ea64 <free>
    }
    add_free_fd(fd);
   1304c:	e51b0008 	ldr	r0, [fp, #-8]
   13050:	ebfffd53 	bl	125a4 <add_free_fd>
    return 0;
   13054:	e3a03000 	mov	r3, #0
}
   13058:	e1a00003 	mov	r0, r3
   1305c:	e24bd004 	sub	sp, fp, #4
   13060:	e8bd8800 	pop	{fp, pc}

00013064 <sel4muslcsys_register_stdio_write_fn>:


static write_buf_fn stdio_write = sys_platform_write;

write_buf_fn sel4muslcsys_register_stdio_write_fn(write_buf_fn write_fn)
{
   13064:	e52db004 	push	{fp}		; (str fp, [sp, #-4]!)
   13068:	e28db000 	add	fp, sp, #0
   1306c:	e24dd014 	sub	sp, sp, #20
   13070:	e50b0010 	str	r0, [fp, #-16]
    write_buf_fn old = stdio_write;
   13074:	e30c3008 	movw	r3, #49160	; 0xc008
   13078:	e3403002 	movt	r3, #2
   1307c:	e5933000 	ldr	r3, [r3]
   13080:	e50b3008 	str	r3, [fp, #-8]
    stdio_write = write_fn;
   13084:	e30c3008 	movw	r3, #49160	; 0xc008
   13088:	e3403002 	movt	r3, #2
   1308c:	e51b2010 	ldr	r2, [fp, #-16]
   13090:	e5832000 	str	r2, [r3]
    return old;
   13094:	e51b3008 	ldr	r3, [fp, #-8]
}
   13098:	e1a00003 	mov	r0, r3
   1309c:	e28bd000 	add	sp, fp, #0
   130a0:	e49db004 	pop	{fp}		; (ldr fp, [sp], #4)
   130a4:	e12fff1e 	bx	lr

000130a8 <sys_writev>:


/* Writev syscall implementation for muslc. Only implemented for stdin and stdout. */
long sys_writev(va_list ap)
{
   130a8:	e92d4830 	push	{r4, r5, fp, lr}
   130ac:	e28db00c 	add	fp, sp, #12
   130b0:	e24dd028 	sub	sp, sp, #40	; 0x28
   130b4:	e50b0030 	str	r0, [fp, #-48]	; 0xffffffd0
    int fildes = va_arg(ap, int);
   130b8:	e51b3030 	ldr	r3, [fp, #-48]	; 0xffffffd0
   130bc:	e2832004 	add	r2, r3, #4
   130c0:	e50b2030 	str	r2, [fp, #-48]	; 0xffffffd0
   130c4:	e5933000 	ldr	r3, [r3]
   130c8:	e50b3024 	str	r3, [fp, #-36]	; 0xffffffdc
    struct iovec *iov = va_arg(ap, struct iovec *);
   130cc:	e51b3030 	ldr	r3, [fp, #-48]	; 0xffffffd0
   130d0:	e2832004 	add	r2, r3, #4
   130d4:	e50b2030 	str	r2, [fp, #-48]	; 0xffffffd0
   130d8:	e5933000 	ldr	r3, [r3]
   130dc:	e50b3028 	str	r3, [fp, #-40]	; 0xffffffd8
    int iovcnt = va_arg(ap, int);
   130e0:	e51b3030 	ldr	r3, [fp, #-48]	; 0xffffffd0
   130e4:	e2832004 	add	r2, r3, #4
   130e8:	e50b2030 	str	r2, [fp, #-48]	; 0xffffffd0
   130ec:	e5933000 	ldr	r3, [r3]
   130f0:	e50b302c 	str	r3, [fp, #-44]	; 0xffffffd4

    long long sum = 0;
   130f4:	e3a02000 	mov	r2, #0
   130f8:	e3a03000 	mov	r3, #0
   130fc:	e14b21f4 	strd	r2, [fp, #-20]	; 0xffffffec
    ssize_t ret = 0;
   13100:	e3a03000 	mov	r3, #0
   13104:	e50b3018 	str	r3, [fp, #-24]	; 0xffffffe8

    /* The iovcnt argument is valid if greater than 0 and less than or equal to IOV_MAX. */
    if (iovcnt <= 0 || iovcnt > IOV_MAX) {
   13108:	e51b302c 	ldr	r3, [fp, #-44]	; 0xffffffd4
   1310c:	e3530000 	cmp	r3, #0
   13110:	da000002 	ble	13120 <sys_writev+0x78>
   13114:	e51b302c 	ldr	r3, [fp, #-44]	; 0xffffffd4
   13118:	e3530b01 	cmp	r3, #1024	; 0x400
   1311c:	da000001 	ble	13128 <sys_writev+0x80>
        return -EINVAL;
   13120:	e3e03015 	mvn	r3, #21
   13124:	ea00005c 	b	1329c <sys_writev+0x1f4>
    }

    /* The sum of iov_len is valid if less than or equal to SSIZE_MAX i.e. cannot overflow
       a ssize_t. */
    for (int i = 0; i < iovcnt; i++) {
   13128:	e3a03000 	mov	r3, #0
   1312c:	e50b301c 	str	r3, [fp, #-28]	; 0xffffffe4
   13130:	ea000015 	b	1318c <sys_writev+0xe4>
        sum += (long long)iov[i].iov_len;
   13134:	e51b301c 	ldr	r3, [fp, #-28]	; 0xffffffe4
   13138:	e1a03183 	lsl	r3, r3, #3
   1313c:	e51b2028 	ldr	r2, [fp, #-40]	; 0xffffffd8
   13140:	e0823003 	add	r3, r2, r3
   13144:	e5933004 	ldr	r3, [r3, #4]
   13148:	e1a02003 	mov	r2, r3
   1314c:	e3a03000 	mov	r3, #0
   13150:	e14b01d4 	ldrd	r0, [fp, #-20]	; 0xffffffec
   13154:	e0904002 	adds	r4, r0, r2
   13158:	e0a15003 	adc	r5, r1, r3
   1315c:	e14b41f4 	strd	r4, [fp, #-20]	; 0xffffffec
        if (sum > SSIZE_MAX) {
   13160:	e14b21d4 	ldrd	r2, [fp, #-20]	; 0xffffffec
   13164:	e3e00102 	mvn	r0, #-2147483648	; 0x80000000
   13168:	e3a01000 	mov	r1, #0
   1316c:	e1500002 	cmp	r0, r2
   13170:	e0d13003 	sbcs	r3, r1, r3
   13174:	aa000001 	bge	13180 <sys_writev+0xd8>
            return -EINVAL;
   13178:	e3e03015 	mvn	r3, #21
   1317c:	ea000046 	b	1329c <sys_writev+0x1f4>
    for (int i = 0; i < iovcnt; i++) {
   13180:	e51b301c 	ldr	r3, [fp, #-28]	; 0xffffffe4
   13184:	e2833001 	add	r3, r3, #1
   13188:	e50b301c 	str	r3, [fp, #-28]	; 0xffffffe4
   1318c:	e51b201c 	ldr	r2, [fp, #-28]	; 0xffffffe4
   13190:	e51b302c 	ldr	r3, [fp, #-44]	; 0xffffffd4
   13194:	e1520003 	cmp	r2, r3
   13198:	baffffe5 	blt	13134 <sys_writev+0x8c>
        }
    }

    /* If all the iov_len members in the array are 0, return 0. */
    if (!sum) {
   1319c:	e14b21d4 	ldrd	r2, [fp, #-20]	; 0xffffffec
   131a0:	e1923003 	orrs	r3, r2, r3
   131a4:	1a000001 	bne	131b0 <sys_writev+0x108>
        return 0;
   131a8:	e3a03000 	mov	r3, #0
   131ac:	ea00003a 	b	1329c <sys_writev+0x1f4>
    }

    /* Write the buffer to console if the fd is for stdout or stderr. */
    if (fildes == STDOUT_FILENO || fildes == STDERR_FILENO) {
   131b0:	e51b3024 	ldr	r3, [fp, #-36]	; 0xffffffdc
   131b4:	e3530001 	cmp	r3, #1
   131b8:	0a000002 	beq	131c8 <sys_writev+0x120>
   131bc:	e51b3024 	ldr	r3, [fp, #-36]	; 0xffffffdc
   131c0:	e3530002 	cmp	r3, #2
   131c4:	1a00002b 	bne	13278 <sys_writev+0x1d0>
        if (stdio_write == NULL) {
            ZF_LOGD("No standard out function registered");
        }
        for (int i = 0; i < iovcnt; i++) {
   131c8:	e3a03000 	mov	r3, #0
   131cc:	e50b3020 	str	r3, [fp, #-32]	; 0xffffffe0
   131d0:	ea000023 	b	13264 <sys_writev+0x1bc>
            if (stdio_write == NULL) {
   131d4:	e30c3008 	movw	r3, #49160	; 0xc008
   131d8:	e3403002 	movt	r3, #2
   131dc:	e5933000 	ldr	r3, [r3]
   131e0:	e3530000 	cmp	r3, #0
   131e4:	1a000008 	bne	1320c <sys_writev+0x164>
                ret += iov[i].iov_len;
   131e8:	e51b3020 	ldr	r3, [fp, #-32]	; 0xffffffe0
   131ec:	e1a03183 	lsl	r3, r3, #3
   131f0:	e51b2028 	ldr	r2, [fp, #-40]	; 0xffffffd8
   131f4:	e0823003 	add	r3, r2, r3
   131f8:	e5932004 	ldr	r2, [r3, #4]
   131fc:	e51b3018 	ldr	r3, [fp, #-24]	; 0xffffffe8
   13200:	e0823003 	add	r3, r2, r3
   13204:	e50b3018 	str	r3, [fp, #-24]	; 0xffffffe8
   13208:	ea000012 	b	13258 <sys_writev+0x1b0>
            } else {
                ret += stdio_write(iov[i].iov_base, iov[i].iov_len);
   1320c:	e30c3008 	movw	r3, #49160	; 0xc008
   13210:	e3403002 	movt	r3, #2
   13214:	e5933000 	ldr	r3, [r3]
   13218:	e51b2020 	ldr	r2, [fp, #-32]	; 0xffffffe0
   1321c:	e1a02182 	lsl	r2, r2, #3
   13220:	e51b1028 	ldr	r1, [fp, #-40]	; 0xffffffd8
   13224:	e0812002 	add	r2, r1, r2
   13228:	e5920000 	ldr	r0, [r2]
   1322c:	e51b2020 	ldr	r2, [fp, #-32]	; 0xffffffe0
   13230:	e1a02182 	lsl	r2, r2, #3
   13234:	e51b1028 	ldr	r1, [fp, #-40]	; 0xffffffd8
   13238:	e0812002 	add	r2, r1, r2
   1323c:	e5922004 	ldr	r2, [r2, #4]
   13240:	e1a01002 	mov	r1, r2
   13244:	e12fff33 	blx	r3
   13248:	e1a02000 	mov	r2, r0
   1324c:	e51b3018 	ldr	r3, [fp, #-24]	; 0xffffffe8
   13250:	e0823003 	add	r3, r2, r3
   13254:	e50b3018 	str	r3, [fp, #-24]	; 0xffffffe8
        for (int i = 0; i < iovcnt; i++) {
   13258:	e51b3020 	ldr	r3, [fp, #-32]	; 0xffffffe0
   1325c:	e2833001 	add	r3, r3, #1
   13260:	e50b3020 	str	r3, [fp, #-32]	; 0xffffffe0
   13264:	e51b2020 	ldr	r2, [fp, #-32]	; 0xffffffe0
   13268:	e51b302c 	ldr	r3, [fp, #-44]	; 0xffffffd4
   1326c:	e1520003 	cmp	r2, r3
   13270:	baffffd7 	blt	131d4 <sys_writev+0x12c>
   13274:	ea000007 	b	13298 <sys_writev+0x1f0>
            }
        }
    } else {
        assert(!"Not implemented");
   13278:	e3073950 	movw	r3, #31056	; 0x7950
   1327c:	e3403002 	movt	r3, #2
   13280:	e300213a 	movw	r2, #314	; 0x13a
   13284:	e30716ac 	movw	r1, #30380	; 0x76ac
   13288:	e3401002 	movt	r1, #2
   1328c:	e3070870 	movw	r0, #30832	; 0x7870
   13290:	e3400002 	movt	r0, #2
   13294:	eb002cb4 	bl	1e56c <__assert_fail>
        return -EBADF;
    }

    return ret;
   13298:	e51b3018 	ldr	r3, [fp, #-24]	; 0xffffffe8
}
   1329c:	e1a00003 	mov	r0, r3
   132a0:	e24bd00c 	sub	sp, fp, #12
   132a4:	e8bd8830 	pop	{r4, r5, fp, pc}

000132a8 <sys_write>:

long sys_write(va_list ap)
{
   132a8:	e92d4800 	push	{fp, lr}
   132ac:	e28db004 	add	fp, sp, #4
   132b0:	e24dd020 	sub	sp, sp, #32
   132b4:	e50b0020 	str	r0, [fp, #-32]	; 0xffffffe0

    int fd = va_arg(ap, int);
   132b8:	e51b3020 	ldr	r3, [fp, #-32]	; 0xffffffe0
   132bc:	e2832004 	add	r2, r3, #4
   132c0:	e50b2020 	str	r2, [fp, #-32]	; 0xffffffe0
   132c4:	e5933000 	ldr	r3, [r3]
   132c8:	e50b3008 	str	r3, [fp, #-8]
    void *buf = va_arg(ap, void *);
   132cc:	e51b3020 	ldr	r3, [fp, #-32]	; 0xffffffe0
   132d0:	e2832004 	add	r2, r3, #4
   132d4:	e50b2020 	str	r2, [fp, #-32]	; 0xffffffe0
   132d8:	e5933000 	ldr	r3, [r3]
   132dc:	e50b300c 	str	r3, [fp, #-12]
    size_t count = va_arg(ap, size_t);
   132e0:	e51b3020 	ldr	r3, [fp, #-32]	; 0xffffffe0
   132e4:	e2832004 	add	r2, r3, #4
   132e8:	e50b2020 	str	r2, [fp, #-32]	; 0xffffffe0
   132ec:	e5933000 	ldr	r3, [r3]
   132f0:	e50b3010 	str	r3, [fp, #-16]
    /* construct an iovec and call writev */
    struct iovec iov = {.iov_base = buf, .iov_len = count };
   132f4:	e51b300c 	ldr	r3, [fp, #-12]
   132f8:	e50b3018 	str	r3, [fp, #-24]	; 0xffffffe8
   132fc:	e51b3010 	ldr	r3, [fp, #-16]
   13300:	e50b3014 	str	r3, [fp, #-20]	; 0xffffffec
    return writev(fd, &iov, 1);
   13304:	e24b3018 	sub	r3, fp, #24
   13308:	e3a02001 	mov	r2, #1
   1330c:	e1a01003 	mov	r1, r3
   13310:	e51b0008 	ldr	r0, [fp, #-8]
   13314:	eb003bc2 	bl	22224 <writev>
   13318:	e1a03000 	mov	r3, r0
}
   1331c:	e1a00003 	mov	r0, r3
   13320:	e24bd004 	sub	sp, fp, #4
   13324:	e8bd8800 	pop	{fp, pc}

00013328 <sys_readv>:

long sys_readv(va_list ap)
{
   13328:	e92d4830 	push	{r4, r5, fp, lr}
   1332c:	e28db00c 	add	fp, sp, #12
   13330:	e24dd030 	sub	sp, sp, #48	; 0x30
   13334:	e50b0038 	str	r0, [fp, #-56]	; 0xffffffc8
    int fd = va_arg(ap, int);
   13338:	e51b3038 	ldr	r3, [fp, #-56]	; 0xffffffc8
   1333c:	e2832004 	add	r2, r3, #4
   13340:	e50b2038 	str	r2, [fp, #-56]	; 0xffffffc8
   13344:	e5933000 	ldr	r3, [r3]
   13348:	e50b3018 	str	r3, [fp, #-24]	; 0xffffffe8
    struct iovec *iov = va_arg(ap, struct iovec *);
   1334c:	e51b3038 	ldr	r3, [fp, #-56]	; 0xffffffc8
   13350:	e2832004 	add	r2, r3, #4
   13354:	e50b2038 	str	r2, [fp, #-56]	; 0xffffffc8
   13358:	e5933000 	ldr	r3, [r3]
   1335c:	e50b301c 	str	r3, [fp, #-28]	; 0xffffffe4
    int iovcnt = va_arg(ap, int);
   13360:	e51b3038 	ldr	r3, [fp, #-56]	; 0xffffffc8
   13364:	e2832004 	add	r2, r3, #4
   13368:	e50b2038 	str	r2, [fp, #-56]	; 0xffffffc8
   1336c:	e5933000 	ldr	r3, [r3]
   13370:	e50b3020 	str	r3, [fp, #-32]	; 0xffffffe0
    int i;
    long read;
    if (fd < FIRST_USER_FD) {
   13374:	e51b3018 	ldr	r3, [fp, #-24]	; 0xffffffe8
   13378:	e3530002 	cmp	r3, #2
   1337c:	ca000007 	bgt	133a0 <sys_readv+0x78>
        assert(!"not implemented");
   13380:	e307395c 	movw	r3, #31068	; 0x795c
   13384:	e3403002 	movt	r3, #2
   13388:	e3a02f55 	mov	r2, #340	; 0x154
   1338c:	e30716ac 	movw	r1, #30380	; 0x76ac
   13390:	e3401002 	movt	r1, #2
   13394:	e307085c 	movw	r0, #30812	; 0x785c
   13398:	e3400002 	movt	r0, #2
   1339c:	eb002c72 	bl	1e56c <__assert_fail>
        return -EBADF;
    }

    if (!valid_fd(fd)) {
   133a0:	e51b0018 	ldr	r0, [fp, #-24]	; 0xffffffe8
   133a4:	ebfffcc9 	bl	126d0 <valid_fd>
   133a8:	e1a03000 	mov	r3, r0
   133ac:	e3530000 	cmp	r3, #0
   133b0:	1a000001 	bne	133bc <sys_readv+0x94>
        return -EBADF;
   133b4:	e3e03008 	mvn	r3, #8
   133b8:	ea000053 	b	1350c <sys_readv+0x1e4>
    }

    /* files can only be opened for reading so no need to check any permissions.
     * just get straight into it
     */
    muslcsys_fd_t *muslc_fd = get_fd_struct(fd);
   133bc:	e51b0018 	ldr	r0, [fp, #-24]	; 0xffffffe8
   133c0:	ebfffdb7 	bl	12aa4 <get_fd_struct>
   133c4:	e50b0024 	str	r0, [fp, #-36]	; 0xffffffdc
    if (muslc_fd->filetype != FILE_TYPE_CPIO) {
   133c8:	e51b3024 	ldr	r3, [fp, #-36]	; 0xffffffdc
   133cc:	e5933000 	ldr	r3, [r3]
   133d0:	e3530000 	cmp	r3, #0
   133d4:	0a000007 	beq	133f8 <sys_readv+0xd0>
        assert(!"not implemented");
   133d8:	e307395c 	movw	r3, #31068	; 0x795c
   133dc:	e3403002 	movt	r3, #2
   133e0:	e3002161 	movw	r2, #353	; 0x161
   133e4:	e30716ac 	movw	r1, #30380	; 0x76ac
   133e8:	e3401002 	movt	r1, #2
   133ec:	e307085c 	movw	r0, #30812	; 0x785c
   133f0:	e3400002 	movt	r0, #2
   133f4:	eb002c5c 	bl	1e56c <__assert_fail>
        return -EINVAL;
    }
    cpio_file_data_t *cpio_fd = muslc_fd->data;
   133f8:	e51b3024 	ldr	r3, [fp, #-36]	; 0xffffffdc
   133fc:	e5933004 	ldr	r3, [r3, #4]
   13400:	e50b3028 	str	r3, [fp, #-40]	; 0xffffffd8
    read = 0;
   13404:	e3a03000 	mov	r3, #0
   13408:	e50b3014 	str	r3, [fp, #-20]	; 0xffffffec
    for (i = 0; i < iovcnt && cpio_fd->current < cpio_fd->size; i++) {
   1340c:	e3a03000 	mov	r3, #0
   13410:	e50b3010 	str	r3, [fp, #-16]
   13414:	ea00002e 	b	134d4 <sys_readv+0x1ac>
        long max = cpio_fd->size - cpio_fd->current;
   13418:	e51b3028 	ldr	r3, [fp, #-40]	; 0xffffffd8
   1341c:	e5931004 	ldr	r1, [r3, #4]
   13420:	e51b3028 	ldr	r3, [fp, #-40]	; 0xffffffd8
   13424:	e1c320d8 	ldrd	r2, [r3, #8]
   13428:	e1a03002 	mov	r3, r2
   1342c:	e0413003 	sub	r3, r1, r3
   13430:	e50b302c 	str	r3, [fp, #-44]	; 0xffffffd4
        long len = max < iov[i].iov_len ? max : iov[i].iov_len;
   13434:	e51b3010 	ldr	r3, [fp, #-16]
   13438:	e1a03183 	lsl	r3, r3, #3
   1343c:	e51b201c 	ldr	r2, [fp, #-28]	; 0xffffffe4
   13440:	e0823003 	add	r3, r2, r3
   13444:	e5932004 	ldr	r2, [r3, #4]
   13448:	e51b302c 	ldr	r3, [fp, #-44]	; 0xffffffd4
   1344c:	e1520003 	cmp	r2, r3
   13450:	31a03002 	movcc	r3, r2
   13454:	21a03003 	movcs	r3, r3
   13458:	e50b3030 	str	r3, [fp, #-48]	; 0xffffffd0
        memcpy(iov[i].iov_base, cpio_fd->start + cpio_fd->current, len);
   1345c:	e51b3010 	ldr	r3, [fp, #-16]
   13460:	e1a03183 	lsl	r3, r3, #3
   13464:	e51b201c 	ldr	r2, [fp, #-28]	; 0xffffffe4
   13468:	e0823003 	add	r3, r2, r3
   1346c:	e5930000 	ldr	r0, [r3]
   13470:	e51b3028 	ldr	r3, [fp, #-40]	; 0xffffffd8
   13474:	e5931000 	ldr	r1, [r3]
   13478:	e51b3028 	ldr	r3, [fp, #-40]	; 0xffffffd8
   1347c:	e1c320d8 	ldrd	r2, [r3, #8]
   13480:	e1a03002 	mov	r3, r2
   13484:	e0813003 	add	r3, r1, r3
   13488:	e51b2030 	ldr	r2, [fp, #-48]	; 0xffffffd0
   1348c:	e1a01003 	mov	r1, r3
   13490:	eb0038cb 	bl	217c4 <memcpy>
        cpio_fd->current += len;
   13494:	e51b3028 	ldr	r3, [fp, #-40]	; 0xffffffd8
   13498:	e1c300d8 	ldrd	r0, [r3, #8]
   1349c:	e51b3030 	ldr	r3, [fp, #-48]	; 0xffffffd0
   134a0:	e1a02003 	mov	r2, r3
   134a4:	e1a03fc2 	asr	r3, r2, #31
   134a8:	e0904002 	adds	r4, r0, r2
   134ac:	e0a15003 	adc	r5, r1, r3
   134b0:	e51b3028 	ldr	r3, [fp, #-40]	; 0xffffffd8
   134b4:	e1c340f8 	strd	r4, [r3, #8]
        read += len;
   134b8:	e51b2014 	ldr	r2, [fp, #-20]	; 0xffffffec
   134bc:	e51b3030 	ldr	r3, [fp, #-48]	; 0xffffffd0
   134c0:	e0823003 	add	r3, r2, r3
   134c4:	e50b3014 	str	r3, [fp, #-20]	; 0xffffffec
    for (i = 0; i < iovcnt && cpio_fd->current < cpio_fd->size; i++) {
   134c8:	e51b3010 	ldr	r3, [fp, #-16]
   134cc:	e2833001 	add	r3, r3, #1
   134d0:	e50b3010 	str	r3, [fp, #-16]
   134d4:	e51b2010 	ldr	r2, [fp, #-16]
   134d8:	e51b3020 	ldr	r3, [fp, #-32]	; 0xffffffe0
   134dc:	e1520003 	cmp	r2, r3
   134e0:	aa000008 	bge	13508 <sys_readv+0x1e0>
   134e4:	e51b3028 	ldr	r3, [fp, #-40]	; 0xffffffd8
   134e8:	e1c300d8 	ldrd	r0, [r3, #8]
   134ec:	e51b3028 	ldr	r3, [fp, #-40]	; 0xffffffd8
   134f0:	e5933004 	ldr	r3, [r3, #4]
   134f4:	e1a02003 	mov	r2, r3
   134f8:	e3a03000 	mov	r3, #0
   134fc:	e1500002 	cmp	r0, r2
   13500:	e0d13003 	sbcs	r3, r1, r3
   13504:	baffffc3 	blt	13418 <sys_readv+0xf0>
    }
    return read;
   13508:	e51b3014 	ldr	r3, [fp, #-20]	; 0xffffffec
}
   1350c:	e1a00003 	mov	r0, r3
   13510:	e24bd00c 	sub	sp, fp, #12
   13514:	e8bd8830 	pop	{r4, r5, fp, pc}

00013518 <sys_read>:

long sys_read(va_list ap)
{
   13518:	e92d4800 	push	{fp, lr}
   1351c:	e28db004 	add	fp, sp, #4
   13520:	e24dd020 	sub	sp, sp, #32
   13524:	e50b0020 	str	r0, [fp, #-32]	; 0xffffffe0
    int fd = va_arg(ap, int);
   13528:	e51b3020 	ldr	r3, [fp, #-32]	; 0xffffffe0
   1352c:	e2832004 	add	r2, r3, #4
   13530:	e50b2020 	str	r2, [fp, #-32]	; 0xffffffe0
   13534:	e5933000 	ldr	r3, [r3]
   13538:	e50b3008 	str	r3, [fp, #-8]
    void *buf = va_arg(ap, void *);
   1353c:	e51b3020 	ldr	r3, [fp, #-32]	; 0xffffffe0
   13540:	e2832004 	add	r2, r3, #4
   13544:	e50b2020 	str	r2, [fp, #-32]	; 0xffffffe0
   13548:	e5933000 	ldr	r3, [r3]
   1354c:	e50b300c 	str	r3, [fp, #-12]
    size_t count = va_arg(ap, size_t);
   13550:	e51b3020 	ldr	r3, [fp, #-32]	; 0xffffffe0
   13554:	e2832004 	add	r2, r3, #4
   13558:	e50b2020 	str	r2, [fp, #-32]	; 0xffffffe0
   1355c:	e5933000 	ldr	r3, [r3]
   13560:	e50b3010 	str	r3, [fp, #-16]
    /* construct an iovec and call readv */
    struct iovec iov = {.iov_base = buf, .iov_len = count };
   13564:	e51b300c 	ldr	r3, [fp, #-12]
   13568:	e50b3018 	str	r3, [fp, #-24]	; 0xffffffe8
   1356c:	e51b3010 	ldr	r3, [fp, #-16]
   13570:	e50b3014 	str	r3, [fp, #-20]	; 0xffffffec
    return readv(fd, &iov, 1);
   13574:	e24b3018 	sub	r3, fp, #24
   13578:	e3a02001 	mov	r2, #1
   1357c:	e1a01003 	mov	r1, r3
   13580:	e51b0008 	ldr	r0, [fp, #-8]
   13584:	eb003b19 	bl	221f0 <readv>
   13588:	e1a03000 	mov	r3, r0
}
   1358c:	e1a00003 	mov	r0, r3
   13590:	e24bd004 	sub	sp, fp, #4
   13594:	e8bd8800 	pop	{fp, pc}

00013598 <sys_ioctl>:

long sys_ioctl(va_list ap)
{
   13598:	e92d4800 	push	{fp, lr}
   1359c:	e28db004 	add	fp, sp, #4
   135a0:	e24dd010 	sub	sp, sp, #16
   135a4:	e50b0010 	str	r0, [fp, #-16]
    int fd = va_arg(ap, int);
   135a8:	e51b3010 	ldr	r3, [fp, #-16]
   135ac:	e2832004 	add	r2, r3, #4
   135b0:	e50b2010 	str	r2, [fp, #-16]
   135b4:	e5933000 	ldr	r3, [r3]
   135b8:	e50b3008 	str	r3, [fp, #-8]
    int request = va_arg(ap, int);
   135bc:	e51b3010 	ldr	r3, [fp, #-16]
   135c0:	e2832004 	add	r2, r3, #4
   135c4:	e50b2010 	str	r2, [fp, #-16]
   135c8:	e5933000 	ldr	r3, [r3]
   135cc:	e50b300c 	str	r3, [fp, #-12]
    (void)request;
    /* muslc does some ioctls to stdout, so just allow these to silently
       go through */
    if (fd == STDOUT_FILENO) {
   135d0:	e51b3008 	ldr	r3, [fp, #-8]
   135d4:	e3530001 	cmp	r3, #1
   135d8:	1a000001 	bne	135e4 <sys_ioctl+0x4c>
        return 0;
   135dc:	e3a03000 	mov	r3, #0
   135e0:	ea000007 	b	13604 <sys_ioctl+0x6c>
    }
    assert(!"not implemented");
   135e4:	e3073968 	movw	r3, #31080	; 0x7968
   135e8:	e3403002 	movt	r3, #2
   135ec:	e3a02f61 	mov	r2, #388	; 0x184
   135f0:	e30716ac 	movw	r1, #30380	; 0x76ac
   135f4:	e3401002 	movt	r1, #2
   135f8:	e307085c 	movw	r0, #30812	; 0x785c
   135fc:	e3400002 	movt	r0, #2
   13600:	eb002bd9 	bl	1e56c <__assert_fail>
    return 0;
}
   13604:	e1a00003 	mov	r0, r3
   13608:	e24bd004 	sub	sp, fp, #4
   1360c:	e8bd8800 	pop	{fp, pc}

00013610 <sys_prlimit64>:

long sys_prlimit64(va_list ap)
{
   13610:	e92d4800 	push	{fp, lr}
   13614:	e28db004 	add	fp, sp, #4
   13618:	e24dd020 	sub	sp, sp, #32
   1361c:	e50b0020 	str	r0, [fp, #-32]	; 0xffffffe0
    pid_t pid = va_arg(ap, pid_t);
   13620:	e51b3020 	ldr	r3, [fp, #-32]	; 0xffffffe0
   13624:	e2832004 	add	r2, r3, #4
   13628:	e50b2020 	str	r2, [fp, #-32]	; 0xffffffe0
   1362c:	e5933000 	ldr	r3, [r3]
   13630:	e50b300c 	str	r3, [fp, #-12]
    int resource = va_arg(ap, int);
   13634:	e51b3020 	ldr	r3, [fp, #-32]	; 0xffffffe0
   13638:	e2832004 	add	r2, r3, #4
   1363c:	e50b2020 	str	r2, [fp, #-32]	; 0xffffffe0
   13640:	e5933000 	ldr	r3, [r3]
   13644:	e50b3010 	str	r3, [fp, #-16]
    const struct rlimit *new_limit = va_arg(ap, const struct rlimit *);
   13648:	e51b3020 	ldr	r3, [fp, #-32]	; 0xffffffe0
   1364c:	e2832004 	add	r2, r3, #4
   13650:	e50b2020 	str	r2, [fp, #-32]	; 0xffffffe0
   13654:	e5933000 	ldr	r3, [r3]
   13658:	e50b3014 	str	r3, [fp, #-20]	; 0xffffffec
    struct rlimit *old_limit = va_arg(ap, struct rlimit *);
   1365c:	e51b3020 	ldr	r3, [fp, #-32]	; 0xffffffe0
   13660:	e2832004 	add	r2, r3, #4
   13664:	e50b2020 	str	r2, [fp, #-32]	; 0xffffffe0
   13668:	e5933000 	ldr	r3, [r3]
   1366c:	e50b3018 	str	r3, [fp, #-24]	; 0xffffffe8
    int result = 0;
   13670:	e3a03000 	mov	r3, #0
   13674:	e50b3008 	str	r3, [fp, #-8]

    /* we have no concept of pids, so ignore this for now */
    (void) pid;

    if (resource == RLIMIT_NOFILE) {
   13678:	e51b3010 	ldr	r3, [fp, #-16]
   1367c:	e3530007 	cmp	r3, #7
   13680:	1a000028 	bne	13728 <sys_prlimit64+0x118>
        if (old_limit) {
   13684:	e51b3018 	ldr	r3, [fp, #-24]	; 0xffffffe8
   13688:	e3530000 	cmp	r3, #0
   1368c:	0a00000a 	beq	136bc <sys_prlimit64+0xac>
            old_limit->rlim_cur = num_fds;
   13690:	e30c3004 	movw	r3, #49156	; 0xc004
   13694:	e3403002 	movt	r3, #2
   13698:	e5933000 	ldr	r3, [r3]
   1369c:	e1a02003 	mov	r2, r3
   136a0:	e1a03fc2 	asr	r3, r2, #31
   136a4:	e51b1018 	ldr	r1, [fp, #-24]	; 0xffffffe8
   136a8:	e1c120f0 	strd	r2, [r1]
            /* pick some arbitrarily big number for max. In practice we are only constrained
             * by how large an array we can malloc */
            old_limit->rlim_max = 65536;
   136ac:	e51b1018 	ldr	r1, [fp, #-24]	; 0xffffffe8
   136b0:	e3a02801 	mov	r2, #65536	; 0x10000
   136b4:	e3a03000 	mov	r3, #0
   136b8:	e1c120f8 	strd	r2, [r1, #8]
        }

        if (new_limit) {
   136bc:	e51b3014 	ldr	r3, [fp, #-20]	; 0xffffffec
   136c0:	e3530000 	cmp	r3, #0
   136c4:	0a00001f 	beq	13748 <sys_prlimit64+0x138>
            if (new_limit->rlim_cur < num_fds) {
   136c8:	e51b3014 	ldr	r3, [fp, #-20]	; 0xffffffec
   136cc:	e1c300d0 	ldrd	r0, [r3]
   136d0:	e30c3004 	movw	r3, #49156	; 0xc004
   136d4:	e3403002 	movt	r3, #2
   136d8:	e5933000 	ldr	r3, [r3]
   136dc:	e1a02003 	mov	r2, r3
   136e0:	e1a03fc2 	asr	r3, r2, #31
   136e4:	e1510003 	cmp	r1, r3
   136e8:	01500002 	cmpeq	r0, r2
   136ec:	2a000003 	bcs	13700 <sys_prlimit64+0xf0>
                printf("Trying to reduce open file limit. Operation not supported, ignoring\n");
   136f0:	e3070884 	movw	r0, #30852	; 0x7884
   136f4:	e3400002 	movt	r0, #2
   136f8:	eb003050 	bl	1f840 <puts>
   136fc:	ea000011 	b	13748 <sys_prlimit64+0x138>
            } else {
                result = grow_fds(new_limit->rlim_cur - num_fds);
   13700:	e51b3014 	ldr	r3, [fp, #-20]	; 0xffffffec
   13704:	e1c320d0 	ldrd	r2, [r3]
   13708:	e30c3004 	movw	r3, #49156	; 0xc004
   1370c:	e3403002 	movt	r3, #2
   13710:	e5933000 	ldr	r3, [r3]
   13714:	e0423003 	sub	r3, r2, r3
   13718:	e1a00003 	mov	r0, r3
   1371c:	ebfffc42 	bl	1282c <grow_fds>
   13720:	e50b0008 	str	r0, [fp, #-8]
   13724:	ea000007 	b	13748 <sys_prlimit64+0x138>
            }
        }
    } else {
        assert(!"not implemented");
   13728:	e3073974 	movw	r3, #31092	; 0x7974
   1372c:	e3403002 	movt	r3, #2
   13730:	e30021a3 	movw	r2, #419	; 0x1a3
   13734:	e30716ac 	movw	r1, #30380	; 0x76ac
   13738:	e3401002 	movt	r1, #2
   1373c:	e307085c 	movw	r0, #30812	; 0x785c
   13740:	e3400002 	movt	r0, #2
   13744:	eb002b88 	bl	1e56c <__assert_fail>
    }

    return result;
   13748:	e51b3008 	ldr	r3, [fp, #-8]
}
   1374c:	e1a00003 	mov	r0, r3
   13750:	e24bd004 	sub	sp, fp, #4
   13754:	e8bd8800 	pop	{fp, pc}

00013758 <safe_addition>:

static int safe_addition(int a, int b)
{
   13758:	e52db004 	push	{fp}		; (str fp, [sp, #-4]!)
   1375c:	e28db000 	add	fp, sp, #0
   13760:	e24dd00c 	sub	sp, sp, #12
   13764:	e50b0008 	str	r0, [fp, #-8]
   13768:	e50b100c 	str	r1, [fp, #-12]
    return !(a >= 0 && b > INT_MAX - a) &&
   1376c:	e51b3008 	ldr	r3, [fp, #-8]
   13770:	e3530000 	cmp	r3, #0
   13774:	ba000006 	blt	13794 <safe_addition+0x3c>
   13778:	e51b2008 	ldr	r2, [fp, #-8]
   1377c:	e30f3fff 	movw	r3, #65535	; 0xffff
   13780:	e3473fff 	movt	r3, #32767	; 0x7fff
   13784:	e0433002 	sub	r3, r3, r2
   13788:	e51b200c 	ldr	r2, [fp, #-12]
   1378c:	e1520003 	cmp	r2, r3
   13790:	ca00000b 	bgt	137c4 <safe_addition+0x6c>
   13794:	e51b3008 	ldr	r3, [fp, #-8]
   13798:	e3530000 	cmp	r3, #0
   1379c:	aa000006 	bge	137bc <safe_addition+0x64>
           !(a < 0 && b < INT_MAX - a);
   137a0:	e51b2008 	ldr	r2, [fp, #-8]
   137a4:	e30f3fff 	movw	r3, #65535	; 0xffff
   137a8:	e3473fff 	movt	r3, #32767	; 0x7fff
   137ac:	e0433002 	sub	r3, r3, r2
   137b0:	e51b200c 	ldr	r2, [fp, #-12]
   137b4:	e1520003 	cmp	r2, r3
   137b8:	ba000001 	blt	137c4 <safe_addition+0x6c>
    return !(a >= 0 && b > INT_MAX - a) &&
   137bc:	e3a03001 	mov	r3, #1
   137c0:	ea000000 	b	137c8 <safe_addition+0x70>
   137c4:	e3a03000 	mov	r3, #0
}
   137c8:	e1a00003 	mov	r0, r3
   137cc:	e28bd000 	add	sp, fp, #0
   137d0:	e49db004 	pop	{fp}		; (ldr fp, [sp], #4)
   137d4:	e12fff1e 	bx	lr

000137d8 <sys_lseek>:

long sys_lseek(va_list ap)
{
   137d8:	e92d4800 	push	{fp, lr}
   137dc:	e28db004 	add	fp, sp, #4
   137e0:	e24dd028 	sub	sp, sp, #40	; 0x28
   137e4:	e50b0028 	str	r0, [fp, #-40]	; 0xffffffd8
    int fd = va_arg(ap, int);
   137e8:	e51b3028 	ldr	r3, [fp, #-40]	; 0xffffffd8
   137ec:	e2832004 	add	r2, r3, #4
   137f0:	e50b2028 	str	r2, [fp, #-40]	; 0xffffffd8
   137f4:	e5933000 	ldr	r3, [r3]
   137f8:	e50b300c 	str	r3, [fp, #-12]
    off_t offset = va_arg(ap, off_t);
   137fc:	e51b3028 	ldr	r3, [fp, #-40]	; 0xffffffd8
   13800:	e2833007 	add	r3, r3, #7
   13804:	e3c33007 	bic	r3, r3, #7
   13808:	e2832008 	add	r2, r3, #8
   1380c:	e50b2028 	str	r2, [fp, #-40]	; 0xffffffd8
   13810:	e1c320d0 	ldrd	r2, [r3]
   13814:	e14b21f4 	strd	r2, [fp, #-20]	; 0xffffffec
    int whence = va_arg(ap, int);
   13818:	e51b3028 	ldr	r3, [fp, #-40]	; 0xffffffd8
   1381c:	e2832004 	add	r2, r3, #4
   13820:	e50b2028 	str	r2, [fp, #-40]	; 0xffffffd8
   13824:	e5933000 	ldr	r3, [r3]
   13828:	e50b3018 	str	r3, [fp, #-24]	; 0xffffffe8

    if (!valid_fd(fd)) {
   1382c:	e51b000c 	ldr	r0, [fp, #-12]
   13830:	ebfffba6 	bl	126d0 <valid_fd>
   13834:	e1a03000 	mov	r3, r0
   13838:	e3530000 	cmp	r3, #0
   1383c:	1a000001 	bne	13848 <sys_lseek+0x70>
        return -EBADF;
   13840:	e3e03008 	mvn	r3, #8
   13844:	ea000059 	b	139b0 <sys_lseek+0x1d8>
    }

    muslcsys_fd_t *muslc_fd = get_fd_struct(fd);
   13848:	e51b000c 	ldr	r0, [fp, #-12]
   1384c:	ebfffc94 	bl	12aa4 <get_fd_struct>
   13850:	e50b001c 	str	r0, [fp, #-28]	; 0xffffffe4
    if (muslc_fd == NULL) {
   13854:	e51b301c 	ldr	r3, [fp, #-28]	; 0xffffffe4
   13858:	e3530000 	cmp	r3, #0
   1385c:	1a000001 	bne	13868 <sys_lseek+0x90>
        return -EBADF;
   13860:	e3e03008 	mvn	r3, #8
   13864:	ea000051 	b	139b0 <sys_lseek+0x1d8>
    }

    if (muslc_fd->filetype != FILE_TYPE_CPIO) {
   13868:	e51b301c 	ldr	r3, [fp, #-28]	; 0xffffffe4
   1386c:	e5933000 	ldr	r3, [r3]
   13870:	e3530000 	cmp	r3, #0
   13874:	0a000007 	beq	13898 <sys_lseek+0xc0>
        assert(!"Not implemented\n");
   13878:	e3073984 	movw	r3, #31108	; 0x7984
   1387c:	e3403002 	movt	r3, #2
   13880:	e30021bf 	movw	r2, #447	; 0x1bf
   13884:	e30716ac 	movw	r1, #30380	; 0x76ac
   13888:	e3401002 	movt	r1, #2
   1388c:	e30708c8 	movw	r0, #30920	; 0x78c8
   13890:	e3400002 	movt	r0, #2
   13894:	eb002b34 	bl	1e56c <__assert_fail>
        return -EBADF;
    }

    /* if its a valid fd it must be a cpio file, we
     * don't support anything else */
    cpio_file_data_t *cpio_fd = muslc_fd->data;
   13898:	e51b301c 	ldr	r3, [fp, #-28]	; 0xffffffe4
   1389c:	e5933004 	ldr	r3, [r3, #4]
   138a0:	e50b3020 	str	r3, [fp, #-32]	; 0xffffffe0

    int new_offset = 0;
   138a4:	e3a03000 	mov	r3, #0
   138a8:	e50b3008 	str	r3, [fp, #-8]
    switch (whence) {
   138ac:	e51b3018 	ldr	r3, [fp, #-24]	; 0xffffffe8
   138b0:	e3530002 	cmp	r3, #2
   138b4:	0a00001d 	beq	13930 <sys_lseek+0x158>
   138b8:	e51b3018 	ldr	r3, [fp, #-24]	; 0xffffffe8
   138bc:	e3530002 	cmp	r3, #2
   138c0:	ca000026 	bgt	13960 <sys_lseek+0x188>
   138c4:	e51b3018 	ldr	r3, [fp, #-24]	; 0xffffffe8
   138c8:	e3530000 	cmp	r3, #0
   138cc:	0a000003 	beq	138e0 <sys_lseek+0x108>
   138d0:	e51b3018 	ldr	r3, [fp, #-24]	; 0xffffffe8
   138d4:	e3530001 	cmp	r3, #1
   138d8:	0a000003 	beq	138ec <sys_lseek+0x114>
   138dc:	ea00001f 	b	13960 <sys_lseek+0x188>
    case SEEK_SET:
        new_offset = offset;
   138e0:	e51b3014 	ldr	r3, [fp, #-20]	; 0xffffffec
   138e4:	e50b3008 	str	r3, [fp, #-8]
        break;
   138e8:	ea00001e 	b	13968 <sys_lseek+0x190>
    case SEEK_CUR:
        if (!safe_addition(cpio_fd->current, offset)) {
   138ec:	e51b3020 	ldr	r3, [fp, #-32]	; 0xffffffe0
   138f0:	e1c320d8 	ldrd	r2, [r3, #8]
   138f4:	e51b3014 	ldr	r3, [fp, #-20]	; 0xffffffec
   138f8:	e1a01003 	mov	r1, r3
   138fc:	e1a00002 	mov	r0, r2
   13900:	ebffff94 	bl	13758 <safe_addition>
   13904:	e1a03000 	mov	r3, r0
   13908:	e3530000 	cmp	r3, #0
   1390c:	1a000001 	bne	13918 <sys_lseek+0x140>
            return -EOVERFLOW;
   13910:	e3e0304a 	mvn	r3, #74	; 0x4a
   13914:	ea000025 	b	139b0 <sys_lseek+0x1d8>
        }
        new_offset = cpio_fd->current + offset;
   13918:	e51b3020 	ldr	r3, [fp, #-32]	; 0xffffffe0
   1391c:	e1c320d8 	ldrd	r2, [r3, #8]
   13920:	e51b3014 	ldr	r3, [fp, #-20]	; 0xffffffec
   13924:	e0823003 	add	r3, r2, r3
   13928:	e50b3008 	str	r3, [fp, #-8]
        break;
   1392c:	ea00000d 	b	13968 <sys_lseek+0x190>
    case SEEK_END:
        if (offset > 0) {
   13930:	e14b21d4 	ldrd	r2, [fp, #-20]	; 0xffffffec
   13934:	e3520001 	cmp	r2, #1
   13938:	e2d33000 	sbcs	r3, r3, #0
   1393c:	ba000001 	blt	13948 <sys_lseek+0x170>
            /* can't seek beyond the end of the cpio file */
            return -EINVAL;
   13940:	e3e03015 	mvn	r3, #21
   13944:	ea000019 	b	139b0 <sys_lseek+0x1d8>
        }
        new_offset = cpio_fd->size + offset;
   13948:	e51b3020 	ldr	r3, [fp, #-32]	; 0xffffffe0
   1394c:	e5932004 	ldr	r2, [r3, #4]
   13950:	e51b3014 	ldr	r3, [fp, #-20]	; 0xffffffec
   13954:	e0823003 	add	r3, r2, r3
   13958:	e50b3008 	str	r3, [fp, #-8]
        break;
   1395c:	ea000001 	b	13968 <sys_lseek+0x190>
    default:
        return -EINVAL;
   13960:	e3e03015 	mvn	r3, #21
   13964:	ea000011 	b	139b0 <sys_lseek+0x1d8>
    }

    if (new_offset < 0) {
   13968:	e51b3008 	ldr	r3, [fp, #-8]
   1396c:	e3530000 	cmp	r3, #0
   13970:	aa000001 	bge	1397c <sys_lseek+0x1a4>
        return -EINVAL;
   13974:	e3e03015 	mvn	r3, #21
   13978:	ea00000c 	b	139b0 <sys_lseek+0x1d8>
        /* can't seek past the end of the cpio file */
    } else if (new_offset > cpio_fd->size) {
   1397c:	e51b3020 	ldr	r3, [fp, #-32]	; 0xffffffe0
   13980:	e5932004 	ldr	r2, [r3, #4]
   13984:	e51b3008 	ldr	r3, [fp, #-8]
   13988:	e1520003 	cmp	r2, r3
   1398c:	2a000001 	bcs	13998 <sys_lseek+0x1c0>
        return -EINVAL;
   13990:	e3e03015 	mvn	r3, #21
   13994:	ea000005 	b	139b0 <sys_lseek+0x1d8>
    }

    cpio_fd->current = new_offset;
   13998:	e51b3008 	ldr	r3, [fp, #-8]
   1399c:	e1a02003 	mov	r2, r3
   139a0:	e1a03fc2 	asr	r3, r2, #31
   139a4:	e51b1020 	ldr	r1, [fp, #-32]	; 0xffffffe0
   139a8:	e1c120f8 	strd	r2, [r1, #8]

    return new_offset;
   139ac:	e51b3008 	ldr	r3, [fp, #-8]
}
   139b0:	e1a00003 	mov	r0, r3
   139b4:	e24bd004 	sub	sp, fp, #4
   139b8:	e8bd8800 	pop	{fp, pc}

000139bc <sys__llseek>:

long syscall(long n, ...);

long sys__llseek(va_list ap)
{
   139bc:	e92d4800 	push	{fp, lr}
   139c0:	e28db004 	add	fp, sp, #4
   139c4:	e24dd028 	sub	sp, sp, #40	; 0x28
   139c8:	e50b0020 	str	r0, [fp, #-32]	; 0xffffffe0
    int fd = va_arg(ap, int);
   139cc:	e51b3020 	ldr	r3, [fp, #-32]	; 0xffffffe0
   139d0:	e2832004 	add	r2, r3, #4
   139d4:	e50b2020 	str	r2, [fp, #-32]	; 0xffffffe0
   139d8:	e5933000 	ldr	r3, [r3]
   139dc:	e50b3008 	str	r3, [fp, #-8]
    uint32_t offset_high = va_arg(ap, uint32_t);
   139e0:	e51b3020 	ldr	r3, [fp, #-32]	; 0xffffffe0
   139e4:	e2832004 	add	r2, r3, #4
   139e8:	e50b2020 	str	r2, [fp, #-32]	; 0xffffffe0
   139ec:	e5933000 	ldr	r3, [r3]
   139f0:	e50b300c 	str	r3, [fp, #-12]
    uint32_t offset_low = va_arg(ap, uint32_t);
   139f4:	e51b3020 	ldr	r3, [fp, #-32]	; 0xffffffe0
   139f8:	e2832004 	add	r2, r3, #4
   139fc:	e50b2020 	str	r2, [fp, #-32]	; 0xffffffe0
   13a00:	e5933000 	ldr	r3, [r3]
   13a04:	e50b3010 	str	r3, [fp, #-16]
    off_t *result = va_arg(ap, off_t *);
   13a08:	e51b3020 	ldr	r3, [fp, #-32]	; 0xffffffe0
   13a0c:	e2832004 	add	r2, r3, #4
   13a10:	e50b2020 	str	r2, [fp, #-32]	; 0xffffffe0
   13a14:	e5933000 	ldr	r3, [r3]
   13a18:	e50b3014 	str	r3, [fp, #-20]	; 0xffffffec
    int whence = va_arg(ap, int);
   13a1c:	e51b3020 	ldr	r3, [fp, #-32]	; 0xffffffe0
   13a20:	e2832004 	add	r2, r3, #4
   13a24:	e50b2020 	str	r2, [fp, #-32]	; 0xffffffe0
   13a28:	e5933000 	ldr	r3, [r3]
   13a2c:	e50b3018 	str	r3, [fp, #-24]	; 0xffffffe8
     * hood all syscall arguments get cast to a 32bit long before the actual syscall function
     * gets called. This makes calling the old lseek syscall awkward as it will attempt to pull
     * a 64bit off_t off its syscall args, but we had all our arguments forced down to 32bits
     * before they got passed over. Therefore we can actually just pass the high and low
     * and everything will work. Assumptions on endianess */
    long ret = syscall(SYS_lseek, fd, (uint32_t)offset_low, (uint32_t)offset_high, whence);
   13a30:	e51b3018 	ldr	r3, [fp, #-24]	; 0xffffffe8
   13a34:	e58d3000 	str	r3, [sp]
   13a38:	e51b300c 	ldr	r3, [fp, #-12]
   13a3c:	e51b2010 	ldr	r2, [fp, #-16]
   13a40:	e51b1008 	ldr	r1, [fp, #-8]
   13a44:	e3a00013 	mov	r0, #19
   13a48:	eb002de7 	bl	1f1ec <syscall>
   13a4c:	e50b001c 	str	r0, [fp, #-28]	; 0xffffffe4
    if (ret == -1) {
   13a50:	e51b301c 	ldr	r3, [fp, #-28]	; 0xffffffe4
   13a54:	e3730001 	cmn	r3, #1
   13a58:	1a000005 	bne	13a74 <sys__llseek+0xb8>
        /* propogate error up. see __syscall_ret to understand */
        return -errno;
   13a5c:	ebfffa26 	bl	122fc <__aeabi_read_tp>
   13a60:	e1a03000 	mov	r3, r0
   13a64:	e59f2038 	ldr	r2, [pc, #56]	; 13aa4 <sys__llseek+0xe8>
   13a68:	e7933002 	ldr	r3, [r3, r2]
   13a6c:	e2633000 	rsb	r3, r3, #0
   13a70:	ea000008 	b	13a98 <sys__llseek+0xdc>
    }
    if (result) {
   13a74:	e51b3014 	ldr	r3, [fp, #-20]	; 0xffffffec
   13a78:	e3530000 	cmp	r3, #0
   13a7c:	0a000004 	beq	13a94 <sys__llseek+0xd8>
        *result = (off_t)ret;
   13a80:	e51b301c 	ldr	r3, [fp, #-28]	; 0xffffffe4
   13a84:	e1a02003 	mov	r2, r3
   13a88:	e1a03fc2 	asr	r3, r2, #31
   13a8c:	e51b1014 	ldr	r1, [fp, #-20]	; 0xffffffec
   13a90:	e1c120f0 	strd	r2, [r1]
    }
    return 0;
   13a94:	e3a03000 	mov	r3, #0
}
   13a98:	e1a00003 	mov	r0, r3
   13a9c:	e24bd004 	sub	sp, fp, #4
   13aa0:	e8bd8800 	pop	{fp, pc}
   13aa4:	0000000c 	andeq	r0, r0, ip

00013aa8 <sys_access>:

long sys_access(va_list ap)
{
   13aa8:	e92d4800 	push	{fp, lr}
   13aac:	e28db004 	add	fp, sp, #4
   13ab0:	e24dd028 	sub	sp, sp, #40	; 0x28
   13ab4:	e50b0018 	str	r0, [fp, #-24]	; 0xffffffe8
    const char *pathname = va_arg(ap, const char *);
   13ab8:	e51b3018 	ldr	r3, [fp, #-24]	; 0xffffffe8
   13abc:	e2832004 	add	r2, r3, #4
   13ac0:	e50b2018 	str	r2, [fp, #-24]	; 0xffffffe8
   13ac4:	e5933000 	ldr	r3, [r3]
   13ac8:	e50b3008 	str	r3, [fp, #-8]
    int mode = va_arg(ap, int);
   13acc:	e51b3018 	ldr	r3, [fp, #-24]	; 0xffffffe8
   13ad0:	e2832004 	add	r2, r3, #4
   13ad4:	e50b2018 	str	r2, [fp, #-24]	; 0xffffffe8
   13ad8:	e5933000 	ldr	r3, [r3]
   13adc:	e50b300c 	str	r3, [fp, #-12]
    /* just try and open. currently we only support reading with the CPIO file system */
    if (mode == F_OK || mode == R_OK) {
   13ae0:	e51b300c 	ldr	r3, [fp, #-12]
   13ae4:	e3530000 	cmp	r3, #0
   13ae8:	0a000002 	beq	13af8 <sys_access+0x50>
   13aec:	e51b300c 	ldr	r3, [fp, #-12]
   13af0:	e3530004 	cmp	r3, #4
   13af4:	1a00000d 	bne	13b30 <sys_access+0x88>
        int fd = open(pathname, O_RDONLY, 0);
   13af8:	e3a02000 	mov	r2, #0
   13afc:	e3a01000 	mov	r1, #0
   13b00:	e51b0008 	ldr	r0, [fp, #-8]
   13b04:	eb002ab3 	bl	1e5d8 <open>
   13b08:	e50b0010 	str	r0, [fp, #-16]
        if (fd < 0) {
   13b0c:	e51b3010 	ldr	r3, [fp, #-16]
   13b10:	e3530000 	cmp	r3, #0
   13b14:	aa000001 	bge	13b20 <sys_access+0x78>
            return -EACCES;
   13b18:	e3e0300c 	mvn	r3, #12
   13b1c:	ea000018 	b	13b84 <sys_access+0xdc>
        }
        close(fd);
   13b20:	e51b0010 	ldr	r0, [fp, #-16]
   13b24:	eb0039a2 	bl	221b4 <close>
        return 0;
   13b28:	e3a03000 	mov	r3, #0
   13b2c:	ea000014 	b	13b84 <sys_access+0xdc>
    }
    ZF_LOGE("Must pass F_OK or R_OK to %s\n", __FUNCTION__);
   13b30:	e3083104 	movw	r3, #33028	; 0x8104
   13b34:	e3403004 	movt	r3, #4
   13b38:	e5933000 	ldr	r3, [r3]
   13b3c:	e3530005 	cmp	r3, #5
   13b40:	ca00000e 	bgt	13b80 <sys_access+0xd8>
   13b44:	e307399c 	movw	r3, #31132	; 0x799c
   13b48:	e3403002 	movt	r3, #2
   13b4c:	e58d3008 	str	r3, [sp, #8]
   13b50:	e30738e0 	movw	r3, #30944	; 0x78e0
   13b54:	e3403002 	movt	r3, #2
   13b58:	e58d3004 	str	r3, [sp, #4]
   13b5c:	e3a03000 	mov	r3, #0
   13b60:	e58d3000 	str	r3, [sp]
   13b64:	e3a03005 	mov	r3, #5
   13b68:	e3002211 	movw	r2, #529	; 0x211
   13b6c:	e30716ac 	movw	r1, #30380	; 0x76ac
   13b70:	e3401002 	movt	r1, #2
   13b74:	e3070990 	movw	r0, #31120	; 0x7990
   13b78:	e3400002 	movt	r0, #2
   13b7c:	eb002901 	bl	1df88 <_zf_log_write_d>
    return -EACCES;
   13b80:	e3e0300c 	mvn	r3, #12
}
   13b84:	e1a00003 	mov	r0, r3
   13b88:	e24bd004 	sub	sp, fp, #4
   13b8c:	e8bd8800 	pop	{fp, pc}

00013b90 <muslcsys_install_cpio_interface>:

void muslcsys_install_cpio_interface(void const *cpio_symbol, unsigned long cpio_len,
                                     muslcsys_cpio_get_file_fn_t fn)
{
   13b90:	e52db004 	push	{fp}		; (str fp, [sp, #-4]!)
   13b94:	e28db000 	add	fp, sp, #0
   13b98:	e24dd014 	sub	sp, sp, #20
   13b9c:	e50b0008 	str	r0, [fp, #-8]
   13ba0:	e50b100c 	str	r1, [fp, #-12]
   13ba4:	e50b2010 	str	r2, [fp, #-16]
    cpio_archive_symbol = cpio_symbol;
   13ba8:	e3083050 	movw	r3, #32848	; 0x8050
   13bac:	e3403004 	movt	r3, #4
   13bb0:	e51b2008 	ldr	r2, [fp, #-8]
   13bb4:	e5832000 	str	r2, [r3]
    cpio_archive_len = cpio_len;
   13bb8:	e3083054 	movw	r3, #32852	; 0x8054
   13bbc:	e3403004 	movt	r3, #4
   13bc0:	e51b200c 	ldr	r2, [fp, #-12]
   13bc4:	e5832000 	str	r2, [r3]
    cpio_get_file_impl = fn;
   13bc8:	e3083058 	movw	r3, #32856	; 0x8058
   13bcc:	e3403004 	movt	r3, #4
   13bd0:	e51b2010 	ldr	r2, [fp, #-16]
   13bd4:	e5832000 	str	r2, [r3]
}
   13bd8:	e320f000 	nop	{0}
   13bdc:	e28bd000 	add	sp, fp, #0
   13be0:	e49db004 	pop	{fp}		; (ldr fp, [sp], #4)
   13be4:	e12fff1e 	bx	lr

00013be8 <seL4_MessageInfo_new>:
    seL4_Uint32 words[1];
};
typedef struct seL4_MessageInfo seL4_MessageInfo_t;

LIBSEL4_INLINE_FUNC seL4_MessageInfo_t CONST
seL4_MessageInfo_new(seL4_Uint32 label, seL4_Uint32 capsUnwrapped, seL4_Uint32 extraCaps, seL4_Uint32 length) {
   13be8:	e92d4800 	push	{fp, lr}
   13bec:	e28db004 	add	fp, sp, #4
   13bf0:	e24dd018 	sub	sp, sp, #24
   13bf4:	e50b0010 	str	r0, [fp, #-16]
   13bf8:	e50b1014 	str	r1, [fp, #-20]	; 0xffffffec
   13bfc:	e50b2018 	str	r2, [fp, #-24]	; 0xffffffe8
   13c00:	e50b301c 	str	r3, [fp, #-28]	; 0xffffffe4
    seL4_MessageInfo_t seL4_MessageInfo;

    /* fail if user has passed bits that we will override */  
    seL4_DebugAssert((label & ~0xfffffu) == ((0 && (label & (1u << 31))) ? 0x0 : 0));  
   13c04:	e51b3010 	ldr	r3, [fp, #-16]
   13c08:	e1a03a23 	lsr	r3, r3, #20
   13c0c:	e1a03a03 	lsl	r3, r3, #20
   13c10:	e3530000 	cmp	r3, #0
   13c14:	0a000007 	beq	13c38 <seL4_MessageInfo_new+0x50>
   13c18:	e3073cc4 	movw	r3, #31940	; 0x7cc4
   13c1c:	e3403002 	movt	r3, #2
   13c20:	e3002142 	movw	r2, #322	; 0x142
   13c24:	e30719ac 	movw	r1, #31148	; 0x79ac
   13c28:	e3401002 	movt	r1, #2
   13c2c:	e30709d4 	movw	r0, #31188	; 0x79d4
   13c30:	e3400002 	movt	r0, #2
   13c34:	eb002a4c 	bl	1e56c <__assert_fail>
    seL4_DebugAssert((capsUnwrapped & ~0x7u) == ((0 && (capsUnwrapped & (1u << 31))) ? 0x0 : 0));  
   13c38:	e51b3014 	ldr	r3, [fp, #-20]	; 0xffffffec
   13c3c:	e3c33007 	bic	r3, r3, #7
   13c40:	e3530000 	cmp	r3, #0
   13c44:	0a000007 	beq	13c68 <seL4_MessageInfo_new+0x80>
   13c48:	e3073cc4 	movw	r3, #31940	; 0x7cc4
   13c4c:	e3403002 	movt	r3, #2
   13c50:	e3002143 	movw	r2, #323	; 0x143
   13c54:	e30719ac 	movw	r1, #31148	; 0x79ac
   13c58:	e3401002 	movt	r1, #2
   13c5c:	e3070a14 	movw	r0, #31252	; 0x7a14
   13c60:	e3400002 	movt	r0, #2
   13c64:	eb002a40 	bl	1e56c <__assert_fail>
    seL4_DebugAssert((extraCaps & ~0x3u) == ((0 && (extraCaps & (1u << 31))) ? 0x0 : 0));  
   13c68:	e51b3018 	ldr	r3, [fp, #-24]	; 0xffffffe8
   13c6c:	e3c33003 	bic	r3, r3, #3
   13c70:	e3530000 	cmp	r3, #0
   13c74:	0a000007 	beq	13c98 <seL4_MessageInfo_new+0xb0>
   13c78:	e3073cc4 	movw	r3, #31940	; 0x7cc4
   13c7c:	e3403002 	movt	r3, #2
   13c80:	e3a02f51 	mov	r2, #324	; 0x144
   13c84:	e30719ac 	movw	r1, #31148	; 0x79ac
   13c88:	e3401002 	movt	r1, #2
   13c8c:	e3070a60 	movw	r0, #31328	; 0x7a60
   13c90:	e3400002 	movt	r0, #2
   13c94:	eb002a34 	bl	1e56c <__assert_fail>
    seL4_DebugAssert((length & ~0x7fu) == ((0 && (length & (1u << 31))) ? 0x0 : 0));
   13c98:	e51b301c 	ldr	r3, [fp, #-28]	; 0xffffffe4
   13c9c:	e3c3307f 	bic	r3, r3, #127	; 0x7f
   13ca0:	e3530000 	cmp	r3, #0
   13ca4:	0a000007 	beq	13cc8 <seL4_MessageInfo_new+0xe0>
   13ca8:	e3073cc4 	movw	r3, #31940	; 0x7cc4
   13cac:	e3403002 	movt	r3, #2
   13cb0:	e3002145 	movw	r2, #325	; 0x145
   13cb4:	e30719ac 	movw	r1, #31148	; 0x79ac
   13cb8:	e3401002 	movt	r1, #2
   13cbc:	e3070aa4 	movw	r0, #31396	; 0x7aa4
   13cc0:	e3400002 	movt	r0, #2
   13cc4:	eb002a28 	bl	1e56c <__assert_fail>

    seL4_MessageInfo.words[0] = 0
        | (label & 0xfffffu) << 12
   13cc8:	e51b3010 	ldr	r3, [fp, #-16]
   13ccc:	e1a02603 	lsl	r2, r3, #12
        | (capsUnwrapped & 0x7u) << 9
   13cd0:	e51b3014 	ldr	r3, [fp, #-20]	; 0xffffffec
   13cd4:	e1a03483 	lsl	r3, r3, #9
   13cd8:	e2033c0e 	and	r3, r3, #3584	; 0xe00
   13cdc:	e1822003 	orr	r2, r2, r3
        | (extraCaps & 0x3u) << 7
   13ce0:	e51b3018 	ldr	r3, [fp, #-24]	; 0xffffffe8
   13ce4:	e1a03383 	lsl	r3, r3, #7
   13ce8:	e2033d06 	and	r3, r3, #384	; 0x180
   13cec:	e1822003 	orr	r2, r2, r3
        | (length & 0x7fu) << 0;
   13cf0:	e51b301c 	ldr	r3, [fp, #-28]	; 0xffffffe4
   13cf4:	e203307f 	and	r3, r3, #127	; 0x7f
   13cf8:	e1823003 	orr	r3, r2, r3
    seL4_MessageInfo.words[0] = 0
   13cfc:	e50b3008 	str	r3, [fp, #-8]

    return seL4_MessageInfo;
   13d00:	e51b3008 	ldr	r3, [fp, #-8]
}
   13d04:	e1a00003 	mov	r0, r3
   13d08:	e24bd004 	sub	sp, fp, #4
   13d0c:	e8bd8800 	pop	{fp, pc}

00013d10 <seL4_MessageInfo_get_label>:
        | (extraCaps & 0x3u) << 7
        | (length & 0x7fu) << 0;
}

LIBSEL4_INLINE_FUNC seL4_Uint32 CONST
seL4_MessageInfo_get_label(seL4_MessageInfo_t seL4_MessageInfo) {
   13d10:	e52db004 	push	{fp}		; (str fp, [sp, #-4]!)
   13d14:	e28db000 	add	fp, sp, #0
   13d18:	e24dd014 	sub	sp, sp, #20
   13d1c:	e50b0010 	str	r0, [fp, #-16]
    seL4_Uint32 ret;
    ret = (seL4_MessageInfo.words[0] & 0xfffff000u) >> 12;
   13d20:	e51b3010 	ldr	r3, [fp, #-16]
   13d24:	e1a03623 	lsr	r3, r3, #12
   13d28:	e50b3008 	str	r3, [fp, #-8]
    /* Possibly sign extend */
    if (__builtin_expect(!!(0 && (ret & (1u << (31)))), 0)) {
        ret |= 0x0;
    }
    return ret;
   13d2c:	e51b3008 	ldr	r3, [fp, #-8]
}
   13d30:	e1a00003 	mov	r0, r3
   13d34:	e28bd000 	add	sp, fp, #0
   13d38:	e49db004 	pop	{fp}		; (ldr fp, [sp], #4)
   13d3c:	e12fff1e 	bx	lr

00013d40 <seL4_MessageInfo_get_length>:
    seL4_MessageInfo_ptr->words[0] &= ~0x180u;
    seL4_MessageInfo_ptr->words[0] |= (v32 << 7) & 0x180;
}

LIBSEL4_INLINE_FUNC seL4_Uint32 CONST
seL4_MessageInfo_get_length(seL4_MessageInfo_t seL4_MessageInfo) {
   13d40:	e52db004 	push	{fp}		; (str fp, [sp, #-4]!)
   13d44:	e28db000 	add	fp, sp, #0
   13d48:	e24dd014 	sub	sp, sp, #20
   13d4c:	e50b0010 	str	r0, [fp, #-16]
    seL4_Uint32 ret;
    ret = (seL4_MessageInfo.words[0] & 0x7fu) >> 0;
   13d50:	e51b3010 	ldr	r3, [fp, #-16]
   13d54:	e203307f 	and	r3, r3, #127	; 0x7f
   13d58:	e50b3008 	str	r3, [fp, #-8]
    /* Possibly sign extend */
    if (__builtin_expect(!!(0 && (ret & (1u << (31)))), 0)) {
        ret |= 0x0;
    }
    return ret;
   13d5c:	e51b3008 	ldr	r3, [fp, #-8]
}
   13d60:	e1a00003 	mov	r0, r3
   13d64:	e28bd000 	add	sp, fp, #0
   13d68:	e49db004 	pop	{fp}		; (ldr fp, [sp], #4)
   13d6c:	e12fff1e 	bx	lr

00013d70 <seL4_GetIPCBuffer>:
{
   13d70:	e92d4800 	push	{fp, lr}
   13d74:	e28db004 	add	fp, sp, #4
    return __sel4_ipc_buffer;
   13d78:	ebfff95f 	bl	122fc <__aeabi_read_tp>
   13d7c:	e1a03000 	mov	r3, r0
   13d80:	e59f2008 	ldr	r2, [pc, #8]	; 13d90 <seL4_GetIPCBuffer+0x20>
   13d84:	e7933002 	ldr	r3, [r3, r2]
}
   13d88:	e1a00003 	mov	r0, r3
   13d8c:	e8bd8800 	pop	{fp, pc}
   13d90:	00000008 	andeq	r0, r0, r8

00013d94 <seL4_SetMR>:
{
    return seL4_GetIPCBuffer()->msg[i];
}

LIBSEL4_INLINE_FUNC void seL4_SetMR(int i, seL4_Word mr)
{
   13d94:	e92d4800 	push	{fp, lr}
   13d98:	e28db004 	add	fp, sp, #4
   13d9c:	e24dd008 	sub	sp, sp, #8
   13da0:	e50b0008 	str	r0, [fp, #-8]
   13da4:	e50b100c 	str	r1, [fp, #-12]
    seL4_GetIPCBuffer()->msg[i] = mr;
   13da8:	ebfffff0 	bl	13d70 <seL4_GetIPCBuffer>
   13dac:	e1a02000 	mov	r2, r0
   13db0:	e51b3008 	ldr	r3, [fp, #-8]
   13db4:	e1a03103 	lsl	r3, r3, #2
   13db8:	e0823003 	add	r3, r2, r3
   13dbc:	e51b200c 	ldr	r2, [fp, #-12]
   13dc0:	e5832004 	str	r2, [r3, #4]
}
   13dc4:	e320f000 	nop	{0}
   13dc8:	e24bd004 	sub	sp, fp, #4
   13dcc:	e8bd8800 	pop	{fp, pc}

00013dd0 <arm_sys_send_recv>:
{
   13dd0:	e92d08b0 	push	{r4, r5, r7, fp}
   13dd4:	e28db00c 	add	fp, sp, #12
   13dd8:	e24dd010 	sub	sp, sp, #16
   13ddc:	e50b0010 	str	r0, [fp, #-16]
   13de0:	e50b1014 	str	r1, [fp, #-20]	; 0xffffffec
   13de4:	e50b2018 	str	r2, [fp, #-24]	; 0xffffffe8
   13de8:	e50b301c 	str	r3, [fp, #-28]	; 0xffffffe4
    register seL4_Word destptr asm("r0") = dest;
   13dec:	e51b0014 	ldr	r0, [fp, #-20]	; 0xffffffec
    register seL4_Word info asm("r1") = info_arg;
   13df0:	e51b101c 	ldr	r1, [fp, #-28]	; 0xffffffe4
    register seL4_Word msg0 asm("r2") = *in_out_mr0;
   13df4:	e59b3008 	ldr	r3, [fp, #8]
   13df8:	e5933000 	ldr	r3, [r3]
   13dfc:	e1a02003 	mov	r2, r3
    register seL4_Word msg1 asm("r3") = *in_out_mr1;
   13e00:	e59b300c 	ldr	r3, [fp, #12]
   13e04:	e5933000 	ldr	r3, [r3]
    register seL4_Word msg2 asm("r4") = *in_out_mr2;
   13e08:	e59bc010 	ldr	ip, [fp, #16]
   13e0c:	e59cc000 	ldr	ip, [ip]
   13e10:	e1a0400c 	mov	r4, ip
    register seL4_Word msg3 asm("r5") = *in_out_mr3;
   13e14:	e59bc014 	ldr	ip, [fp, #20]
   13e18:	e59cc000 	ldr	ip, [ip]
   13e1c:	e1a0500c 	mov	r5, ip
    register seL4_Word scno asm("r7") = sys;
   13e20:	e51b7010 	ldr	r7, [fp, #-16]
    asm volatile(
   13e24:	ef000000 	svc	0x00000000
    *out_info = info;
   13e28:	e1a0c001 	mov	ip, r1
   13e2c:	e59b1004 	ldr	r1, [fp, #4]
   13e30:	e581c000 	str	ip, [r1]
    *out_badge = destptr;
   13e34:	e51b1018 	ldr	r1, [fp, #-24]	; 0xffffffe8
   13e38:	e5810000 	str	r0, [r1]
    *in_out_mr0 = msg0;
   13e3c:	e1a01002 	mov	r1, r2
   13e40:	e59b2008 	ldr	r2, [fp, #8]
   13e44:	e5821000 	str	r1, [r2]
    *in_out_mr1 = msg1;
   13e48:	e1a02003 	mov	r2, r3
   13e4c:	e59b300c 	ldr	r3, [fp, #12]
   13e50:	e5832000 	str	r2, [r3]
    *in_out_mr2 = msg2;
   13e54:	e1a02004 	mov	r2, r4
   13e58:	e59b3010 	ldr	r3, [fp, #16]
   13e5c:	e5832000 	str	r2, [r3]
    *in_out_mr3 = msg3;
   13e60:	e1a02005 	mov	r2, r5
   13e64:	e59b3014 	ldr	r3, [fp, #20]
   13e68:	e5832000 	str	r2, [r3]
}
   13e6c:	e320f000 	nop	{0}
   13e70:	e24bd00c 	sub	sp, fp, #12
   13e74:	e8bd08b0 	pop	{r4, r5, r7, fp}
   13e78:	e12fff1e 	bx	lr

00013e7c <seL4_CallWithMRs>:
{
   13e7c:	e92d4800 	push	{fp, lr}
   13e80:	e28db004 	add	fp, sp, #4
   13e84:	e24dd040 	sub	sp, sp, #64	; 0x40
   13e88:	e50b0020 	str	r0, [fp, #-32]	; 0xffffffe0
   13e8c:	e50b1024 	str	r1, [fp, #-36]	; 0xffffffdc
   13e90:	e50b2028 	str	r2, [fp, #-40]	; 0xffffffd8
   13e94:	e50b302c 	str	r3, [fp, #-44]	; 0xffffffd4
    seL4_Word msg0 = 0;
   13e98:	e3a03000 	mov	r3, #0
   13e9c:	e50b300c 	str	r3, [fp, #-12]
    seL4_Word msg1 = 0;
   13ea0:	e3a03000 	mov	r3, #0
   13ea4:	e50b3010 	str	r3, [fp, #-16]
    seL4_Word msg2 = 0;
   13ea8:	e3a03000 	mov	r3, #0
   13eac:	e50b3014 	str	r3, [fp, #-20]	; 0xffffffec
    seL4_Word msg3 = 0;
   13eb0:	e3a03000 	mov	r3, #0
   13eb4:	e50b3018 	str	r3, [fp, #-24]	; 0xffffffe8
    if (mr0 != seL4_Null && seL4_MessageInfo_get_length(msgInfo) > 0) {
   13eb8:	e51b3028 	ldr	r3, [fp, #-40]	; 0xffffffd8
   13ebc:	e3530000 	cmp	r3, #0
   13ec0:	0a000007 	beq	13ee4 <seL4_CallWithMRs+0x68>
   13ec4:	e51b0024 	ldr	r0, [fp, #-36]	; 0xffffffdc
   13ec8:	ebffff9c 	bl	13d40 <seL4_MessageInfo_get_length>
   13ecc:	e1a03000 	mov	r3, r0
   13ed0:	e3530000 	cmp	r3, #0
   13ed4:	0a000002 	beq	13ee4 <seL4_CallWithMRs+0x68>
        msg0 = *mr0;
   13ed8:	e51b3028 	ldr	r3, [fp, #-40]	; 0xffffffd8
   13edc:	e5933000 	ldr	r3, [r3]
   13ee0:	e50b300c 	str	r3, [fp, #-12]
    if (mr1 != seL4_Null && seL4_MessageInfo_get_length(msgInfo) > 1) {
   13ee4:	e51b302c 	ldr	r3, [fp, #-44]	; 0xffffffd4
   13ee8:	e3530000 	cmp	r3, #0
   13eec:	0a000007 	beq	13f10 <seL4_CallWithMRs+0x94>
   13ef0:	e51b0024 	ldr	r0, [fp, #-36]	; 0xffffffdc
   13ef4:	ebffff91 	bl	13d40 <seL4_MessageInfo_get_length>
   13ef8:	e1a03000 	mov	r3, r0
   13efc:	e3530001 	cmp	r3, #1
   13f00:	9a000002 	bls	13f10 <seL4_CallWithMRs+0x94>
        msg1 = *mr1;
   13f04:	e51b302c 	ldr	r3, [fp, #-44]	; 0xffffffd4
   13f08:	e5933000 	ldr	r3, [r3]
   13f0c:	e50b3010 	str	r3, [fp, #-16]
    if (mr2 != seL4_Null && seL4_MessageInfo_get_length(msgInfo) > 2) {
   13f10:	e59b3004 	ldr	r3, [fp, #4]
   13f14:	e3530000 	cmp	r3, #0
   13f18:	0a000007 	beq	13f3c <seL4_CallWithMRs+0xc0>
   13f1c:	e51b0024 	ldr	r0, [fp, #-36]	; 0xffffffdc
   13f20:	ebffff86 	bl	13d40 <seL4_MessageInfo_get_length>
   13f24:	e1a03000 	mov	r3, r0
   13f28:	e3530002 	cmp	r3, #2
   13f2c:	9a000002 	bls	13f3c <seL4_CallWithMRs+0xc0>
        msg2 = *mr2;
   13f30:	e59b3004 	ldr	r3, [fp, #4]
   13f34:	e5933000 	ldr	r3, [r3]
   13f38:	e50b3014 	str	r3, [fp, #-20]	; 0xffffffec
    if (mr3 != seL4_Null && seL4_MessageInfo_get_length(msgInfo) > 3) {
   13f3c:	e59b3008 	ldr	r3, [fp, #8]
   13f40:	e3530000 	cmp	r3, #0
   13f44:	0a000007 	beq	13f68 <seL4_CallWithMRs+0xec>
   13f48:	e51b0024 	ldr	r0, [fp, #-36]	; 0xffffffdc
   13f4c:	ebffff7b 	bl	13d40 <seL4_MessageInfo_get_length>
   13f50:	e1a03000 	mov	r3, r0
   13f54:	e3530003 	cmp	r3, #3
   13f58:	9a000002 	bls	13f68 <seL4_CallWithMRs+0xec>
        msg3 = *mr3;
   13f5c:	e59b3008 	ldr	r3, [fp, #8]
   13f60:	e5933000 	ldr	r3, [r3]
   13f64:	e50b3018 	str	r3, [fp, #-24]	; 0xffffffe8
    arm_sys_send_recv(seL4_SysCall, dest, &dest, msgInfo.words[0], &info.words[0], &msg0, &msg1, &msg2, &msg3, 0);
   13f68:	e51b1020 	ldr	r1, [fp, #-32]	; 0xffffffe0
   13f6c:	e51b0024 	ldr	r0, [fp, #-36]	; 0xffffffdc
   13f70:	e24b2020 	sub	r2, fp, #32
   13f74:	e3a03000 	mov	r3, #0
   13f78:	e58d3014 	str	r3, [sp, #20]
   13f7c:	e24b3018 	sub	r3, fp, #24
   13f80:	e58d3010 	str	r3, [sp, #16]
   13f84:	e24b3014 	sub	r3, fp, #20
   13f88:	e58d300c 	str	r3, [sp, #12]
   13f8c:	e24b3010 	sub	r3, fp, #16
   13f90:	e58d3008 	str	r3, [sp, #8]
   13f94:	e24b300c 	sub	r3, fp, #12
   13f98:	e58d3004 	str	r3, [sp, #4]
   13f9c:	e24b3008 	sub	r3, fp, #8
   13fa0:	e58d3000 	str	r3, [sp]
   13fa4:	e1a03000 	mov	r3, r0
   13fa8:	e3e00000 	mvn	r0, #0
   13fac:	ebffff87 	bl	13dd0 <arm_sys_send_recv>
    if (mr0 != seL4_Null) {
   13fb0:	e51b3028 	ldr	r3, [fp, #-40]	; 0xffffffd8
   13fb4:	e3530000 	cmp	r3, #0
   13fb8:	0a000002 	beq	13fc8 <seL4_CallWithMRs+0x14c>
        *mr0 = msg0;
   13fbc:	e51b200c 	ldr	r2, [fp, #-12]
   13fc0:	e51b3028 	ldr	r3, [fp, #-40]	; 0xffffffd8
   13fc4:	e5832000 	str	r2, [r3]
    if (mr1 != seL4_Null) {
   13fc8:	e51b302c 	ldr	r3, [fp, #-44]	; 0xffffffd4
   13fcc:	e3530000 	cmp	r3, #0
   13fd0:	0a000002 	beq	13fe0 <seL4_CallWithMRs+0x164>
        *mr1 = msg1;
   13fd4:	e51b2010 	ldr	r2, [fp, #-16]
   13fd8:	e51b302c 	ldr	r3, [fp, #-44]	; 0xffffffd4
   13fdc:	e5832000 	str	r2, [r3]
    if (mr2 != seL4_Null) {
   13fe0:	e59b3004 	ldr	r3, [fp, #4]
   13fe4:	e3530000 	cmp	r3, #0
   13fe8:	0a000002 	beq	13ff8 <seL4_CallWithMRs+0x17c>
        *mr2 = msg2;
   13fec:	e51b2014 	ldr	r2, [fp, #-20]	; 0xffffffec
   13ff0:	e59b3004 	ldr	r3, [fp, #4]
   13ff4:	e5832000 	str	r2, [r3]
    if (mr3 != seL4_Null) {
   13ff8:	e59b3008 	ldr	r3, [fp, #8]
   13ffc:	e3530000 	cmp	r3, #0
   14000:	0a000002 	beq	14010 <seL4_CallWithMRs+0x194>
        *mr3 = msg3;
   14004:	e51b2018 	ldr	r2, [fp, #-24]	; 0xffffffe8
   14008:	e59b3008 	ldr	r3, [fp, #8]
   1400c:	e5832000 	str	r2, [r3]
    return info;
   14010:	e51b3008 	ldr	r3, [fp, #-8]
}
   14014:	e1a00003 	mov	r0, r3
   14018:	e24bd004 	sub	sp, fp, #4
   1401c:	e8bd8800 	pop	{fp, pc}

00014020 <seL4_DebugPutChar>:
{
   14020:	e92d4800 	push	{fp, lr}
   14024:	e28db004 	add	fp, sp, #4
   14028:	e24dd038 	sub	sp, sp, #56	; 0x38
   1402c:	e1a03000 	mov	r3, r0
   14030:	e54b301d 	strb	r3, [fp, #-29]	; 0xffffffe3
    seL4_Word unused0 = 0;
   14034:	e3a03000 	mov	r3, #0
   14038:	e50b3008 	str	r3, [fp, #-8]
    seL4_Word unused1 = 0;
   1403c:	e3a03000 	mov	r3, #0
   14040:	e50b300c 	str	r3, [fp, #-12]
    seL4_Word unused2 = 0;
   14044:	e3a03000 	mov	r3, #0
   14048:	e50b3010 	str	r3, [fp, #-16]
    seL4_Word unused3 = 0;
   1404c:	e3a03000 	mov	r3, #0
   14050:	e50b3014 	str	r3, [fp, #-20]	; 0xffffffec
    seL4_Word unused4 = 0;
   14054:	e3a03000 	mov	r3, #0
   14058:	e50b3018 	str	r3, [fp, #-24]	; 0xffffffe8
    seL4_Word unused5 = 0;
   1405c:	e3a03000 	mov	r3, #0
   14060:	e50b301c 	str	r3, [fp, #-28]	; 0xffffffe4
    arm_sys_send_recv(seL4_SysDebugPutChar, c, &unused0, 0, &unused1, &unused2, &unused3, &unused4, &unused5, 0);
   14064:	e55b101d 	ldrb	r1, [fp, #-29]	; 0xffffffe3
   14068:	e24b2008 	sub	r2, fp, #8
   1406c:	e3a03000 	mov	r3, #0
   14070:	e58d3014 	str	r3, [sp, #20]
   14074:	e24b301c 	sub	r3, fp, #28
   14078:	e58d3010 	str	r3, [sp, #16]
   1407c:	e24b3018 	sub	r3, fp, #24
   14080:	e58d300c 	str	r3, [sp, #12]
   14084:	e24b3014 	sub	r3, fp, #20
   14088:	e58d3008 	str	r3, [sp, #8]
   1408c:	e24b3010 	sub	r3, fp, #16
   14090:	e58d3004 	str	r3, [sp, #4]
   14094:	e24b300c 	sub	r3, fp, #12
   14098:	e58d3000 	str	r3, [sp]
   1409c:	e3a03000 	mov	r3, #0
   140a0:	e3e00008 	mvn	r0, #8
   140a4:	ebffff49 	bl	13dd0 <arm_sys_send_recv>
}
   140a8:	e320f000 	nop	{0}
   140ac:	e24bd004 	sub	sp, fp, #4
   140b0:	e8bd8800 	pop	{fp, pc}

000140b4 <seL4_TCB_SetTLSBase>:
 * @retval seL4_IllegalOperation The  @xmlonly <texttt text="_service"/> @endxmlonly  is a CPtr to a capability of the wrong type. 
 * @retval seL4_InvalidCapability The  @xmlonly <texttt text="_service"/> @endxmlonly  is a CPtr to a capability of the wrong type. 
 */
LIBSEL4_INLINE seL4_Error
seL4_TCB_SetTLSBase(seL4_TCB _service, seL4_Word tls_base)
{
   140b4:	e92d4800 	push	{fp, lr}
   140b8:	e28db004 	add	fp, sp, #4
   140bc:	e24dd030 	sub	sp, sp, #48	; 0x30
   140c0:	e50b0028 	str	r0, [fp, #-40]	; 0xffffffd8
   140c4:	e50b102c 	str	r1, [fp, #-44]	; 0xffffffd4
	seL4_Error result;
	seL4_MessageInfo_t tag = seL4_MessageInfo_new(TCBSetTLSBase, 0, 0, 1);
   140c8:	e3a03001 	mov	r3, #1
   140cc:	e3a02000 	mov	r2, #0
   140d0:	e3a01000 	mov	r1, #0
   140d4:	e3a0000f 	mov	r0, #15
   140d8:	ebfffec2 	bl	13be8 <seL4_MessageInfo_new>
   140dc:	e1a03000 	mov	r3, r0
   140e0:	e50b300c 	str	r3, [fp, #-12]
	seL4_Word mr1;
	seL4_Word mr2;
	seL4_Word mr3;

	/* Marshal and initialise parameters. */
	mr0 = tls_base;
   140e4:	e51b302c 	ldr	r3, [fp, #-44]	; 0xffffffd4
   140e8:	e50b3014 	str	r3, [fp, #-20]	; 0xffffffec
	mr1 = 0;
   140ec:	e3a03000 	mov	r3, #0
   140f0:	e50b3018 	str	r3, [fp, #-24]	; 0xffffffe8
	mr2 = 0;
   140f4:	e3a03000 	mov	r3, #0
   140f8:	e50b301c 	str	r3, [fp, #-28]	; 0xffffffe4
	mr3 = 0;
   140fc:	e3a03000 	mov	r3, #0
   14100:	e50b3020 	str	r3, [fp, #-32]	; 0xffffffe0

	/* Perform the call, passing in-register arguments directly. */
	output_tag = seL4_CallWithMRs(_service, tag,
   14104:	e24b1018 	sub	r1, fp, #24
   14108:	e24b2014 	sub	r2, fp, #20
   1410c:	e24b3020 	sub	r3, fp, #32
   14110:	e58d3004 	str	r3, [sp, #4]
   14114:	e24b301c 	sub	r3, fp, #28
   14118:	e58d3000 	str	r3, [sp]
   1411c:	e1a03001 	mov	r3, r1
   14120:	e51b100c 	ldr	r1, [fp, #-12]
   14124:	e51b0028 	ldr	r0, [fp, #-40]	; 0xffffffd8
   14128:	ebffff53 	bl	13e7c <seL4_CallWithMRs>
   1412c:	e1a03000 	mov	r3, r0
   14130:	e50b3010 	str	r3, [fp, #-16]
		&mr0, &mr1, &mr2, &mr3);
	result = (seL4_Error) seL4_MessageInfo_get_label(output_tag);
   14134:	e51b0010 	ldr	r0, [fp, #-16]
   14138:	ebfffef4 	bl	13d10 <seL4_MessageInfo_get_label>
   1413c:	e50b0008 	str	r0, [fp, #-8]

	/* Unmarshal registers into IPC buffer on error. */
	if (result != seL4_NoError) {
   14140:	e51b3008 	ldr	r3, [fp, #-8]
   14144:	e3530000 	cmp	r3, #0
   14148:	0a00000f 	beq	1418c <seL4_TCB_SetTLSBase+0xd8>
		seL4_SetMR(0, mr0);
   1414c:	e51b3014 	ldr	r3, [fp, #-20]	; 0xffffffec
   14150:	e1a01003 	mov	r1, r3
   14154:	e3a00000 	mov	r0, #0
   14158:	ebffff0d 	bl	13d94 <seL4_SetMR>
		seL4_SetMR(1, mr1);
   1415c:	e51b3018 	ldr	r3, [fp, #-24]	; 0xffffffe8
   14160:	e1a01003 	mov	r1, r3
   14164:	e3a00001 	mov	r0, #1
   14168:	ebffff09 	bl	13d94 <seL4_SetMR>
		seL4_SetMR(2, mr2);
   1416c:	e51b301c 	ldr	r3, [fp, #-28]	; 0xffffffe4
   14170:	e1a01003 	mov	r1, r3
   14174:	e3a00002 	mov	r0, #2
   14178:	ebffff05 	bl	13d94 <seL4_SetMR>
		seL4_SetMR(3, mr3);
   1417c:	e51b3020 	ldr	r3, [fp, #-32]	; 0xffffffe0
   14180:	e1a01003 	mov	r1, r3
   14184:	e3a00003 	mov	r0, #3
   14188:	ebffff01 	bl	13d94 <seL4_SetMR>
			seL4_DebugPutString(seL4_GetDebugError());
		}
#endif
	}

	return result;
   1418c:	e51b3008 	ldr	r3, [fp, #-8]
}
   14190:	e1a00003 	mov	r0, r3
   14194:	e24bd004 	sub	sp, fp, #4
   14198:	e8bd8800 	pop	{fp, pc}

0001419c <boot_set_thread_area>:
#if defined(__NR_set_thread_area) || defined(__ARM_NR_set_tls)
static bool boot_set_thread_area_happened;
static void *boot_set_thread_area_arg;

static long boot_set_thread_area(va_list ap)
{
   1419c:	e92d4800 	push	{fp, lr}
   141a0:	e28db004 	add	fp, sp, #4
   141a4:	e24dd020 	sub	sp, sp, #32
   141a8:	e50b0018 	str	r0, [fp, #-24]	; 0xffffffe8
    void *tp = va_arg(ap, void *);
   141ac:	e51b3018 	ldr	r3, [fp, #-24]	; 0xffffffe8
   141b0:	e2832004 	add	r2, r3, #4
   141b4:	e50b2018 	str	r2, [fp, #-24]	; 0xffffffe8
   141b8:	e5933000 	ldr	r3, [r3]
   141bc:	e50b3008 	str	r3, [fp, #-8]
    if (boot_set_thread_area_happened) {
   141c0:	e3083070 	movw	r3, #32880	; 0x8070
   141c4:	e3403004 	movt	r3, #4
   141c8:	e5d33000 	ldrb	r3, [r3]
   141cc:	e3530000 	cmp	r3, #0
   141d0:	0a000012 	beq	14220 <boot_set_thread_area+0x84>
        ZF_LOGE("Boot version of set_thread_area somehow got called twice");
   141d4:	e3083104 	movw	r3, #33028	; 0x8104
   141d8:	e3403004 	movt	r3, #4
   141dc:	e5933000 	ldr	r3, [r3]
   141e0:	e3530005 	cmp	r3, #5
   141e4:	ca00000b 	bgt	14218 <boot_set_thread_area+0x7c>
   141e8:	e3073b44 	movw	r3, #31556	; 0x7b44
   141ec:	e3403002 	movt	r3, #2
   141f0:	e58d3004 	str	r3, [sp, #4]
   141f4:	e3a03000 	mov	r3, #0
   141f8:	e58d3000 	str	r3, [sp]
   141fc:	e3a03005 	mov	r3, #5
   14200:	e3a02028 	mov	r2, #40	; 0x28
   14204:	e3071ae4 	movw	r1, #31460	; 0x7ae4
   14208:	e3401002 	movt	r1, #2
   1420c:	e3070cac 	movw	r0, #31916	; 0x7cac
   14210:	e3400002 	movt	r0, #2
   14214:	eb00275b 	bl	1df88 <_zf_log_write_d>
        return -ESRCH;
   14218:	e3e03002 	mvn	r3, #2
   1421c:	ea00001d 	b	14298 <boot_set_thread_area+0xfc>
     * write to it directly, but the C library will not know this. In this case we set the
     * thread pointer here and then return, otherwise we have to resort to using the TCB invocation */
#if defined(CONFIG_FSGSBASE_INST)
    asm volatile("wrfsbase %0" :: "r"(tp));
#else
    char *tcb_string = getenv("boot_tcb_cptr");
   14220:	e3070b80 	movw	r0, #31616	; 0x7b80
   14224:	e3400002 	movt	r0, #2
   14228:	eb002895 	bl	1e484 <getenv>
   1422c:	e50b000c 	str	r0, [fp, #-12]
    if (tcb_string) {
   14230:	e51b300c 	ldr	r3, [fp, #-12]
   14234:	e3530000 	cmp	r3, #0
   14238:	0a00000d 	beq	14274 <boot_set_thread_area+0xd8>
        seL4_CPtr tcb;
        if (sscanf(tcb_string, "%p", (void **)&tcb) == 1) {
   1423c:	e24b3010 	sub	r3, fp, #16
   14240:	e1a02003 	mov	r2, r3
   14244:	e3071b90 	movw	r1, #31632	; 0x7b90
   14248:	e3401002 	movt	r1, #2
   1424c:	e51b000c 	ldr	r0, [fp, #-12]
   14250:	eb002db7 	bl	1f934 <sscanf>
   14254:	e1a03000 	mov	r3, r0
   14258:	e3530001 	cmp	r3, #1
   1425c:	1a000004 	bne	14274 <boot_set_thread_area+0xd8>
            seL4_TCB_SetTLSBase(tcb, (seL4_Word)tp);
   14260:	e51b3010 	ldr	r3, [fp, #-16]
   14264:	e51b2008 	ldr	r2, [fp, #-8]
   14268:	e1a01002 	mov	r1, r2
   1426c:	e1a00003 	mov	r0, r3
   14270:	ebffff8f 	bl	140b4 <seL4_TCB_SetTLSBase>
        }
    }
#endif
    boot_set_thread_area_happened = true;
   14274:	e3083070 	movw	r3, #32880	; 0x8070
   14278:	e3403004 	movt	r3, #4
   1427c:	e3a02001 	mov	r2, #1
   14280:	e5c32000 	strb	r2, [r3]
    boot_set_thread_area_arg = tp;
   14284:	e3083074 	movw	r3, #32884	; 0x8074
   14288:	e3403004 	movt	r3, #4
   1428c:	e51b2008 	ldr	r2, [fp, #-8]
   14290:	e5832000 	str	r2, [r3]
    return 0;
   14294:	e3a03000 	mov	r3, #0
}
   14298:	e1a00003 	mov	r0, r3
   1429c:	e24bd004 	sub	sp, fp, #4
   142a0:	e8bd8800 	pop	{fp, pc}

000142a4 <muslcsys_get_boot_set_thread_area>:

bool muslcsys_get_boot_set_thread_area(void **arg)
{
   142a4:	e52db004 	push	{fp}		; (str fp, [sp, #-4]!)
   142a8:	e28db000 	add	fp, sp, #0
   142ac:	e24dd00c 	sub	sp, sp, #12
   142b0:	e50b0008 	str	r0, [fp, #-8]
    *arg = boot_set_thread_area_arg;
   142b4:	e3083074 	movw	r3, #32884	; 0x8074
   142b8:	e3403004 	movt	r3, #4
   142bc:	e5932000 	ldr	r2, [r3]
   142c0:	e51b3008 	ldr	r3, [fp, #-8]
   142c4:	e5832000 	str	r2, [r3]
    return boot_set_thread_area_happened;
   142c8:	e3083070 	movw	r3, #32880	; 0x8070
   142cc:	e3403004 	movt	r3, #4
   142d0:	e5d33000 	ldrb	r3, [r3]
}
   142d4:	e1a00003 	mov	r0, r3
   142d8:	e28bd000 	add	sp, fp, #0
   142dc:	e49db004 	pop	{fp}		; (ldr fp, [sp], #4)
   142e0:	e12fff1e 	bx	lr

000142e4 <boot_set_tid_address>:
#endif

static long boot_set_tid_address(va_list ap)
{
   142e4:	e92d4800 	push	{fp, lr}
   142e8:	e28db004 	add	fp, sp, #4
   142ec:	e24dd018 	sub	sp, sp, #24
   142f0:	e50b0010 	str	r0, [fp, #-16]
    int *tid = va_arg(ap, int *);
   142f4:	e51b3010 	ldr	r3, [fp, #-16]
   142f8:	e2832004 	add	r2, r3, #4
   142fc:	e50b2010 	str	r2, [fp, #-16]
   14300:	e5933000 	ldr	r3, [r3]
   14304:	e50b3008 	str	r3, [fp, #-8]
    if (boot_set_tid_address_happened) {
   14308:	e3083068 	movw	r3, #32872	; 0x8068
   1430c:	e3403004 	movt	r3, #4
   14310:	e5d33000 	ldrb	r3, [r3]
   14314:	e3530000 	cmp	r3, #0
   14318:	0a000012 	beq	14368 <boot_set_tid_address+0x84>
        ZF_LOGE("Boot version of set_tid_address somehow got called twice");
   1431c:	e3083104 	movw	r3, #33028	; 0x8104
   14320:	e3403004 	movt	r3, #4
   14324:	e5933000 	ldr	r3, [r3]
   14328:	e3530005 	cmp	r3, #5
   1432c:	ca00000b 	bgt	14360 <boot_set_tid_address+0x7c>
   14330:	e3073b94 	movw	r3, #31636	; 0x7b94
   14334:	e3403002 	movt	r3, #2
   14338:	e58d3004 	str	r3, [sp, #4]
   1433c:	e3a03000 	mov	r3, #0
   14340:	e58d3000 	str	r3, [sp]
   14344:	e3a03005 	mov	r3, #5
   14348:	e3a0204d 	mov	r2, #77	; 0x4d
   1434c:	e3071ae4 	movw	r1, #31460	; 0x7ae4
   14350:	e3401002 	movt	r1, #2
   14354:	e3070cdc 	movw	r0, #31964	; 0x7cdc
   14358:	e3400002 	movt	r0, #2
   1435c:	eb002709 	bl	1df88 <_zf_log_write_d>
        return 1;
   14360:	e3a03001 	mov	r3, #1
   14364:	ea000008 	b	1438c <boot_set_tid_address+0xa8>
    }
    boot_set_tid_address_happened = true;
   14368:	e3083068 	movw	r3, #32872	; 0x8068
   1436c:	e3403004 	movt	r3, #4
   14370:	e3a02001 	mov	r2, #1
   14374:	e5c32000 	strb	r2, [r3]
    boot_set_tid_address_arg = tid;
   14378:	e308306c 	movw	r3, #32876	; 0x806c
   1437c:	e3403004 	movt	r3, #4
   14380:	e51b2008 	ldr	r2, [fp, #-8]
   14384:	e5832000 	str	r2, [r3]
    return 1;
   14388:	e3a03001 	mov	r3, #1
}
   1438c:	e1a00003 	mov	r0, r3
   14390:	e24bd004 	sub	sp, fp, #4
   14394:	e8bd8800 	pop	{fp, pc}

00014398 <muslcsys_get_boot_set_tid_address>:

bool muslcsys_get_boot_set_tid_address(int **arg)
{
   14398:	e52db004 	push	{fp}		; (str fp, [sp, #-4]!)
   1439c:	e28db000 	add	fp, sp, #0
   143a0:	e24dd00c 	sub	sp, sp, #12
   143a4:	e50b0008 	str	r0, [fp, #-8]
    *arg = boot_set_tid_address_arg;
   143a8:	e308306c 	movw	r3, #32876	; 0x806c
   143ac:	e3403004 	movt	r3, #4
   143b0:	e5932000 	ldr	r2, [r3]
   143b4:	e51b3008 	ldr	r3, [fp, #-8]
   143b8:	e5832000 	str	r2, [r3]
    return boot_set_tid_address_happened;
   143bc:	e3083068 	movw	r3, #32872	; 0x8068
   143c0:	e3403004 	movt	r3, #4
   143c4:	e5d33000 	ldrb	r3, [r3]
}
   143c8:	e1a00003 	mov	r0, r3
   143cc:	e28bd000 	add	sp, fp, #0
   143d0:	e49db004 	pop	{fp}		; (ldr fp, [sp], #4)
   143d4:	e12fff1e 	bx	lr

000143d8 <boot_sys_writev>:

/* Basic sys_writev for use during booting that will only use seL4_DebugPutChar */
long boot_sys_writev(va_list ap)
{
   143d8:	e92d4800 	push	{fp, lr}
   143dc:	e28db004 	add	fp, sp, #4
   143e0:	e24dd028 	sub	sp, sp, #40	; 0x28
   143e4:	e50b0028 	str	r0, [fp, #-40]	; 0xffffffd8
    int UNUSED fildes = va_arg(ap, int);
   143e8:	e51b3028 	ldr	r3, [fp, #-40]	; 0xffffffd8
   143ec:	e2832004 	add	r2, r3, #4
   143f0:	e50b2028 	str	r2, [fp, #-40]	; 0xffffffd8
   143f4:	e5933000 	ldr	r3, [r3]
   143f8:	e50b3014 	str	r3, [fp, #-20]	; 0xffffffec
    struct iovec *iov = va_arg(ap, struct iovec *);
   143fc:	e51b3028 	ldr	r3, [fp, #-40]	; 0xffffffd8
   14400:	e2832004 	add	r2, r3, #4
   14404:	e50b2028 	str	r2, [fp, #-40]	; 0xffffffd8
   14408:	e5933000 	ldr	r3, [r3]
   1440c:	e50b3018 	str	r3, [fp, #-24]	; 0xffffffe8
    int iovcnt = va_arg(ap, int);
   14410:	e51b3028 	ldr	r3, [fp, #-40]	; 0xffffffd8
   14414:	e2832004 	add	r2, r3, #4
   14418:	e50b2028 	str	r2, [fp, #-40]	; 0xffffffd8
   1441c:	e5933000 	ldr	r3, [r3]
   14420:	e50b301c 	str	r3, [fp, #-28]	; 0xffffffe4

    ssize_t ret = 0;
   14424:	e3a03000 	mov	r3, #0
   14428:	e50b3008 	str	r3, [fp, #-8]

    for (int i = 0; i < iovcnt; i++) {
   1442c:	e3a03000 	mov	r3, #0
   14430:	e50b300c 	str	r3, [fp, #-12]
   14434:	ea00001f 	b	144b8 <boot_sys_writev+0xe0>
        char *UNUSED base = (char *)iov[i].iov_base;
   14438:	e51b300c 	ldr	r3, [fp, #-12]
   1443c:	e1a03183 	lsl	r3, r3, #3
   14440:	e51b2018 	ldr	r2, [fp, #-24]	; 0xffffffe8
   14444:	e0823003 	add	r3, r2, r3
   14448:	e5933000 	ldr	r3, [r3]
   1444c:	e50b3020 	str	r3, [fp, #-32]	; 0xffffffe0
        for (int j = 0; j < iov[i].iov_len; j++) {
   14450:	e3a03000 	mov	r3, #0
   14454:	e50b3010 	str	r3, [fp, #-16]
   14458:	ea00000b 	b	1448c <boot_sys_writev+0xb4>
#ifdef CONFIG_PRINTING
            seL4_DebugPutChar(base[j]);
   1445c:	e51b3010 	ldr	r3, [fp, #-16]
   14460:	e51b2020 	ldr	r2, [fp, #-32]	; 0xffffffe0
   14464:	e0823003 	add	r3, r2, r3
   14468:	e5d33000 	ldrb	r3, [r3]
   1446c:	e1a00003 	mov	r0, r3
   14470:	ebfffeea 	bl	14020 <seL4_DebugPutChar>
#endif
            ret++;
   14474:	e51b3008 	ldr	r3, [fp, #-8]
   14478:	e2833001 	add	r3, r3, #1
   1447c:	e50b3008 	str	r3, [fp, #-8]
        for (int j = 0; j < iov[i].iov_len; j++) {
   14480:	e51b3010 	ldr	r3, [fp, #-16]
   14484:	e2833001 	add	r3, r3, #1
   14488:	e50b3010 	str	r3, [fp, #-16]
   1448c:	e51b300c 	ldr	r3, [fp, #-12]
   14490:	e1a03183 	lsl	r3, r3, #3
   14494:	e51b2018 	ldr	r2, [fp, #-24]	; 0xffffffe8
   14498:	e0823003 	add	r3, r2, r3
   1449c:	e5932004 	ldr	r2, [r3, #4]
   144a0:	e51b3010 	ldr	r3, [fp, #-16]
   144a4:	e1520003 	cmp	r2, r3
   144a8:	8affffeb 	bhi	1445c <boot_sys_writev+0x84>
    for (int i = 0; i < iovcnt; i++) {
   144ac:	e51b300c 	ldr	r3, [fp, #-12]
   144b0:	e2833001 	add	r3, r3, #1
   144b4:	e50b300c 	str	r3, [fp, #-12]
   144b8:	e51b200c 	ldr	r2, [fp, #-12]
   144bc:	e51b301c 	ldr	r3, [fp, #-28]	; 0xffffffe4
   144c0:	e1520003 	cmp	r2, r3
   144c4:	baffffdb 	blt	14438 <boot_sys_writev+0x60>
        }
    }

    return ret;
   144c8:	e51b3008 	ldr	r3, [fp, #-8]
}
   144cc:	e1a00003 	mov	r0, r3
   144d0:	e24bd004 	sub	sp, fp, #4
   144d4:	e8bd8800 	pop	{fp, pc}

000144d8 <find_sparse_syscall>:
    {__ARM_NR_set_tls, boot_set_thread_area},
#endif
};

static int find_sparse_syscall(int syscall)
{
   144d8:	e52db004 	push	{fp}		; (str fp, [sp, #-4]!)
   144dc:	e28db000 	add	fp, sp, #0
   144e0:	e24dd014 	sub	sp, sp, #20
   144e4:	e50b0010 	str	r0, [fp, #-16]
    for (int i = 0; i < ARRAY_SIZE(sparse_syscall_table); i++) {
   144e8:	e3a03000 	mov	r3, #0
   144ec:	e50b3008 	str	r3, [fp, #-8]
   144f0:	ea00000b 	b	14524 <find_sparse_syscall+0x4c>
        if (sparse_syscall_table[i].sysnum == syscall) {
   144f4:	e30c3650 	movw	r3, #50768	; 0xc650
   144f8:	e3403002 	movt	r3, #2
   144fc:	e51b2008 	ldr	r2, [fp, #-8]
   14500:	e7933182 	ldr	r3, [r3, r2, lsl #3]
   14504:	e51b2010 	ldr	r2, [fp, #-16]
   14508:	e1520003 	cmp	r2, r3
   1450c:	1a000001 	bne	14518 <find_sparse_syscall+0x40>
            return i;
   14510:	e51b3008 	ldr	r3, [fp, #-8]
   14514:	ea000006 	b	14534 <find_sparse_syscall+0x5c>
    for (int i = 0; i < ARRAY_SIZE(sparse_syscall_table); i++) {
   14518:	e51b3008 	ldr	r3, [fp, #-8]
   1451c:	e2833001 	add	r3, r3, #1
   14520:	e50b3008 	str	r3, [fp, #-8]
   14524:	e51b3008 	ldr	r3, [fp, #-8]
   14528:	e3530004 	cmp	r3, #4
   1452c:	9afffff0 	bls	144f4 <find_sparse_syscall+0x1c>
        }
    }
    return -1;
   14530:	e3e03000 	mvn	r3, #0
}
   14534:	e1a00003 	mov	r0, r3
   14538:	e28bd000 	add	sp, fp, #0
   1453c:	e49db004 	pop	{fp}		; (ldr fp, [sp], #4)
   14540:	e12fff1e 	bx	lr

00014544 <muslcsys_install_syscall>:

muslcsys_syscall_t muslcsys_install_syscall(int syscall, muslcsys_syscall_t new_syscall)
{
   14544:	e92d4800 	push	{fp, lr}
   14548:	e28db004 	add	fp, sp, #4
   1454c:	e24dd020 	sub	sp, sp, #32
   14550:	e50b0010 	str	r0, [fp, #-16]
   14554:	e50b1014 	str	r1, [fp, #-20]	; 0xffffffec
    muslcsys_syscall_t ret;
    if (syscall >= ARRAY_SIZE(syscall_table)) {
   14558:	e51b3010 	ldr	r3, [fp, #-16]
   1455c:	e3530e19 	cmp	r3, #400	; 0x190
   14560:	9a000031 	bls	1462c <muslcsys_install_syscall+0xe8>
        int index = find_sparse_syscall(syscall);
   14564:	e51b0010 	ldr	r0, [fp, #-16]
   14568:	ebffffda 	bl	144d8 <find_sparse_syscall>
   1456c:	e50b000c 	str	r0, [fp, #-12]
        if (index < 0) {
   14570:	e51b300c 	ldr	r3, [fp, #-12]
   14574:	e3530000 	cmp	r3, #0
   14578:	aa00001c 	bge	145f0 <muslcsys_install_syscall+0xac>
            ZF_LOGF("Syscall %d exceeds syscall table size of %zu and not found in sparse table", syscall,
   1457c:	e3083104 	movw	r3, #33028	; 0x8104
   14580:	e3403004 	movt	r3, #4
   14584:	e5933000 	ldr	r3, [r3]
   14588:	e3530801 	cmp	r3, #65536	; 0x10000
   1458c:	aa00000f 	bge	145d0 <muslcsys_install_syscall+0x8c>
   14590:	e3003191 	movw	r3, #401	; 0x191
   14594:	e58d300c 	str	r3, [sp, #12]
   14598:	e51b3010 	ldr	r3, [fp, #-16]
   1459c:	e58d3008 	str	r3, [sp, #8]
   145a0:	e3073bd0 	movw	r3, #31696	; 0x7bd0
   145a4:	e3403002 	movt	r3, #2
   145a8:	e58d3004 	str	r3, [sp, #4]
   145ac:	e3a03000 	mov	r3, #0
   145b0:	e58d3000 	str	r3, [sp]
   145b4:	e30f3fff 	movw	r3, #65535	; 0xffff
   145b8:	e3a020cc 	mov	r2, #204	; 0xcc
   145bc:	e3071ae4 	movw	r1, #31460	; 0x7ae4
   145c0:	e3401002 	movt	r1, #2
   145c4:	e3070cf4 	movw	r0, #31988	; 0x7cf4
   145c8:	e3400002 	movt	r0, #2
   145cc:	eb00266d 	bl	1df88 <_zf_log_write_d>
   145d0:	e3073cf4 	movw	r3, #31988	; 0x7cf4
   145d4:	e3403002 	movt	r3, #2
   145d8:	e3a020cc 	mov	r2, #204	; 0xcc
   145dc:	e3071ae4 	movw	r1, #31460	; 0x7ae4
   145e0:	e3401002 	movt	r1, #2
   145e4:	e3070c1c 	movw	r0, #31772	; 0x7c1c
   145e8:	e3400002 	movt	r0, #2
   145ec:	eb0027de 	bl	1e56c <__assert_fail>
                    ARRAY_SIZE(syscall_table));
        }
        ret = sparse_syscall_table[index].syscall;
   145f0:	e30c2650 	movw	r2, #50768	; 0xc650
   145f4:	e3402002 	movt	r2, #2
   145f8:	e51b300c 	ldr	r3, [fp, #-12]
   145fc:	e1a03183 	lsl	r3, r3, #3
   14600:	e0823003 	add	r3, r2, r3
   14604:	e5933004 	ldr	r3, [r3, #4]
   14608:	e50b3008 	str	r3, [fp, #-8]
        sparse_syscall_table[index].syscall = ret;
   1460c:	e30c2650 	movw	r2, #50768	; 0xc650
   14610:	e3402002 	movt	r2, #2
   14614:	e51b300c 	ldr	r3, [fp, #-12]
   14618:	e1a03183 	lsl	r3, r3, #3
   1461c:	e0823003 	add	r3, r2, r3
   14620:	e51b2008 	ldr	r2, [fp, #-8]
   14624:	e5832004 	str	r2, [r3, #4]
   14628:	ea000009 	b	14654 <muslcsys_install_syscall+0x110>
    } else {
        ret = syscall_table[syscall];
   1462c:	e30c300c 	movw	r3, #49164	; 0xc00c
   14630:	e3403002 	movt	r3, #2
   14634:	e51b2010 	ldr	r2, [fp, #-16]
   14638:	e7933102 	ldr	r3, [r3, r2, lsl #2]
   1463c:	e50b3008 	str	r3, [fp, #-8]
        syscall_table[syscall] = new_syscall;
   14640:	e30c300c 	movw	r3, #49164	; 0xc00c
   14644:	e3403002 	movt	r3, #2
   14648:	e51b2010 	ldr	r2, [fp, #-16]
   1464c:	e51b1014 	ldr	r1, [fp, #-20]	; 0xffffffec
   14650:	e7831102 	str	r1, [r3, r2, lsl #2]
    }
    return ret;
   14654:	e51b3008 	ldr	r3, [fp, #-8]
}
   14658:	e1a00003 	mov	r0, r3
   1465c:	e24bd004 	sub	sp, fp, #4
   14660:	e8bd8800 	pop	{fp, pc}

00014664 <init_syscall_table>:
 * default implementation. We do this at the lowest priority so that
 * it can be overriden. We are able to have this constructor
 * in this file since we know it will get looked at by the linker due
 * to __vsyscall_ptr being here */
static void CONSTRUCTOR(CONSTRUCTOR_MIN_PRIORITY) init_syscall_table(void)
{
   14664:	e92d4800 	push	{fp, lr}
   14668:	e28db004 	add	fp, sp, #4
   1466c:	e24dd008 	sub	sp, sp, #8
    muslcsys_syscall_t ret UNUSED;
    ret = muslcsys_install_syscall(__NR_set_tid_address, sys_set_tid_address);
   14670:	e3041e40 	movw	r1, #20032	; 0x4e40
   14674:	e3401001 	movt	r1, #1
   14678:	e3a00c01 	mov	r0, #256	; 0x100
   1467c:	ebffffb0 	bl	14544 <muslcsys_install_syscall>
   14680:	e50b0008 	str	r0, [fp, #-8]
    assert(ret == boot_set_tid_address);
   14684:	e51b2008 	ldr	r2, [fp, #-8]
   14688:	e30432e4 	movw	r3, #17124	; 0x42e4
   1468c:	e3403001 	movt	r3, #1
   14690:	e1520003 	cmp	r2, r3
   14694:	0a000007 	beq	146b8 <init_syscall_table+0x54>
   14698:	e3073d10 	movw	r3, #32016	; 0x7d10
   1469c:	e3403002 	movt	r3, #2
   146a0:	e3a020e1 	mov	r2, #225	; 0xe1
   146a4:	e3071ae4 	movw	r1, #31460	; 0x7ae4
   146a8:	e3401002 	movt	r1, #2
   146ac:	e3070c2c 	movw	r0, #31788	; 0x7c2c
   146b0:	e3400002 	movt	r0, #2
   146b4:	eb0027ac 	bl	1e56c <__assert_fail>
#ifdef __NR_set_thread_area
    ret = muslcsys_install_syscall(__NR_set_thread_area, sys_set_thread_area);
    assert(ret == boot_set_thread_area);
#endif
#ifdef __ARM_NR_set_tls
    ret = muslcsys_install_syscall(__ARM_NR_set_tls, NULL);
   146b8:	e3a01000 	mov	r1, #0
   146bc:	e3a00005 	mov	r0, #5
   146c0:	e340000f 	movt	r0, #15
   146c4:	ebffff9e 	bl	14544 <muslcsys_install_syscall>
   146c8:	e50b0008 	str	r0, [fp, #-8]
    assert(ret == boot_set_thread_area);
   146cc:	e51b2008 	ldr	r2, [fp, #-8]
   146d0:	e304319c 	movw	r3, #16796	; 0x419c
   146d4:	e3403001 	movt	r3, #1
   146d8:	e1520003 	cmp	r2, r3
   146dc:	0a000007 	beq	14700 <init_syscall_table+0x9c>
   146e0:	e3073d10 	movw	r3, #32016	; 0x7d10
   146e4:	e3403002 	movt	r3, #2
   146e8:	e3a020e8 	mov	r2, #232	; 0xe8
   146ec:	e3071ae4 	movw	r1, #31460	; 0x7ae4
   146f0:	e3401002 	movt	r1, #2
   146f4:	e3070c48 	movw	r0, #31816	; 0x7c48
   146f8:	e3400002 	movt	r0, #2
   146fc:	eb00279a 	bl	1e56c <__assert_fail>
#endif
    ret = muslcsys_install_syscall(__NR_writev, sys_writev);
   14700:	e30310a8 	movw	r1, #12456	; 0x30a8
   14704:	e3401001 	movt	r1, #1
   14708:	e3a00092 	mov	r0, #146	; 0x92
   1470c:	ebffff8c 	bl	14544 <muslcsys_install_syscall>
   14710:	e50b0008 	str	r0, [fp, #-8]
    assert(ret == boot_sys_writev);
   14714:	e51b2008 	ldr	r2, [fp, #-8]
   14718:	e30433d8 	movw	r3, #17368	; 0x43d8
   1471c:	e3403001 	movt	r3, #1
   14720:	e1520003 	cmp	r2, r3
   14724:	0a000007 	beq	14748 <init_syscall_table+0xe4>
   14728:	e3073d10 	movw	r3, #32016	; 0x7d10
   1472c:	e3403002 	movt	r3, #2
   14730:	e3a020eb 	mov	r2, #235	; 0xeb
   14734:	e3071ae4 	movw	r1, #31460	; 0x7ae4
   14738:	e3401002 	movt	r1, #2
   1473c:	e3070c64 	movw	r0, #31844	; 0x7c64
   14740:	e3400002 	movt	r0, #2
   14744:	eb002788 	bl	1e56c <__assert_fail>
}
   14748:	e320f000 	nop	{0}
   1474c:	e24bd004 	sub	sp, fp, #4
   14750:	e8bd8800 	pop	{fp, pc}

00014754 <debug_error>:
}
#endif

#ifdef CONFIG_PRINTING
static void debug_error(int sysnum)
{
   14754:	e92d4800 	push	{fp, lr}
   14758:	e28db004 	add	fp, sp, #4
   1475c:	e24dd070 	sub	sp, sp, #112	; 0x70
   14760:	e50b0070 	str	r0, [fp, #-112]	; 0xffffff90
    char buf[100];
    int i;
    sprintf(buf, "libsel4muslcsys: Error attempting syscall %d\n", sysnum);
   14764:	e24b306c 	sub	r3, fp, #108	; 0x6c
   14768:	e51b2070 	ldr	r2, [fp, #-112]	; 0xffffff90
   1476c:	e3071c7c 	movw	r1, #31868	; 0x7c7c
   14770:	e3401002 	movt	r1, #2
   14774:	e1a00003 	mov	r0, r3
   14778:	eb002c63 	bl	1f90c <sprintf>
    for (i = 0; buf[i]; i++) {
   1477c:	e3a03000 	mov	r3, #0
   14780:	e50b3008 	str	r3, [fp, #-8]
   14784:	ea000008 	b	147ac <debug_error+0x58>
        seL4_DebugPutChar(buf[i]);
   14788:	e24b206c 	sub	r2, fp, #108	; 0x6c
   1478c:	e51b3008 	ldr	r3, [fp, #-8]
   14790:	e0823003 	add	r3, r2, r3
   14794:	e5d33000 	ldrb	r3, [r3]
   14798:	e1a00003 	mov	r0, r3
   1479c:	ebfffe1f 	bl	14020 <seL4_DebugPutChar>
    for (i = 0; buf[i]; i++) {
   147a0:	e51b3008 	ldr	r3, [fp, #-8]
   147a4:	e2833001 	add	r3, r3, #1
   147a8:	e50b3008 	str	r3, [fp, #-8]
   147ac:	e24b206c 	sub	r2, fp, #108	; 0x6c
   147b0:	e51b3008 	ldr	r3, [fp, #-8]
   147b4:	e0823003 	add	r3, r2, r3
   147b8:	e5d33000 	ldrb	r3, [r3]
   147bc:	e3530000 	cmp	r3, #0
   147c0:	1afffff0 	bne	14788 <debug_error+0x34>
    }
}
   147c4:	e320f000 	nop	{0}
   147c8:	e320f000 	nop	{0}
   147cc:	e24bd004 	sub	sp, fp, #4
   147d0:	e8bd8800 	pop	{fp, pc}

000147d4 <sel4_vsyscall>:
{
}
#endif

long sel4_vsyscall(long sysnum, ...)
{
   147d4:	e92d000f 	push	{r0, r1, r2, r3}
   147d8:	e92d4800 	push	{fp, lr}
   147dc:	e28db004 	add	fp, sp, #4
   147e0:	e24dd010 	sub	sp, sp, #16
    va_list al;
    va_start(al, sysnum);
   147e4:	e28b3008 	add	r3, fp, #8
   147e8:	e50b3014 	str	r3, [fp, #-20]	; 0xffffffec
    muslcsys_syscall_t syscall;
    if (sysnum < 0 || sysnum >= ARRAY_SIZE(syscall_table)) {
   147ec:	e59b3004 	ldr	r3, [fp, #4]
   147f0:	e3530000 	cmp	r3, #0
   147f4:	ba000002 	blt	14804 <sel4_vsyscall+0x30>
   147f8:	e59b3004 	ldr	r3, [fp, #4]
   147fc:	e3530e19 	cmp	r3, #400	; 0x190
   14800:	9a000011 	bls	1484c <sel4_vsyscall+0x78>
        int index = find_sparse_syscall(sysnum);
   14804:	e59b0004 	ldr	r0, [fp, #4]
   14808:	ebffff32 	bl	144d8 <find_sparse_syscall>
   1480c:	e50b000c 	str	r0, [fp, #-12]
        if (index < 0) {
   14810:	e51b300c 	ldr	r3, [fp, #-12]
   14814:	e3530000 	cmp	r3, #0
   14818:	aa000003 	bge	1482c <sel4_vsyscall+0x58>
            debug_error(sysnum);
   1481c:	e59b0004 	ldr	r0, [fp, #4]
   14820:	ebffffcb 	bl	14754 <debug_error>
            va_end(al);
            return -ENOSYS;
   14824:	e3e03025 	mvn	r3, #37	; 0x25
   14828:	ea000018 	b	14890 <sel4_vsyscall+0xbc>
        }
        syscall = sparse_syscall_table[index].syscall;
   1482c:	e30c2650 	movw	r2, #50768	; 0xc650
   14830:	e3402002 	movt	r2, #2
   14834:	e51b300c 	ldr	r3, [fp, #-12]
   14838:	e1a03183 	lsl	r3, r3, #3
   1483c:	e0823003 	add	r3, r2, r3
   14840:	e5933004 	ldr	r3, [r3, #4]
   14844:	e50b3008 	str	r3, [fp, #-8]
    if (sysnum < 0 || sysnum >= ARRAY_SIZE(syscall_table)) {
   14848:	ea000004 	b	14860 <sel4_vsyscall+0x8c>
    } else {
        syscall = syscall_table[sysnum];
   1484c:	e30c300c 	movw	r3, #49164	; 0xc00c
   14850:	e3403002 	movt	r3, #2
   14854:	e59b2004 	ldr	r2, [fp, #4]
   14858:	e7933102 	ldr	r3, [r3, r2, lsl #2]
   1485c:	e50b3008 	str	r3, [fp, #-8]
    }
    /* Check a syscall is implemented there */
    if (!syscall) {
   14860:	e51b3008 	ldr	r3, [fp, #-8]
   14864:	e3530000 	cmp	r3, #0
   14868:	1a000003 	bne	1487c <sel4_vsyscall+0xa8>
        debug_error(sysnum);
   1486c:	e59b0004 	ldr	r0, [fp, #4]
   14870:	ebffffb7 	bl	14754 <debug_error>
        va_end(al);
        return -ENOSYS;
   14874:	e3e03025 	mvn	r3, #37	; 0x25
   14878:	ea000004 	b	14890 <sel4_vsyscall+0xbc>
    }
    /* Call it */
    long ret = syscall(al);
   1487c:	e51b3008 	ldr	r3, [fp, #-8]
   14880:	e51b0014 	ldr	r0, [fp, #-20]	; 0xffffffec
   14884:	e12fff33 	blx	r3
   14888:	e50b0010 	str	r0, [fp, #-16]
    va_end(al);
    return ret;
   1488c:	e51b3010 	ldr	r3, [fp, #-16]
}
   14890:	e1a00003 	mov	r0, r3
   14894:	e24bd004 	sub	sp, fp, #4
   14898:	e8bd4800 	pop	{fp, lr}
   1489c:	e28dd010 	add	sp, sp, #16
   148a0:	e12fff1e 	bx	lr

000148a4 <init_vsyscall>:
 * This is required for apps using a dynamic heap, which need to make
 * use of malloc in order to provide an implementation of brk and mmap
 * that are used during the initialisation of muslc.
 */
static void CONSTRUCTOR(MUSLCSYS_WITH_VSYSCALL_PRIORITY - 1) init_vsyscall(void)
{
   148a4:	e52db004 	push	{fp}		; (str fp, [sp, #-4]!)
   148a8:	e28db000 	add	fp, sp, #0
    __sysinfo = sel4_vsyscall;
   148ac:	e3093044 	movw	r3, #36932	; 0x9044
   148b0:	e3403014 	movt	r3, #20
   148b4:	e30427d4 	movw	r2, #18388	; 0x47d4
   148b8:	e3402001 	movt	r2, #1
   148bc:	e5832000 	str	r2, [r3]
}
   148c0:	e320f000 	nop	{0}
   148c4:	e28bd000 	add	sp, fp, #0
   148c8:	e49db004 	pop	{fp}		; (ldr fp, [sp], #4)
   148cc:	e12fff1e 	bx	lr

000148d0 <update_ipc_buffer>:
 * for `__sel4_ipc_buffer` only once in the same function, even across
 * function calls, and thus will not update any newly created TLS region
 * with the IPC buffer address.
 */
static void NO_INLINE update_ipc_buffer(seL4_IPCBuffer *tmp)
{
   148d0:	e92d4800 	push	{fp, lr}
   148d4:	e28db004 	add	fp, sp, #4
   148d8:	e24dd008 	sub	sp, sp, #8
   148dc:	e50b0008 	str	r0, [fp, #-8]
    __sel4_ipc_buffer = tmp;
   148e0:	ebfff685 	bl	122fc <__aeabi_read_tp>
   148e4:	e1a02000 	mov	r2, r0
   148e8:	e59f1010 	ldr	r1, [pc, #16]	; 14900 <update_ipc_buffer+0x30>
   148ec:	e51b3008 	ldr	r3, [fp, #-8]
   148f0:	e7823001 	str	r3, [r2, r1]
}
   148f4:	e320f000 	nop	{0}
   148f8:	e24bd004 	sub	sp, fp, #4
   148fc:	e8bd8800 	pop	{fp, pc}
   14900:	00000008 	andeq	r0, r0, r8

00014904 <muslcsys_init_muslc>:

/* Initialise muslc environment */
void CONSTRUCTOR(CONFIG_LIB_SEL4_MUSLC_SYS_CONSTRUCTOR_PRIORITY) muslcsys_init_muslc(void)
{
   14904:	e92d4810 	push	{r4, fp, lr}
   14908:	e28db008 	add	fp, sp, #8
   1490c:	e24dd00c 	sub	sp, sp, #12
    seL4_IPCBuffer *tmp = __sel4_ipc_buffer;
   14910:	ebfff679 	bl	122fc <__aeabi_read_tp>
   14914:	e1a03000 	mov	r3, r0
   14918:	e59f2038 	ldr	r2, [pc, #56]	; 14958 <muslcsys_init_muslc+0x54>
   1491c:	e7933002 	ldr	r3, [r3, r2]
   14920:	e50b3010 	str	r3, [fp, #-16]
    __init_libc(sel4runtime_envp(), sel4runtime_argv()[0]);
   14924:	ebffef80 	bl	1072c <sel4runtime_envp>
   14928:	e1a04000 	mov	r4, r0
   1492c:	ebffef6c 	bl	106e4 <sel4runtime_argv>
   14930:	e1a03000 	mov	r3, r0
   14934:	e5933000 	ldr	r3, [r3]
   14938:	e1a01003 	mov	r1, r3
   1493c:	e1a00004 	mov	r0, r4
   14940:	eb002647 	bl	1e264 <__init_libc>
    update_ipc_buffer(tmp);
   14944:	e51b0010 	ldr	r0, [fp, #-16]
   14948:	ebffffe0 	bl	148d0 <update_ipc_buffer>
}
   1494c:	e320f000 	nop	{0}
   14950:	e24bd008 	sub	sp, fp, #8
   14954:	e8bd8810 	pop	{r4, fp, pc}
   14958:	00000008 	andeq	r0, r0, r8

0001495c <sel4_abort>:
#include <stdlib.h>
#include <stdarg.h>
#include <utils/util.h>

static void sel4_abort(void)
{
   1495c:	e52db004 	push	{fp}		; (str fp, [sp, #-4]!)
   14960:	e28db000 	add	fp, sp, #0
#if defined(CONFIG_DEBUG_BUILD) && defined(CONFIG_LIB_SEL4_MUSLC_SYS_DEBUG_HALT)
    printf("seL4 root server abort()ed\n");
    seL4_DebugHalt();
#endif
    while (1); /* We don't return after this */
   14964:	eafffffe 	b	14964 <sel4_abort+0x8>

00014968 <sys_exit>:
}

long sys_exit(va_list ap)
{
   14968:	e92d4800 	push	{fp, lr}
   1496c:	e28db004 	add	fp, sp, #4
   14970:	e24dd008 	sub	sp, sp, #8
   14974:	e50b0008 	str	r0, [fp, #-8]
    abort();
   14978:	eb0026f1 	bl	1e544 <abort>

0001497c <sys_rt_sigprocmask>:
    return 0;
}

long sys_rt_sigprocmask(va_list ap)
{
   1497c:	e52db004 	push	{fp}		; (str fp, [sp, #-4]!)
   14980:	e28db000 	add	fp, sp, #0
   14984:	e24dd00c 	sub	sp, sp, #12
   14988:	e50b0008 	str	r0, [fp, #-8]
    ZF_LOGV("Ignoring call to %s", __FUNCTION__);
    return 0;
   1498c:	e3a03000 	mov	r3, #0
}
   14990:	e1a00003 	mov	r0, r3
   14994:	e28bd000 	add	sp, fp, #0
   14998:	e49db004 	pop	{fp}		; (ldr fp, [sp], #4)
   1499c:	e12fff1e 	bx	lr

000149a0 <sys_gettid>:

long sys_gettid(va_list ap)
{
   149a0:	e52db004 	push	{fp}		; (str fp, [sp, #-4]!)
   149a4:	e28db000 	add	fp, sp, #0
   149a8:	e24dd00c 	sub	sp, sp, #12
   149ac:	e50b0008 	str	r0, [fp, #-8]
    ZF_LOGV("Ignoring call to %s", __FUNCTION__);
    return 0;
   149b0:	e3a03000 	mov	r3, #0
}
   149b4:	e1a00003 	mov	r0, r3
   149b8:	e28bd000 	add	sp, fp, #0
   149bc:	e49db004 	pop	{fp}		; (ldr fp, [sp], #4)
   149c0:	e12fff1e 	bx	lr

000149c4 <sys_getpid>:

long sys_getpid(va_list ap)
{
   149c4:	e52db004 	push	{fp}		; (str fp, [sp, #-4]!)
   149c8:	e28db000 	add	fp, sp, #0
   149cc:	e24dd00c 	sub	sp, sp, #12
   149d0:	e50b0008 	str	r0, [fp, #-8]
    ZF_LOGV("Ignoring call to %s", __FUNCTION__);
    return 0;
   149d4:	e3a03000 	mov	r3, #0
}
   149d8:	e1a00003 	mov	r0, r3
   149dc:	e28bd000 	add	sp, fp, #0
   149e0:	e49db004 	pop	{fp}		; (ldr fp, [sp], #4)
   149e4:	e12fff1e 	bx	lr

000149e8 <sys_tgkill>:

long sys_tgkill(va_list ap)
{
   149e8:	e92d4800 	push	{fp, lr}
   149ec:	e28db004 	add	fp, sp, #4
   149f0:	e24dd008 	sub	sp, sp, #8
   149f4:	e50b0008 	str	r0, [fp, #-8]
    ZF_LOGV("%s assuming self kill", __FUNCTION__);
    sel4_abort();
   149f8:	ebffffd7 	bl	1495c <sel4_abort>
    return 0;
   149fc:	e3a03000 	mov	r3, #0
}
   14a00:	e1a00003 	mov	r0, r3
   14a04:	e24bd004 	sub	sp, fp, #4
   14a08:	e8bd8800 	pop	{fp, pc}

00014a0c <sys_tkill>:

long sys_tkill(va_list ap)
{
   14a0c:	e92d4800 	push	{fp, lr}
   14a10:	e28db004 	add	fp, sp, #4
   14a14:	e24dd008 	sub	sp, sp, #8
   14a18:	e50b0008 	str	r0, [fp, #-8]
    ZF_LOGV("%s assuming self kill", __FUNCTION__);
    sel4_abort();
   14a1c:	ebffffce 	bl	1495c <sel4_abort>
    return 0;
   14a20:	e3a03000 	mov	r3, #0
}
   14a24:	e1a00003 	mov	r0, r3
   14a28:	e24bd004 	sub	sp, fp, #4
   14a2c:	e8bd8800 	pop	{fp, pc}

00014a30 <sys_exit_group>:

long sys_exit_group(va_list ap)
{
   14a30:	e52db004 	push	{fp}		; (str fp, [sp, #-4]!)
   14a34:	e28db000 	add	fp, sp, #0
   14a38:	e24dd00c 	sub	sp, sp, #12
   14a3c:	e50b0008 	str	r0, [fp, #-8]
    ZF_LOGV("Ignoring call to %s", __FUNCTION__);
    return 0;
   14a40:	e3a03000 	mov	r3, #0
}
   14a44:	e1a00003 	mov	r0, r3
   14a48:	e28bd000 	add	sp, fp, #0
   14a4c:	e49db004 	pop	{fp}		; (ldr fp, [sp], #4)
   14a50:	e12fff1e 	bx	lr

00014a54 <sys_brk>:
/* Actual morecore implementation
   returns 0 if failure, returns newbrk if success.
*/

long sys_brk(va_list ap)
{
   14a54:	e52db004 	push	{fp}		; (str fp, [sp, #-4]!)
   14a58:	e28db000 	add	fp, sp, #0
   14a5c:	e24dd014 	sub	sp, sp, #20
   14a60:	e50b0010 	str	r0, [fp, #-16]

    uintptr_t ret;
    uintptr_t newbrk = va_arg(ap, uintptr_t);
   14a64:	e51b3010 	ldr	r3, [fp, #-16]
   14a68:	e2832004 	add	r2, r3, #4
   14a6c:	e50b2010 	str	r2, [fp, #-16]
   14a70:	e5933000 	ldr	r3, [r3]
   14a74:	e50b300c 	str	r3, [fp, #-12]

    /*if the newbrk is 0, return the bottom of the heap*/
    if (!newbrk) {
   14a78:	e51b300c 	ldr	r3, [fp, #-12]
   14a7c:	e3530000 	cmp	r3, #0
   14a80:	1a000004 	bne	14a98 <sys_brk+0x44>
        ret = morecore_base;
   14a84:	e30c367c 	movw	r3, #50812	; 0xc67c
   14a88:	e3403002 	movt	r3, #2
   14a8c:	e5933000 	ldr	r3, [r3]
   14a90:	e50b3008 	str	r3, [fp, #-8]
   14a94:	ea000015 	b	14af0 <sys_brk+0x9c>
    } else if (newbrk < morecore_top && newbrk > (uintptr_t)&morecore_area[0]) {
   14a98:	e30c3680 	movw	r3, #50816	; 0xc680
   14a9c:	e3403002 	movt	r3, #2
   14aa0:	e5933000 	ldr	r3, [r3]
   14aa4:	e51b200c 	ldr	r2, [fp, #-12]
   14aa8:	e1520003 	cmp	r2, r3
   14aac:	2a00000d 	bcs	14ae8 <sys_brk+0x94>
   14ab0:	e3093000 	movw	r3, #36864	; 0x9000
   14ab4:	e3403004 	movt	r3, #4
   14ab8:	e51b200c 	ldr	r2, [fp, #-12]
   14abc:	e1520003 	cmp	r2, r3
   14ac0:	9a000008 	bls	14ae8 <sys_brk+0x94>
        ret = morecore_base = newbrk;
   14ac4:	e30c367c 	movw	r3, #50812	; 0xc67c
   14ac8:	e3403002 	movt	r3, #2
   14acc:	e51b200c 	ldr	r2, [fp, #-12]
   14ad0:	e5832000 	str	r2, [r3]
   14ad4:	e30c367c 	movw	r3, #50812	; 0xc67c
   14ad8:	e3403002 	movt	r3, #2
   14adc:	e5933000 	ldr	r3, [r3]
   14ae0:	e50b3008 	str	r3, [fp, #-8]
   14ae4:	ea000001 	b	14af0 <sys_brk+0x9c>
    } else {
        ret = 0;
   14ae8:	e3a03000 	mov	r3, #0
   14aec:	e50b3008 	str	r3, [fp, #-8]
    }

    return ret;
   14af0:	e51b3008 	ldr	r3, [fp, #-8]
}
   14af4:	e1a00003 	mov	r0, r3
   14af8:	e28bd000 	add	sp, fp, #0
   14afc:	e49db004 	pop	{fp}		; (ldr fp, [sp], #4)
   14b00:	e12fff1e 	bx	lr

00014b04 <sys_mmap_impl>:

/* Large mallocs will result in muslc calling mmap, so we do a minimal implementation
   here to support that. We make a bunch of assumptions in the process */
long sys_mmap_impl(void *addr, size_t length, int prot, int flags, int fd, off_t offset)
{
   14b04:	e92d4800 	push	{fp, lr}
   14b08:	e28db004 	add	fp, sp, #4
   14b0c:	e24dd010 	sub	sp, sp, #16
   14b10:	e50b0008 	str	r0, [fp, #-8]
   14b14:	e50b100c 	str	r1, [fp, #-12]
   14b18:	e50b2010 	str	r2, [fp, #-16]
   14b1c:	e50b3014 	str	r3, [fp, #-20]	; 0xffffffec
    if (flags & MAP_ANONYMOUS) {
   14b20:	e51b3014 	ldr	r3, [fp, #-20]	; 0xffffffec
   14b24:	e2033020 	and	r3, r3, #32
   14b28:	e3530000 	cmp	r3, #0
   14b2c:	0a000017 	beq	14b90 <sys_mmap_impl+0x8c>
        /* Check that we don't try and allocate more than exists */
        if (length > morecore_top - morecore_base) {
   14b30:	e30c3680 	movw	r3, #50816	; 0xc680
   14b34:	e3403002 	movt	r3, #2
   14b38:	e5932000 	ldr	r2, [r3]
   14b3c:	e30c367c 	movw	r3, #50812	; 0xc67c
   14b40:	e3403002 	movt	r3, #2
   14b44:	e5933000 	ldr	r3, [r3]
   14b48:	e0423003 	sub	r3, r2, r3
   14b4c:	e51b200c 	ldr	r2, [fp, #-12]
   14b50:	e1520003 	cmp	r2, r3
   14b54:	9a000001 	bls	14b60 <sys_mmap_impl+0x5c>
            return -ENOMEM;
   14b58:	e3e0300b 	mvn	r3, #11
   14b5c:	ea000013 	b	14bb0 <sys_mmap_impl+0xac>
        }
        /* Steal from the top */
        morecore_top -= length;
   14b60:	e30c3680 	movw	r3, #50816	; 0xc680
   14b64:	e3403002 	movt	r3, #2
   14b68:	e5932000 	ldr	r2, [r3]
   14b6c:	e51b300c 	ldr	r3, [fp, #-12]
   14b70:	e0422003 	sub	r2, r2, r3
   14b74:	e30c3680 	movw	r3, #50816	; 0xc680
   14b78:	e3403002 	movt	r3, #2
   14b7c:	e5832000 	str	r2, [r3]
        return morecore_top;
   14b80:	e30c3680 	movw	r3, #50816	; 0xc680
   14b84:	e3403002 	movt	r3, #2
   14b88:	e5933000 	ldr	r3, [r3]
   14b8c:	ea000007 	b	14bb0 <sys_mmap_impl+0xac>
    }
    assert(!"not implemented");
   14b90:	e3073e18 	movw	r3, #32280	; 0x7e18
   14b94:	e3403002 	movt	r3, #2
   14b98:	e3a0204b 	mov	r2, #75	; 0x4b
   14b9c:	e3071d44 	movw	r1, #32068	; 0x7d44
   14ba0:	e3401002 	movt	r1, #2
   14ba4:	e3070da8 	movw	r0, #32168	; 0x7da8
   14ba8:	e3400002 	movt	r0, #2
   14bac:	eb00266e 	bl	1e56c <__assert_fail>
    return -ENOMEM;
}
   14bb0:	e1a00003 	mov	r0, r3
   14bb4:	e24bd004 	sub	sp, fp, #4
   14bb8:	e8bd8800 	pop	{fp, pc}

00014bbc <sys_mremap>:

long sys_mremap(va_list ap)
{
   14bbc:	e92d4800 	push	{fp, lr}
   14bc0:	e28db004 	add	fp, sp, #4
   14bc4:	e24dd008 	sub	sp, sp, #8
   14bc8:	e50b0008 	str	r0, [fp, #-8]
    assert(!"not implemented");
   14bcc:	e3073e28 	movw	r3, #32296	; 0x7e28
   14bd0:	e3403002 	movt	r3, #2
   14bd4:	e3a02051 	mov	r2, #81	; 0x51
   14bd8:	e3071d44 	movw	r1, #32068	; 0x7d44
   14bdc:	e3401002 	movt	r1, #2
   14be0:	e3070da8 	movw	r0, #32168	; 0x7da8
   14be4:	e3400002 	movt	r0, #2
   14be8:	eb00265f 	bl	1e56c <__assert_fail>

00014bec <sys_madvise>:

#endif

/* This is a "dummy" implementation of sys_madvise() to satisfy free() in muslc. */
long sys_madvise(va_list ap)
{
   14bec:	e52db004 	push	{fp}		; (str fp, [sp, #-4]!)
   14bf0:	e28db000 	add	fp, sp, #0
   14bf4:	e24dd00c 	sub	sp, sp, #12
   14bf8:	e50b0008 	str	r0, [fp, #-8]
    ZF_LOGV("calling dummy version of sys_madvise()\n");
    return 0;
   14bfc:	e3a03000 	mov	r3, #0
}
   14c00:	e1a00003 	mov	r0, r3
   14c04:	e28bd000 	add	sp, fp, #0
   14c08:	e49db004 	pop	{fp}		; (ldr fp, [sp], #4)
   14c0c:	e12fff1e 	bx	lr

00014c10 <sys_mmap>:

long sys_mmap(va_list ap)
{
   14c10:	e92d4800 	push	{fp, lr}
   14c14:	e28db004 	add	fp, sp, #4
   14c18:	e24dd038 	sub	sp, sp, #56	; 0x38
   14c1c:	e50b0028 	str	r0, [fp, #-40]	; 0xffffffd8
    void *addr = va_arg(ap, void *);
   14c20:	e51b3028 	ldr	r3, [fp, #-40]	; 0xffffffd8
   14c24:	e2832004 	add	r2, r3, #4
   14c28:	e50b2028 	str	r2, [fp, #-40]	; 0xffffffd8
   14c2c:	e5933000 	ldr	r3, [r3]
   14c30:	e50b3008 	str	r3, [fp, #-8]
    size_t length = va_arg(ap, size_t);
   14c34:	e51b3028 	ldr	r3, [fp, #-40]	; 0xffffffd8
   14c38:	e2832004 	add	r2, r3, #4
   14c3c:	e50b2028 	str	r2, [fp, #-40]	; 0xffffffd8
   14c40:	e5933000 	ldr	r3, [r3]
   14c44:	e50b300c 	str	r3, [fp, #-12]
    int prot = va_arg(ap, int);
   14c48:	e51b3028 	ldr	r3, [fp, #-40]	; 0xffffffd8
   14c4c:	e2832004 	add	r2, r3, #4
   14c50:	e50b2028 	str	r2, [fp, #-40]	; 0xffffffd8
   14c54:	e5933000 	ldr	r3, [r3]
   14c58:	e50b3010 	str	r3, [fp, #-16]
    int flags = va_arg(ap, int);
   14c5c:	e51b3028 	ldr	r3, [fp, #-40]	; 0xffffffd8
   14c60:	e2832004 	add	r2, r3, #4
   14c64:	e50b2028 	str	r2, [fp, #-40]	; 0xffffffd8
   14c68:	e5933000 	ldr	r3, [r3]
   14c6c:	e50b3014 	str	r3, [fp, #-20]	; 0xffffffec
    int fd = va_arg(ap, int);
   14c70:	e51b3028 	ldr	r3, [fp, #-40]	; 0xffffffd8
   14c74:	e2832004 	add	r2, r3, #4
   14c78:	e50b2028 	str	r2, [fp, #-40]	; 0xffffffd8
   14c7c:	e5933000 	ldr	r3, [r3]
   14c80:	e50b3018 	str	r3, [fp, #-24]	; 0xffffffe8
    off_t offset = va_arg(ap, off_t);
   14c84:	e51b3028 	ldr	r3, [fp, #-40]	; 0xffffffd8
   14c88:	e2833007 	add	r3, r3, #7
   14c8c:	e3c33007 	bic	r3, r3, #7
   14c90:	e2832008 	add	r2, r3, #8
   14c94:	e50b2028 	str	r2, [fp, #-40]	; 0xffffffd8
   14c98:	e1c320d0 	ldrd	r2, [r3]
   14c9c:	e14b22f4 	strd	r2, [fp, #-36]	; 0xffffffdc
    return sys_mmap_impl(addr, length, prot, flags, fd, offset);
   14ca0:	e14b22d4 	ldrd	r2, [fp, #-36]	; 0xffffffdc
   14ca4:	e1cd20f8 	strd	r2, [sp, #8]
   14ca8:	e51b3018 	ldr	r3, [fp, #-24]	; 0xffffffe8
   14cac:	e58d3000 	str	r3, [sp]
   14cb0:	e51b3014 	ldr	r3, [fp, #-20]	; 0xffffffec
   14cb4:	e51b2010 	ldr	r2, [fp, #-16]
   14cb8:	e51b100c 	ldr	r1, [fp, #-12]
   14cbc:	e51b0008 	ldr	r0, [fp, #-8]
   14cc0:	ebffff8f 	bl	14b04 <sys_mmap_impl>
   14cc4:	e1a03000 	mov	r3, r0
}
   14cc8:	e1a00003 	mov	r0, r3
   14ccc:	e24bd004 	sub	sp, fp, #4
   14cd0:	e8bd8800 	pop	{fp, pc}

00014cd4 <sys_mmap2>:

long sys_mmap2(va_list ap)
{
   14cd4:	e92d4800 	push	{fp, lr}
   14cd8:	e28db004 	add	fp, sp, #4
   14cdc:	e24dd038 	sub	sp, sp, #56	; 0x38
   14ce0:	e50b0028 	str	r0, [fp, #-40]	; 0xffffffd8
    void *addr = va_arg(ap, void *);
   14ce4:	e51b3028 	ldr	r3, [fp, #-40]	; 0xffffffd8
   14ce8:	e2832004 	add	r2, r3, #4
   14cec:	e50b2028 	str	r2, [fp, #-40]	; 0xffffffd8
   14cf0:	e5933000 	ldr	r3, [r3]
   14cf4:	e50b3008 	str	r3, [fp, #-8]
    size_t length = va_arg(ap, size_t);
   14cf8:	e51b3028 	ldr	r3, [fp, #-40]	; 0xffffffd8
   14cfc:	e2832004 	add	r2, r3, #4
   14d00:	e50b2028 	str	r2, [fp, #-40]	; 0xffffffd8
   14d04:	e5933000 	ldr	r3, [r3]
   14d08:	e50b300c 	str	r3, [fp, #-12]
    int prot = va_arg(ap, int);
   14d0c:	e51b3028 	ldr	r3, [fp, #-40]	; 0xffffffd8
   14d10:	e2832004 	add	r2, r3, #4
   14d14:	e50b2028 	str	r2, [fp, #-40]	; 0xffffffd8
   14d18:	e5933000 	ldr	r3, [r3]
   14d1c:	e50b3010 	str	r3, [fp, #-16]
    int flags = va_arg(ap, int);
   14d20:	e51b3028 	ldr	r3, [fp, #-40]	; 0xffffffd8
   14d24:	e2832004 	add	r2, r3, #4
   14d28:	e50b2028 	str	r2, [fp, #-40]	; 0xffffffd8
   14d2c:	e5933000 	ldr	r3, [r3]
   14d30:	e50b3014 	str	r3, [fp, #-20]	; 0xffffffec
    int fd = va_arg(ap, int);
   14d34:	e51b3028 	ldr	r3, [fp, #-40]	; 0xffffffd8
   14d38:	e2832004 	add	r2, r3, #4
   14d3c:	e50b2028 	str	r2, [fp, #-40]	; 0xffffffd8
   14d40:	e5933000 	ldr	r3, [r3]
   14d44:	e50b3018 	str	r3, [fp, #-24]	; 0xffffffe8
    off_t offset = va_arg(ap, off_t);
   14d48:	e51b3028 	ldr	r3, [fp, #-40]	; 0xffffffd8
   14d4c:	e2833007 	add	r3, r3, #7
   14d50:	e3c33007 	bic	r3, r3, #7
   14d54:	e2832008 	add	r2, r3, #8
   14d58:	e50b2028 	str	r2, [fp, #-40]	; 0xffffffd8
   14d5c:	e1c320d0 	ldrd	r2, [r3]
   14d60:	e14b22f4 	strd	r2, [fp, #-36]	; 0xffffffdc
    /* for now redirect to mmap. muslc always defines an off_t as being an int64 */
    /* so this will not overflow */
    return sys_mmap_impl(addr, length, prot, flags, fd, offset * 4096);
   14d64:	e14b02d4 	ldrd	r0, [fp, #-36]	; 0xffffffdc
   14d68:	e3a02000 	mov	r2, #0
   14d6c:	e3a03000 	mov	r3, #0
   14d70:	e1a03601 	lsl	r3, r1, #12
   14d74:	e1833a20 	orr	r3, r3, r0, lsr #20
   14d78:	e1a02600 	lsl	r2, r0, #12
   14d7c:	e1cd20f8 	strd	r2, [sp, #8]
   14d80:	e51b3018 	ldr	r3, [fp, #-24]	; 0xffffffe8
   14d84:	e58d3000 	str	r3, [sp]
   14d88:	e51b3014 	ldr	r3, [fp, #-20]	; 0xffffffec
   14d8c:	e51b2010 	ldr	r2, [fp, #-16]
   14d90:	e51b100c 	ldr	r1, [fp, #-12]
   14d94:	e51b0008 	ldr	r0, [fp, #-8]
   14d98:	ebffff59 	bl	14b04 <sys_mmap_impl>
   14d9c:	e1a03000 	mov	r3, r0
}
   14da0:	e1a00003 	mov	r0, r3
   14da4:	e24bd004 	sub	sp, fp, #4
   14da8:	e8bd8800 	pop	{fp, pc}

00014dac <sys_munmap>:

long sys_munmap(va_list ap)
{
   14dac:	e92d4800 	push	{fp, lr}
   14db0:	e28db004 	add	fp, sp, #4
   14db4:	e24dd018 	sub	sp, sp, #24
   14db8:	e50b0008 	str	r0, [fp, #-8]
    ZF_LOGE("%s is unsupported. This may have been called due to a "
   14dbc:	e3083104 	movw	r3, #33028	; 0x8104
   14dc0:	e3403004 	movt	r3, #4
   14dc4:	e5933000 	ldr	r3, [r3]
   14dc8:	e3530005 	cmp	r3, #5
   14dcc:	ca00000e 	bgt	14e0c <sys_munmap+0x60>
   14dd0:	e3073e34 	movw	r3, #32308	; 0x7e34
   14dd4:	e3403002 	movt	r3, #2
   14dd8:	e58d3008 	str	r3, [sp, #8]
   14ddc:	e3073dbc 	movw	r3, #32188	; 0x7dbc
   14de0:	e3403002 	movt	r3, #2
   14de4:	e58d3004 	str	r3, [sp, #4]
   14de8:	e3a03000 	mov	r3, #0
   14dec:	e58d3000 	str	r3, [sp]
   14df0:	e3a03005 	mov	r3, #5
   14df4:	e300216f 	movw	r2, #367	; 0x16f
   14df8:	e3071d44 	movw	r1, #32068	; 0x7d44
   14dfc:	e3401002 	movt	r1, #2
   14e00:	e3070e34 	movw	r0, #32308	; 0x7e34
   14e04:	e3400002 	movt	r0, #2
   14e08:	eb00245e 	bl	1df88 <_zf_log_write_d>
            "large malloc'd region being free'd.", __func__);
    return 0;
   14e0c:	e3a03000 	mov	r3, #0
}
   14e10:	e1a00003 	mov	r0, r3
   14e14:	e24bd004 	sub	sp, fp, #4
   14e18:	e8bd8800 	pop	{fp, pc}

00014e1c <sys_set_thread_area>:
 */

#include <stdio.h>
#include <bits/errno.h>

long sys_set_thread_area(va_list ap) {
   14e1c:	e52db004 	push	{fp}		; (str fp, [sp, #-4]!)
   14e20:	e28db000 	add	fp, sp, #0
   14e24:	e24dd00c 	sub	sp, sp, #12
   14e28:	e50b0008 	str	r0, [fp, #-8]
